
8-Flash Demo.elf:     file format elf32-littleriscv
8-Flash Demo.elf
architecture: riscv:rv32, flags 0x00000112:
EXEC_P, HAS_SYMS, D_PAGED
start address 0x00000000

Program Header:
    LOAD off    0x00001000 vaddr 0x00000000 paddr 0x00000000 align 2**12
         filesz 0x00009624 memsz 0x00009624 flags r-x
    LOAD off    0x0000b000 vaddr 0x20000000 paddr 0x00009624 align 2**12
         filesz 0x00000250 memsz 0x00000704 flags rw-
    LOAD off    0x0000b800 vaddr 0x2000f800 paddr 0x2000f800 align 2**12
         filesz 0x00000000 memsz 0x00000800 flags rw-

Sections:
Idx Name           Size      VMA       LMA       File off  Algn  Flags
  0 .init          00000038  00000000  00000000  00001000  2**1  CONTENTS, ALLOC, LOAD, READONLY, CODE
  1 .vector        000001c8  00000038  00000038  00001038  2**1  CONTENTS, ALLOC, LOAD, READONLY, CODE
  2 .text          00009424  00000200  00000200  00001200  2**3  CONTENTS, ALLOC, LOAD, READONLY, CODE
  3 .fini          00000000  00009624  00009624  0000b250  2**0  CONTENTS, ALLOC, LOAD, CODE
  4 .dalign        00000000  20000000  20000000  0000b250  2**0  CONTENTS
  5 .dlalign       00000000  00009624  00009624  0000b250  2**0  CONTENTS
  6 .data          00000250  20000000  00009624  0000b000  2**2  CONTENTS, ALLOC, LOAD, DATA
  7 .bss           000004b4  20000250  00009874  0000b250  2**2  ALLOC
  8 .stack         00000800  2000f800  2000f800  0000b800  2**0  ALLOC
  9 .debug_info    00016232  00000000  00000000  0000b250  2**0  CONTENTS, READONLY, DEBUGGING
 10 .debug_abbrev  0000398f  00000000  00000000  00021482  2**0  CONTENTS, READONLY, DEBUGGING
 11 .debug_aranges 00000e20  00000000  00000000  00024e18  2**3  CONTENTS, READONLY, DEBUGGING
 12 .debug_ranges  00000c68  00000000  00000000  00025c38  2**3  CONTENTS, READONLY, DEBUGGING
 13 .debug_line    0000f750  00000000  00000000  000268a0  2**0  CONTENTS, READONLY, DEBUGGING
 14 .debug_str     000056a7  00000000  00000000  00035ff0  2**0  CONTENTS, READONLY, DEBUGGING
 15 .comment       00000033  00000000  00000000  0003b697  2**0  CONTENTS, READONLY
 16 .debug_frame   0000447c  00000000  00000000  0003b6cc  2**2  CONTENTS, READONLY, DEBUGGING
 17 .stab          00000084  00000000  00000000  0003fb48  2**2  CONTENTS, READONLY, DEBUGGING
 18 .stabstr       00000117  00000000  00000000  0003fbcc  2**0  CONTENTS, READONLY, DEBUGGING
SYMBOL TABLE:
00000000 l    d  .init	00000000 .init
00000038 l    d  .vector	00000000 .vector
00000200 l    d  .text	00000000 .text
00009624 l    d  .fini	00000000 .fini
20000000 l    d  .dalign	00000000 .dalign
00009624 l    d  .dlalign	00000000 .dlalign
20000000 l    d  .data	00000000 .data
20000250 l    d  .bss	00000000 .bss
2000f800 l    d  .stack	00000000 .stack
00000000 l    d  .debug_info	00000000 .debug_info
00000000 l    d  .debug_abbrev	00000000 .debug_abbrev
00000000 l    d  .debug_aranges	00000000 .debug_aranges
00000000 l    d  .debug_ranges	00000000 .debug_ranges
00000000 l    d  .debug_line	00000000 .debug_line
00000000 l    d  .debug_str	00000000 .debug_str
00000000 l    d  .comment	00000000 .comment
00000000 l    d  .debug_frame	00000000 .debug_frame
00000000 l    d  .stab	00000000 .stab
00000000 l    d  .stabstr	00000000 .stabstr
00000000 l    df *ABS*	00000000 ./sdk/Startup/startup_ch32v30x.o
00000038 l       .vector	00000000 _vector_base
00000000 l    df *ABS*	00000000 zf_driver_flash.c
20000220 l     O .data	00000004 gFlashStatus.3966
20000224 l     O .data	00000004 gFlashStatus.4003
00000000 l    df *ABS*	00000000 zf_driver_gpio.c
00000000 l    df *ABS*	00000000 zf_driver_uart.c
00000000 l    df *ABS*	00000000 zf_device_bluetooth_ch9141.c
200006b0 l     O .bss	00000014 bluetooth_ch9141_fifo
20000250 l     O .bss	00000001 bluetooth_ch9141_data
00000000 l    df *ABS*	00000000 zf_device_bluetooth_ch9141_ch2.c
200006c4 l     O .bss	00000014 bluetooth_ch9141_fifo_ch2
20000251 l     O .bss	00000001 bluetooth_ch9141_data_ch2
00000000 l    df *ABS*	00000000 zf_device_camera.c
00000000 l    df *ABS*	00000000 zf_device_mt9v03x_dvp.c
2000025c l     O .bss	00000003 receive_dvp
2000025f l     O .bss	00000001 receive_num_dvp
20000260 l     O .bss	00000001 uart_receive_flag_dvp
00000000 l    df *ABS*	00000000 zf_device_scc8660_dvp.c
00000000 l    df *ABS*	00000000 zf_device_wireless_ch573.c
200006d8 l     O .bss	00000014 wireless_ch573_fifo
20000274 l     O .bss	00000001 wireless_ch573_data
00000000 l    df *ABS*	00000000 zf_device_wireless_uart.c
200006ec l     O .bss	00000014 wireless_uart_fifo
20000275 l     O .bss	00000001 wireless_uart_data
00000000 l    df *ABS*	00000000 zf_common_clock.c
0000101e l     F .text	00000076 clock_reset
00001094 l     F .text	00000260 clock_set_freq
00000000 l    df *ABS*	00000000 zf_common_debug.c
00000000 l    df *ABS*	00000000 zf_common_fifo.c
00000000 l    df *ABS*	00000000 zf_common_interrupt.c
000014f2 l     F .text	00000032 NVIC_EnableIRQ
00001524 l     F .text	00000032 NVIC_DisableIRQ
20000280 l     O .bss	00000004 interrupt_nest_count
00000000 l    df *ABS*	00000000 isr.c
00000000 l    df *ABS*	00000000 main.c
00000000 l    df *ABS*	00000000 system_ch32v30x.c
0000217a l     F .text	00000014 SetSysClock
0000218e l     F .text	00000162 SetSysClockTo144
00000000 l    df *ABS*	00000000 ch32v30x_exti.c
00000000 l    df *ABS*	00000000 ch32v30x_flash.c
00000000 l    df *ABS*	00000000 ch32v30x_gpio.c
00000000 l    df *ABS*	00000000 ch32v30x_rcc.c
20000000 l     O .data	00000010 APBAHBPrescTable
20000228 l     O .data	00000004 ADCPrescTable
00000000 l    df *ABS*	00000000 ch32v30x_tim.c
00000000 l    df *ABS*	00000000 ch32v30x_usart.c
00000000 l    df *ABS*	00000000 ch32v30x_usbotg_device.c
00000000 l    df *ABS*	00000000 adddf3.c
00000000 l    df *ABS*	00000000 divdf3.c
00000000 l    df *ABS*	00000000 eqdf2.c
00000000 l    df *ABS*	00000000 ledf2.c
00000000 l    df *ABS*	00000000 muldf3.c
00000000 l    df *ABS*	00000000 subdf3.c
00000000 l    df *ABS*	00000000 fixdfsi.c
00000000 l    df *ABS*	00000000 floatsidf.c
00000000 l    df *ABS*	00000000 extendsfdf2.c
00000000 l    df *ABS*	00000000 libgcc2.c
00000000 l    df *ABS*	00000000 memcpy.c
00000000 l    df *ABS*	00000000 nano-vfprintf_float.c
00000000 l    df *ABS*	00000000 nano-vfprintf_i.c
00000000 l    df *ABS*	00000000 printf.c
00000000 l    df *ABS*	00000000 puts.c
00000000 l    df *ABS*	00000000 strlen.c
00000000 l    df *ABS*	00000000 wbuf.c
00000000 l    df *ABS*	00000000 wsetup.c
00000000 l    df *ABS*	00000000 dtoa.c
000069be l     F .text	0000013a quorem
00000000 l    df *ABS*	00000000 fflush.c
00000000 l    df *ABS*	00000000 findfp.c
000078ba l     F .text	0000006a std
00000000 l    df *ABS*	00000000 fwalk.c
00000000 l    df *ABS*	00000000 localeconv.c
00000000 l    df *ABS*	00000000 makebuf.c
00000000 l    df *ABS*	00000000 malloc.c
00000000 l    df *ABS*	00000000 memchr.c
00000000 l    df *ABS*	00000000 mprec.c
000094f0 l     O .text	0000000c p05.3319
00000000 l    df *ABS*	00000000 nano-mallocr.c
00000000 l    df *ABS*	00000000 nano-mallocr.c
00000000 l    df *ABS*	00000000 nano-mallocr.c
00000000 l    df *ABS*	00000000 nano-vfprintf.c
000084b8 l     F .text	0000002a __sfputc_r
00000000 l    df *ABS*	00000000 sbrkr.c
00000000 l    df *ABS*	00000000 stdio.c
00000000 l    df *ABS*	00000000 writer.c
00000000 l    df *ABS*	00000000 closer.c
00000000 l    df *ABS*	00000000 fstatr.c
00000000 l    df *ABS*	00000000 isattyr.c
00000000 l    df *ABS*	00000000 lseekr.c
00000000 l    df *ABS*	00000000 mbtowc_r.c
00000000 l    df *ABS*	00000000 mlock.c
00000000 l    df *ABS*	00000000 readr.c
00000000 l    df *ABS*	00000000 wctomb_r.c
00000000 l    df *ABS*	00000000 gedf2.c
00000000 l    df *ABS*	00000000 unorddf2.c
00000000 l    df *ABS*	00000000 floatunsidf.c
00000000 l    df *ABS*	00000000 trunctfdf2.c
00000000 l    df *ABS*	00000000 close.c
00000000 l    df *ABS*	00000000 fstat.c
00000000 l    df *ABS*	00000000 isatty.c
00000000 l    df *ABS*	00000000 lseek.c
00000000 l    df *ABS*	00000000 read.c
00000000 l    df *ABS*	00000000 sbrk.c
200002ac l     O .bss	00000004 heap_end.1518
00000000 l    df *ABS*	00000000 libgcc2.c
00000000 l    df *ABS*	00000000 locale.c
00000000 l    df *ABS*	00000000 ctype_.c
00000000 l    df *ABS*	00000000 impure.c
20000054 l     O .data	00000060 impure_data
00000000 l    df *ABS*	00000000 zf_device_type.c
00000000 l    df *ABS*	00000000 reent.c
00005cb2 g     F .text	000000ee __cvt
00001852 g     F .text	00000024 EXTI2_IRQHandler
20000270 g     O .bss	00000004 wireless_type
0000201a  w      .text	00000000 TIM8_TRG_COM_IRQHandler
0000201c  w      .text	00000000 TIM8_CC_IRQHandler
00000ab2 g     F .text	0000005e uart_query_byte
2000029e g     O .bss	00000001 USBHD_Dev_SleepStatus
00008928 g     F .text	00000028 _isatty_r
00002366 g     F .text	0000002a FLASH_Unlock
000066ea g     F .text	000000de _puts_r
00003252 g     F .text	0000003e DevEP1_IN_Deal
00008950 g     F .text	0000002c _lseek_r
20000268 g     O .bss	00000001 scc8660_uart_receive_flag_dvp
000017a0 g     F .text	0000002c UART8_IRQHandler
00004cee g     F .text	0000006a .hidden __eqdf2
000066a8 g     F .text	00000042 printf
20000a20 g       .data	00000000 __global_pointer$
00001ff6  w      .text	00000000 TIM1_CC_IRQHandler
0000886c g     F .text	00000036 __sseek
00007976 g     F .text	0000006c __sinit
000067e6 g     F .text	000000c6 __swbuf_r
000013f2 g     F .text	00000100 fifo_write_buffer
00001bb2 g     F .text	00000008 HardFault_Handler
00002428 g     F .text	000000b6 FLASH_ProgramWord
0000792e g     F .text	00000048 __sfmoreglue
000089b8 g     F .text	00000002 __malloc_unlock
00000e0c g     F .text	00000036 camera_uart_handler
00000faa g     F .text	00000026 wireless_ch573_callback
00001ac2 g     F .text	00000028 TIM6_IRQHandler
00001fbc  w      .text	00000000 SysTick_Handler
00001fc2  w      .text	00000000 PVD_IRQHandler
00002022  w      .text	00000000 SDIO_IRQHandler
00002054  w      .text	00000000 TIM9_BRK_IRQHandler
00000f0c g     F .text	00000064 scc8660_uart_callback_dvp
00002068  w      .text	00000000 DMA2_Channel8_IRQHandler
00001ba2 g     F .text	00000010 NMI_Handler
00007c28 g     F .text	00000088 _Balloc
00002042  w      .text	00000000 CAN2_RX1_IRQHandler
00001876 g     F .text	00000024 EXTI3_IRQHandler
2000026c g     O .bss	00000004 camera_type
00008a06 g     F .text	000000ae .hidden __gtdf2
0000204a  w      .text	00000000 USBHS_IRQHandler
00001fbe  w      .text	00000000 SW_handler
0000031e g     F .text	00000070 flash_erase_page
000030bc g     F .text	00000046 USART_GetFlagStatus
0000206a  w      .text	00000000 DMA2_Channel9_IRQHandler
000088fe g     F .text	0000002a _fstat_r
00009070 g     O .text	00000014 MyReportDescHD
00002062  w      .text	00000000 TIM10_CC_IRQHandler
20000700 g     O .bss	00000004 errno
20000010 g     O .data	00000043 TAB_USB_FS_OSC_DESC
20000250 g       .bss	00000000 _sbss
00000800 g       *ABS*	00000000 __stack_size
000023ae g     F .text	0000007a FLASH_ErasePage
00000206 g       .text	00000000 en_interrupt
2000029f g     O .bss	00000001 DevConfig
00001572 g     F .text	0000001c interrupt_disable
0000038e g     F .text	0000006c flash_read_page_to_data_buffer
00000dc0 g     F .text	00000026 bluetooth_ch9141_uart_callback_ch1
00005bfc g     F .text	000000b6 memcpy
2000023c g     O .data	00000008 uart_irq
00007924 g     F .text	0000000a _cleanup_r
0000280a g     F .text	0000013c GPIO_PinRemapConfig
00005a6a g     F .text	00000070 .hidden __floatsidf
20000269 g     O .bss	00000001 scc8660_finish_flag_dvp
00004d58 g     F .text	000000b6 .hidden __ltdf2
0000180a g     F .text	00000024 EXTI0_IRQHandler
00002002  w      .text	00000000 I2C2_EV_IRQHandler
00002060  w      .text	00000000 TIM10_TRG_COM_IRQHandler
200002a2 g     O .bss	00000002 SetupReqLen
000067c8 g     F .text	0000000c puts
000090a0 g     O .text	00000016 MySerNumInfoHD
00007c02 g     F .text	0000000c malloc
00008d82 g     F .text	0000000c _fstat
00009428 g     O .text	000000c8 __mprec_tens
00000038 g       .init	00000000 _einit
00002d08 g     F .text	0000002e TIM_ClearITPendingBit
000090b8 g     O .text	0000000a MyUSBQUADescHD
0000158e g     F .text	0000000e interrupt_init
00002c0c g     F .text	00000046 RCC_APB2PeriphClockCmd
00002044  w      .text	00000000 CAN2_SCE_IRQHandler
00001fe4  w      .text	00000000 ADC1_2_IRQHandler
000025a8 g     F .text	0000022a GPIO_Init
00001fba  w      .text	00000000 Break_Point_Handler
200002a0 g     O .bss	00000001 SetupReqCode
00007aee g     F .text	00000018 _localeconv_r
00007e3c g     F .text	0000001c __i2b
000013a4 g     F .text	0000004e fifo_head_offset
00002006  w      .text	00000000 SPI1_IRQHandler
00002f6a g     F .text	00000060 USART_Cmd
000087c6 g     F .text	00000028 _sbrk_r
00001fc4  w      .text	00000000 TAMPER_IRQHandler
000089ba g     F .text	0000002c _read_r
00003204 g     F .text	0000004e USART_ClearITPendingBit
00002040  w      .text	00000000 CAN2_RX0_IRQHandler
00005ada g     F .text	000000ac .hidden __extendsfdf2
00001b1a g     F .text	00000030 TIM8_UP_IRQHandler
00002c52 g     F .text	00000046 RCC_APB1PeriphClockCmd
0000400a g     F .text	00000730 .hidden __adddf3
00001fb6  w      .text	00000000 Ecall_M_Mode_Handler
00000f70 g     F .text	0000003a scc8660_vsync_dvp
00008d8e g     F .text	0000000c _isatty
20000248 g     O .data	00000004 _global_impure_ptr
00002032  w      .text	00000000 DMA2_Channel2_IRQHandler
00001fdc  w      .text	00000000 DMA1_Channel4_IRQHandler
00009400 g     O .text	00000028 __mprec_bigtens
00008af0 g     F .text	00000068 .hidden __floatunsidf
00008db2 g     F .text	00000020 _sbrk
00008128 g     F .text	00000032 __mcmp
00000e6e g     F .text	00000064 mt9v03x_uart_callback_dvp
00002390 g     F .text	0000001e FLASH_Lock
00001b4a g     F .text	00000030 TIM9_UP_IRQHandler
00001688 g     F .text	00000034 USART3_IRQHandler
00002346 g     F .text	00000020 EXTI_ClearITPendingBit
00001fc6  w      .text	00000000 RTC_IRQHandler
20000704 g       .bss	00000000 _ebss
00003102 g     F .text	00000102 USART_GetITStatus
00001fe2  w      .text	00000000 DMA1_Channel7_IRQHandler
00009094 g     O .text	0000000c MyProdInfoHD
00007d8c g     F .text	00000046 __hi0bits
00001fea  w      .text	00000000 CAN1_RX1_IRQHandler
00005a02 g     F .text	00000068 .hidden __fixdfsi
000017cc g     F .text	0000003e DVP_IRQHandler
000016f0 g     F .text	00000030 UART5_IRQHandler
20000298 g     O .bss	00000004 pDescr
20000244 g     O .data	00000004 MyLangDescrHD
20000278 g     O .bss	00000004 system_clock
000002bc g     F .text	00000062 flash_check
00001a62 g     F .text	00000030 TIM4_IRQHandler
00004d58 g     F .text	000000b6 .hidden __ledf2
000027d2 g     F .text	00000038 GPIO_WriteBit
00000ff6 g     F .text	00000028 clock_init
00002030  w      .text	00000000 DMA2_Channel1_IRQHandler
00007f9c g     F .text	000000be __pow5mult
000093a0 g     O .text	00000020 __sf_fake_stderr
20000704 g       .bss	00000000 end
20000230 g     O .data	00000007 LineCoding
00001ffe  w      .text	00000000 I2C1_EV_IRQHandler
00002c98 g     F .text	00000070 TIM_GetITStatus
00002946 g     F .text	000002c6 RCC_GetClocksFreq
00001fe0  w      .text	00000000 DMA1_Channel6_IRQHandler
00005b86 g     F .text	00000076 .hidden __clzsi2
000084e2 g     F .text	00000044 __sfputs_r
00000b10 g     F .text	000002b0 uart_init
000016bc g     F .text	00000034 UART4_IRQHandler
00002036  w      .text	00000000 DMA2_Channel4_IRQHandler
00007c0e g     F .text	0000001a memchr
00005e2c  w    F .text	000004c4 _printf_float
00002d36 g     F .text	00000234 USART_Init
00008346 g     F .text	000000a4 _free_r
00001a32 g     F .text	00000030 TIM3_IRQHandler
00001fca  w      .text	00000000 RCC_IRQHandler
0000066a g     F .text	000003c2 uart_gpio_init
00001ff4  w      .text	00000000 TIM1_TRG_COM_IRQHandler
00001fd6  w      .text	00000000 DMA1_Channel1_IRQHandler
00000000 g       .init	00000000 _start
00002066  w      .text	00000000 DMA2_Channel7_IRQHandler
000024de g     F .text	0000001c FLASH_ClearFlag
00008d9a g     F .text	0000000c _lseek
0000805a g     F .text	000000ce __lshift
00002554 g     F .text	00000054 FLASH_WaitForLastOperation
000003fa g     F .text	000000b6 flash_write_page_to_data_buffer
00001946 g     F .text	00000094 EXTI15_10_IRQHandler
00000200 g       .text	00000000 dis_interrupt
00000a2c g     F .text	00000086 uart_rx_interrupt
00002fca g     F .text	000000c4 USART_ITConfig
20000294 g     O .bss	00000004 pEP2_RAM_Addr
00007e58 g     F .text	00000144 __multiply
0000824c g     F .text	000000d4 __d2b
00000de6 g     F .text	00000026 bluetooth_ch9141_uart_callback_ch2
00001aea g     F .text	00000030 TIM7_IRQHandler
000088d6 g     F .text	00000028 _close_r
0000203e  w      .text	00000000 CAN2_TX_IRQHandler
20000000 g       .dalign	00000000 _data_vma
00001a92 g     F .text	00000030 TIM5_IRQHandler
000004b0 g     F .text	00000024 flash_data_buffer_clear
00003332 g     F .text	00000064 DevEP2_OUT_Deal
000068ac g     F .text	00000112 __swsetup_r
000018be g     F .text	00000088 EXTI9_5_IRQHandler
0000473a g     F .text	000005b4 .hidden __divdf3
000079e2 g     F .text	000000a0 __sfp
00004e0e g     F .text	000004b8 .hidden __muldf3
000087ee g     F .text	00000030 __sread
0000203c  w      .text	00000000 ETH_WKUP_IRQHandler
000032ce g     F .text	00000064 DevEP1_OUT_Deal
000089b6 g     F .text	00000002 __malloc_lock
00007854 g     F .text	00000066 _fflush_r
00008320 g     F .text	00000026 _calloc_r
000022f0 g     F .text	00000056 EXTI_GetITStatus
2000028c g     O .bss	00000004 pEP0_RAM_Addr
20000258 g     O .bss	00000001 mt9v03x_finish_flag_dvp
00002008  w      .text	00000000 SPI2_IRQHandler
000093c0 g     O .text	00000020 __sf_fake_stdin
00009018 g     O .text	00000012 MyDevDescrHD
00000214 g     F .text	000000a8 memset
00001bba g     F .text	000003f8 main
0000205c  w      .text	00000000 TIM10_BRK_IRQHandler
0000205a  w      .text	00000000 TIM9_CC_IRQHandler
000088a2 g     F .text	00000006 __sclose
00002038  w      .text	00000000 DMA2_Channel5_IRQHandler
2000022c g     O .data	00000001 USBHD_Dev_Speed
20000267 g     O .bss	00000001 scc8660_uart_receive_num_dvp
00006af8 g     F .text	00000c1e _dtoa_r
000083ea g     F .text	000000ce _malloc_r
000089e6 g     F .text	00000020 __ascii_wctomb
00009084 g     O .text	0000000e MyManuInfoHD
20000264 g     O .bss	00000003 scc8660_uart_receive_dvp
00001fde  w      .text	00000000 DMA1_Channel5_IRQHandler
2000027c g     O .bss	00000001 zf_debug_init_flag
00008ff8 g     O .text	00000020 uart_index
0000189a g     F .text	00000024 EXTI4_IRQHandler
00001fe8  w      .text	00000000 USB_LP_CAN1_RX0_IRQHandler
00000ed2 g     F .text	0000003a mt9v03x_handler_dvp
000012f4 g     F .text	00000034 debug_init
20000254 g     O .bss	00000004 camera_buffer_addr
000020fe g     F .text	0000007c SystemInit
0000201e  w      .text	00000000 RNG_IRQHandler
00004cee g     F .text	0000006a .hidden __nedf2
000066a8 g     F .text	00000042 iprintf
20000284 g     O .bss	00000008 EP0_DatabufHD
00001fe6  w      .text	00000000 USB_HP_CAN1_TX_IRQHandler
00009200 g     O .text	00000100 .hidden __clz_tab
00005da0 g     F .text	0000008c __exponent
00000000 g       .init	00000000 _sinit
00003290 g     F .text	0000003e DevEP2_IN_Deal
000088a8 g     F .text	0000002e _write_r
00001fda  w      .text	00000000 DMA1_Channel3_IRQHandler
00002020  w      .text	00000000 FSMC_IRQHandler
0000203a  w      .text	00000000 ETH_IRQHandler
000062f0 g     F .text	0000010c _printf_common
20000238 g     O .data	00000004 _impure_ptr
000019da g     F .text	00000030 TIM1_UP_IRQHandler
00007716 g     F .text	0000013e __sflush_r
00001fc0  w      .text	00000000 WWDG_IRQHandler
00002048  w      .text	00000000 USBHSWakeup_IRQHandler
0000206e  w      .text	00000000 DMA2_Channel11_IRQHandler
0000897c g     F .text	0000003a __ascii_mbtowc
00001fb8  w      .text	00000000 Ecall_U_Mode_Handler
00002064  w      .text	00000000 DMA2_Channel6_IRQHandler
00001a0a g     F .text	00000028 TIM2_IRQHandler
20010000 g       .stack	00000000 _eusrstack
0000902c g     O .text	00000043 MyCfgDescrHD
00001ff0  w      .text	00000000 TIM1_BRK_IRQHandler
00007b06 g     F .text	0000005a __swhatbuf_r
0000308e g     F .text	0000002e USART_SendData
0000206c  w      .text	00000000 DMA2_Channel10_IRQHandler
0000182e g     F .text	00000024 EXTI1_IRQHandler
00001328 g     F .text	0000007c _write
20000250 g       .data	00000000 _edata
00000fd0 g     F .text	00000026 wireless_uart_callback
2000029c g     O .bss	00000002 USBHD_Dev_SetupReqLen
00002012  w      .text	00000000 RTCAlarm_IRQHandler
00009624 g       .dlalign	00000000 _data_lma
00001b7a g     F .text	00000028 TIM10_UP_IRQHandler
00002058  w      .text	00000000 TIM9_TRG_COM_IRQHandler
00001754 g     F .text	0000004c UART7_IRQHandler
00001626 g     F .text	00000062 USART2_IRQHandler
00001720 g     F .text	00000034 UART6_IRQHandler
0000881e g     F .text	0000004e __swrite
00008526 g     F .text	000002a0 _vfiprintf_r
00007a82 g     F .text	0000006c _fwalk_reent
0000815a g     F .text	000000f2 __mdiff
0000159c g     F .text	0000002e interrupt_global_enable
00002004  w      .text	00000000 I2C2_ER_IRQHandler
00001fd8  w      .text	00000000 DMA1_Channel2_IRQHandler
000093e0 g     O .text	00000020 __sf_fake_stdout
00002016  w      .text	00000000 TIM8_BRK_IRQHandler
00009520 g     O .text	00000101 _ctype_
200002b0 g     O .bss	00000400 flash_data_union_buffer
00008da6 g     F .text	0000000c _read
00008ab4 g     F .text	0000003c .hidden __unorddf2
00002070  w      .text	00000000 handle_reset
00001fec  w      .text	00000000 CAN1_SCE_IRQHandler
00008fe4 g     O .text	00000014 gpio_group
00001fc8  w      .text	00000000 FLASH_IRQHandler
000015f2 g     F .text	00000034 USART1_IRQHandler
00007b60 g     F .text	000000a2 __smakebuf_r
00001556 g     F .text	0000001c interrupt_enable
000067d4 g     F .text	00000012 strlen
00003396 g     F .text	00000c74 OTG_FS_IRQHandler
000063fc g     F .text	000002ac _printf_i
00002026  w      .text	00000000 SPI3_IRQHandler
00000e42 g     F .text	0000002c camera_dvp_handler
00008a06 g     F .text	000000ae .hidden __gedf2
200002a8 g     O .bss	00000004 __malloc_sbrk_start
00002000  w      .text	00000000 I2C1_ER_IRQHandler
000004d4 g     F .text	00000196 gpio_init
200002a4 g     O .bss	00000004 __malloc_free_list
000052c6 g     F .text	0000073c .hidden __subdf3
00008526 g     F .text	000002a0 _vfprintf_r
00007dd2 g     F .text	0000006a __lo0bits
20000290 g     O .bss	00000004 pEP1_RAM_Addr
000024fa g     F .text	0000005a FLASH_GetBank1Status
200000b4 g     O .data	0000016c __global_locale
00002014  w      .text	00000000 USBWakeUp_IRQHandler
00008b58 g     F .text	0000021e .hidden __trunctfdf2
00008d76 g     F .text	0000000c _close
00002034  w      .text	00000000 DMA2_Channel3_IRQHandler
00007cf4 g     F .text	00000098 __multadd
000015ca g     F .text	00000028 interrupt_global_disable
00007cb0 g     F .text	00000044 _Bfree



Disassembly of section .init:

00000000 <_sinit>:
_start():
E:/CODE/C/ch32v307/CHV307_Library/Example/libraries/sdk/Startup/startup_ch32v30x.S:13

	.section	.init,"ax",@progbits
	.global	_start
	.align	1
_start:
	j	handle_reset
   0:	0700206f          	j	2070 <handle_reset>
   4:	00000013          	nop
   8:	00000013          	nop
   c:	00000013          	nop
  10:	00000013          	nop
  14:	00000013          	nop
  18:	00000013          	nop
  1c:	00000013          	nop
  20:	00000013          	nop
  24:	00000013          	nop
  28:	00000013          	nop
  2c:	00000013          	nop
  30:	00000013          	nop
  34:	00100073          	ebreak

Disassembly of section .vector:

00000038 <_vector_base>:
	...
_vector_base():
  40:	1ba2                	slli	s7,s7,0x28
  42:	0000                	unimp
  44:	1bb2                	slli	s7,s7,0x2c
  46:	0000                	unimp
  48:	0000                	unimp
  4a:	0000                	unimp
  4c:	1fb6                	slli	t6,t6,0x2d
	...
  56:	0000                	unimp
  58:	1fb8                	addi	a4,sp,1016
  5a:	0000                	unimp
  5c:	1fba                	slli	t6,t6,0x2e
	...
  66:	0000                	unimp
  68:	1fbc                	addi	a5,sp,1016
  6a:	0000                	unimp
  6c:	0000                	unimp
  6e:	0000                	unimp
  70:	1fbe                	slli	t6,t6,0x2f
  72:	0000                	unimp
  74:	0000                	unimp
  76:	0000                	unimp
  78:	1fc0                	addi	s0,sp,1012
  7a:	0000                	unimp
  7c:	1fc2                	slli	t6,t6,0x30
  7e:	0000                	unimp
  80:	1fc4                	addi	s1,sp,1012
  82:	0000                	unimp
  84:	1fc6                	slli	t6,t6,0x31
  86:	0000                	unimp
  88:	1fc8                	addi	a0,sp,1012
  8a:	0000                	unimp
  8c:	1fca                	slli	t6,t6,0x32
  8e:	0000                	unimp
  90:	180a                	slli	a6,a6,0x22
  92:	0000                	unimp
  94:	182e                	slli	a6,a6,0x2b
  96:	0000                	unimp
  98:	1852                	slli	a6,a6,0x34
  9a:	0000                	unimp
  9c:	1876                	slli	a6,a6,0x3d
  9e:	0000                	unimp
  a0:	189a                	slli	a7,a7,0x26
  a2:	0000                	unimp
  a4:	1fd6                	slli	t6,t6,0x35
  a6:	0000                	unimp
  a8:	1fd8                	addi	a4,sp,1012
  aa:	0000                	unimp
  ac:	1fda                	slli	t6,t6,0x36
  ae:	0000                	unimp
  b0:	1fdc                	addi	a5,sp,1012
  b2:	0000                	unimp
  b4:	1fde                	slli	t6,t6,0x37
  b6:	0000                	unimp
  b8:	1fe0                	addi	s0,sp,1020
  ba:	0000                	unimp
  bc:	1fe2                	slli	t6,t6,0x38
  be:	0000                	unimp
  c0:	1fe4                	addi	s1,sp,1020
  c2:	0000                	unimp
  c4:	1fe6                	slli	t6,t6,0x39
  c6:	0000                	unimp
  c8:	1fe8                	addi	a0,sp,1020
  ca:	0000                	unimp
  cc:	1fea                	slli	t6,t6,0x3a
  ce:	0000                	unimp
  d0:	1fec                	addi	a1,sp,1020
  d2:	0000                	unimp
  d4:	18be                	slli	a7,a7,0x2f
  d6:	0000                	unimp
  d8:	1ff0                	addi	a2,sp,1020
  da:	0000                	unimp
  dc:	19da                	slli	s3,s3,0x36
  de:	0000                	unimp
  e0:	1ff4                	addi	a3,sp,1020
  e2:	0000                	unimp
  e4:	1ff6                	slli	t6,t6,0x3d
  e6:	0000                	unimp
  e8:	1a0a                	slli	s4,s4,0x22
  ea:	0000                	unimp
  ec:	1a32                	slli	s4,s4,0x2c
  ee:	0000                	unimp
  f0:	1a62                	slli	s4,s4,0x38
  f2:	0000                	unimp
  f4:	1ffe                	slli	t6,t6,0x3f
  f6:	0000                	unimp
  f8:	2000                	fld	fs0,0(s0)
  fa:	0000                	unimp
  fc:	2002                	fld	ft0,0(sp)
  fe:	0000                	unimp
 100:	2004                	fld	fs1,0(s0)
 102:	0000                	unimp
 104:	2006                	fld	ft0,64(sp)
 106:	0000                	unimp
 108:	2008                	fld	fa0,0(s0)
 10a:	0000                	unimp
 10c:	15f2                	slli	a1,a1,0x3c
 10e:	0000                	unimp
 110:	1626                	slli	a2,a2,0x29
 112:	0000                	unimp
 114:	1688                	addi	a0,sp,864
 116:	0000                	unimp
 118:	1946                	slli	s2,s2,0x31
 11a:	0000                	unimp
 11c:	2012                	fld	ft0,256(sp)
 11e:	0000                	unimp
 120:	2014                	fld	fa3,0(s0)
 122:	0000                	unimp
 124:	2016                	fld	ft0,320(sp)
 126:	0000                	unimp
 128:	1b1a                	slli	s6,s6,0x26
 12a:	0000                	unimp
 12c:	201a                	fld	ft0,384(sp)
 12e:	0000                	unimp
 130:	201c                	fld	fa5,0(s0)
 132:	0000                	unimp
 134:	201e                	fld	ft0,448(sp)
 136:	0000                	unimp
 138:	2020                	fld	fs0,64(s0)
 13a:	0000                	unimp
 13c:	2022                	fld	ft0,8(sp)
 13e:	0000                	unimp
 140:	1a92                	slli	s5,s5,0x24
 142:	0000                	unimp
 144:	2026                	fld	ft0,72(sp)
 146:	0000                	unimp
 148:	16bc                	addi	a5,sp,872
 14a:	0000                	unimp
 14c:	16f0                	addi	a2,sp,876
 14e:	0000                	unimp
 150:	1ac2                	slli	s5,s5,0x30
 152:	0000                	unimp
 154:	1aea                	slli	s5,s5,0x3a
 156:	0000                	unimp
 158:	2030                	fld	fa2,64(s0)
 15a:	0000                	unimp
 15c:	2032                	fld	ft0,264(sp)
 15e:	0000                	unimp
 160:	2034                	fld	fa3,64(s0)
 162:	0000                	unimp
 164:	2036                	fld	ft0,328(sp)
 166:	0000                	unimp
 168:	2038                	fld	fa4,64(s0)
 16a:	0000                	unimp
 16c:	203a                	fld	ft0,392(sp)
 16e:	0000                	unimp
 170:	203c                	fld	fa5,64(s0)
 172:	0000                	unimp
 174:	203e                	fld	ft0,456(sp)
 176:	0000                	unimp
 178:	2040                	fld	fs0,128(s0)
 17a:	0000                	unimp
 17c:	2042                	fld	ft0,16(sp)
 17e:	0000                	unimp
 180:	2044                	fld	fs1,128(s0)
 182:	0000                	unimp
 184:	3396                	fld	ft7,352(sp)
 186:	0000                	unimp
 188:	2048                	fld	fa0,128(s0)
 18a:	0000                	unimp
 18c:	204a                	fld	ft0,144(sp)
 18e:	0000                	unimp
 190:	17cc                	addi	a1,sp,996
 192:	0000                	unimp
 194:	1720                	addi	s0,sp,936
 196:	0000                	unimp
 198:	1754                	addi	a3,sp,932
 19a:	0000                	unimp
 19c:	17a0                	addi	s0,sp,1000
 19e:	0000                	unimp
 1a0:	2054                	fld	fa3,128(s0)
 1a2:	0000                	unimp
 1a4:	1b4a                	slli	s6,s6,0x32
 1a6:	0000                	unimp
 1a8:	2058                	fld	fa4,128(s0)
 1aa:	0000                	unimp
 1ac:	205a                	fld	ft0,400(sp)
 1ae:	0000                	unimp
 1b0:	205c                	fld	fa5,128(s0)
 1b2:	0000                	unimp
 1b4:	1b7a                	slli	s6,s6,0x3e
 1b6:	0000                	unimp
 1b8:	2060                	fld	fs0,192(s0)
 1ba:	0000                	unimp
 1bc:	2062                	fld	ft0,24(sp)
 1be:	0000                	unimp
 1c0:	2064                	fld	fs1,192(s0)
 1c2:	0000                	unimp
 1c4:	2066                	fld	ft0,88(sp)
 1c6:	0000                	unimp
 1c8:	2068                	fld	fa0,192(s0)
 1ca:	0000                	unimp
 1cc:	206a                	fld	ft0,152(sp)
 1ce:	0000                	unimp
 1d0:	206c                	fld	fa1,192(s0)
 1d2:	0000                	unimp
 1d4:	206e                	fld	ft0,216(sp)
	...

Disassembly of section .text:

00000200 <dis_interrupt>:
dis_interrupt():
E:/CODE/C/ch32v307/CHV307_Library/Example/libraries/zf_driver/zf_driver_irq.S:39
#a0 = 0x7888
#mstatus中的第11 12位MPP
#00 用户模式  (U)
#01 监管者模式(S)
#11 机器模式  (M) 只有该模式允许使用SCR指令
    csrrci a0, mstatus, 0x8
     200:	30047573          	csrrci	a0,mstatus,8
E:/CODE/C/ch32v307/CHV307_Library/Example/libraries/zf_driver/zf_driver_irq.S:40
    ret
     204:	8082                	ret

00000206 <en_interrupt>:
en_interrupt():
E:/CODE/C/ch32v307/CHV307_Library/Example/libraries/zf_driver/zf_driver_irq.S:57

#	li t0, 0x1f
#	csrw 0x804, t0

#mstatus寄存器中的MIE位置1，切换为用户模式
   	li t0, 0x6088
     206:	000062b7          	lui	t0,0x6
     20a:	08828293          	addi	t0,t0,136 # 6088 <_printf_float+0x25c>
E:/CODE/C/ch32v307/CHV307_Library/Example/libraries/zf_driver/zf_driver_irq.S:58
   	csrs mstatus, t0
     20e:	3002a073          	csrs	mstatus,t0
E:/CODE/C/ch32v307/CHV307_Library/Example/libraries/zf_driver/zf_driver_irq.S:59
    ret
     212:	8082                	ret

00000214 <memset>:
memset():
     214:	433d                	li	t1,15
     216:	872a                	mv	a4,a0
     218:	02c37363          	bgeu	t1,a2,23e <memset+0x2a>
     21c:	00f77793          	andi	a5,a4,15
     220:	efbd                	bnez	a5,29e <memset+0x8a>
     222:	e5ad                	bnez	a1,28c <memset+0x78>
     224:	ff067693          	andi	a3,a2,-16
     228:	8a3d                	andi	a2,a2,15
     22a:	96ba                	add	a3,a3,a4
     22c:	c30c                	sw	a1,0(a4)
     22e:	c34c                	sw	a1,4(a4)
     230:	c70c                	sw	a1,8(a4)
     232:	c74c                	sw	a1,12(a4)
     234:	0741                	addi	a4,a4,16
     236:	fed76be3          	bltu	a4,a3,22c <memset+0x18>
     23a:	e211                	bnez	a2,23e <memset+0x2a>
     23c:	8082                	ret
     23e:	40c306b3          	sub	a3,t1,a2
     242:	068a                	slli	a3,a3,0x2
     244:	00000297          	auipc	t0,0x0
     248:	9696                	add	a3,a3,t0
     24a:	00a68067          	jr	10(a3)
     24e:	00b70723          	sb	a1,14(a4)
     252:	00b706a3          	sb	a1,13(a4)
     256:	00b70623          	sb	a1,12(a4)
     25a:	00b705a3          	sb	a1,11(a4)
     25e:	00b70523          	sb	a1,10(a4)
     262:	00b704a3          	sb	a1,9(a4)
     266:	00b70423          	sb	a1,8(a4)
     26a:	00b703a3          	sb	a1,7(a4)
     26e:	00b70323          	sb	a1,6(a4)
     272:	00b702a3          	sb	a1,5(a4)
     276:	00b70223          	sb	a1,4(a4)
     27a:	00b701a3          	sb	a1,3(a4)
     27e:	00b70123          	sb	a1,2(a4)
     282:	00b700a3          	sb	a1,1(a4)
     286:	00b70023          	sb	a1,0(a4)
     28a:	8082                	ret
     28c:	0ff5f593          	andi	a1,a1,255
     290:	00859693          	slli	a3,a1,0x8
     294:	8dd5                	or	a1,a1,a3
     296:	01059693          	slli	a3,a1,0x10
     29a:	8dd5                	or	a1,a1,a3
     29c:	b761                	j	224 <memset+0x10>
     29e:	00279693          	slli	a3,a5,0x2
     2a2:	00000297          	auipc	t0,0x0
     2a6:	9696                	add	a3,a3,t0
     2a8:	8286                	mv	t0,ra
     2aa:	fa8680e7          	jalr	-88(a3)
     2ae:	8096                	mv	ra,t0
     2b0:	17c1                	addi	a5,a5,-16
     2b2:	8f1d                	sub	a4,a4,a5
     2b4:	963e                	add	a2,a2,a5
     2b6:	f8c374e3          	bgeu	t1,a2,23e <memset+0x2a>
     2ba:	b7a5                	j	222 <memset+0xe>

000002bc <flash_check>:
flash_check():
E:/CODE/C/ch32v307/CHV307_Library/Example/libraries/zf_driver/zf_driver_flash.c:36
//  @return                     返回1有数据，返回0没有数据，如果需要对有数据的区域写入新的数据则应该对所在扇区进行擦除操作
//  @since      v1.0
//  Sample usage:               flash_check(FLASH_SECTION_63,FLASH_PAGE_0);
//-------------------------------------------------------------------------------------------------------------------
uint8 flash_check (flash_section_enum sector_num, flash_page_enum page_num)
{
     2bc:	7179                	addi	sp,sp,-48
     2be:	d622                	sw	s0,44(sp)
     2c0:	1800                	addi	s0,sp,48
     2c2:	fca42e23          	sw	a0,-36(s0)
     2c6:	fcb42c23          	sw	a1,-40(s0)
E:/CODE/C/ch32v307/CHV307_Library/Example/libraries/zf_driver/zf_driver_flash.c:38
    uint16 temp_loop;
    uint32 flash_addr = ((FLASH_BASE_ADDR+FLASH_SECTION_SIZE*sector_num+FLASH_PAGE_SIZE*page_num));     // 提取当前 Flash 地址
     2ca:	fdc42703          	lw	a4,-36(s0)
     2ce:	67a1                	lui	a5,0x8
     2d0:	97ba                	add	a5,a5,a4
     2d2:	00279713          	slli	a4,a5,0x2
     2d6:	fd842783          	lw	a5,-40(s0)
     2da:	97ba                	add	a5,a5,a4
     2dc:	07aa                	slli	a5,a5,0xa
     2de:	fef42423          	sw	a5,-24(s0)
E:/CODE/C/ch32v307/CHV307_Library/Example/libraries/zf_driver/zf_driver_flash.c:40

    for(temp_loop = 0; temp_loop < FLASH_PAGE_SIZE; temp_loop+=4)                                       // 循环读取 Flash 的值
     2e2:	fe041723          	sh	zero,-18(s0)
     2e6:	a00d                	j	308 <flash_check+0x4c>
E:/CODE/C/ch32v307/CHV307_Library/Example/libraries/zf_driver/zf_driver_flash.c:42
    {
        if( (*(__IO u32*) (flash_addr+temp_loop)) != 0xffffffff )                                       // 如果不是 0xffffffff 那就是有值
     2e8:	fee45703          	lhu	a4,-18(s0)
     2ec:	fe842783          	lw	a5,-24(s0)
     2f0:	97ba                	add	a5,a5,a4
     2f2:	4398                	lw	a4,0(a5)
     2f4:	57fd                	li	a5,-1
     2f6:	00f70463          	beq	a4,a5,2fe <flash_check+0x42>
E:/CODE/C/ch32v307/CHV307_Library/Example/libraries/zf_driver/zf_driver_flash.c:43
            return 1;
     2fa:	4785                	li	a5,1
     2fc:	a829                	j	316 <flash_check+0x5a>
E:/CODE/C/ch32v307/CHV307_Library/Example/libraries/zf_driver/zf_driver_flash.c:40 (discriminator 2)
    for(temp_loop = 0; temp_loop < FLASH_PAGE_SIZE; temp_loop+=4)                                       // 循环读取 Flash 的值
     2fe:	fee45783          	lhu	a5,-18(s0)
     302:	0791                	addi	a5,a5,4
     304:	fef41723          	sh	a5,-18(s0)
E:/CODE/C/ch32v307/CHV307_Library/Example/libraries/zf_driver/zf_driver_flash.c:40 (discriminator 1)
     308:	fee45703          	lhu	a4,-18(s0)
     30c:	3ff00793          	li	a5,1023
     310:	fce7fce3          	bgeu	a5,a4,2e8 <flash_check+0x2c>
E:/CODE/C/ch32v307/CHV307_Library/Example/libraries/zf_driver/zf_driver_flash.c:45
    }
    return 0;
     314:	4781                	li	a5,0
E:/CODE/C/ch32v307/CHV307_Library/Example/libraries/zf_driver/zf_driver_flash.c:46
}
     316:	853e                	mv	a0,a5
     318:	5432                	lw	s0,44(sp)
     31a:	6145                	addi	sp,sp,48
     31c:	8082                	ret

0000031e <flash_erase_page>:
flash_erase_page():
E:/CODE/C/ch32v307/CHV307_Library/Example/libraries/zf_driver/zf_driver_flash.c:57
//  @return                     返回1有表示失败  返回0表示成功
//  @since      v1.0
//  Sample usage:               flash_erase_page(FLASH_SECTION_63,FLASH_PAGE_0);
//-------------------------------------------------------------------------------------------------------------------
uint8 flash_erase_page (flash_section_enum sector_num, flash_page_enum page_num)
{
     31e:	7179                	addi	sp,sp,-48
     320:	d606                	sw	ra,44(sp)
     322:	d422                	sw	s0,40(sp)
     324:	1800                	addi	s0,sp,48
     326:	fca42e23          	sw	a0,-36(s0)
     32a:	fcb42c23          	sw	a1,-40(s0)
E:/CODE/C/ch32v307/CHV307_Library/Example/libraries/zf_driver/zf_driver_flash.c:59
    static volatile FLASH_Status gFlashStatus = FLASH_COMPLETE;
    uint32 flash_addr = ((FLASH_BASE_ADDR+FLASH_SECTION_SIZE*sector_num+FLASH_PAGE_SIZE*page_num));     // 提取当前 Flash 地址
     32e:	fdc42703          	lw	a4,-36(s0)
     332:	67a1                	lui	a5,0x8
     334:	97ba                	add	a5,a5,a4
     336:	00279713          	slli	a4,a5,0x2
     33a:	fd842783          	lw	a5,-40(s0)
     33e:	97ba                	add	a5,a5,a4
     340:	07aa                	slli	a5,a5,0xa
     342:	fef42623          	sw	a5,-20(s0)
E:/CODE/C/ch32v307/CHV307_Library/Example/libraries/zf_driver/zf_driver_flash.c:61

    FLASH_Unlock();                                                                                     // 解锁 Flash
     346:	020020ef          	jal	ra,2366 <FLASH_Unlock>
E:/CODE/C/ch32v307/CHV307_Library/Example/libraries/zf_driver/zf_driver_flash.c:62
    FLASH_ClearFlag(FLASH_FLAG_EOP | FLASH_FLAG_PGERR | FLASH_FLAG_WRPRTERR);                           // 清除操作标志
     34a:	03400513          	li	a0,52
     34e:	190020ef          	jal	ra,24de <FLASH_ClearFlag>
E:/CODE/C/ch32v307/CHV307_Library/Example/libraries/zf_driver/zf_driver_flash.c:63
    gFlashStatus = FLASH_ErasePage(flash_addr);                                                         // 擦除
     352:	fec42503          	lw	a0,-20(s0)
     356:	058020ef          	jal	ra,23ae <FLASH_ErasePage>
     35a:	872a                	mv	a4,a0
     35c:	200007b7          	lui	a5,0x20000
     360:	22e7a023          	sw	a4,544(a5) # 20000220 <gFlashStatus.3966>
E:/CODE/C/ch32v307/CHV307_Library/Example/libraries/zf_driver/zf_driver_flash.c:64
    FLASH_ClearFlag(FLASH_FLAG_EOP );                                                                   // 清楚操作标志
     364:	02000513          	li	a0,32
     368:	176020ef          	jal	ra,24de <FLASH_ClearFlag>
E:/CODE/C/ch32v307/CHV307_Library/Example/libraries/zf_driver/zf_driver_flash.c:65
    FLASH_Lock();                                                                                       // 锁定 Flash
     36c:	024020ef          	jal	ra,2390 <FLASH_Lock>
E:/CODE/C/ch32v307/CHV307_Library/Example/libraries/zf_driver/zf_driver_flash.c:66
    if(gFlashStatus != FLASH_COMPLETE)                                                                  // 判断操作是否成功
     370:	200007b7          	lui	a5,0x20000
     374:	2207a703          	lw	a4,544(a5) # 20000220 <gFlashStatus.3966>
     378:	4791                	li	a5,4
     37a:	00f70463          	beq	a4,a5,382 <flash_erase_page+0x64>
E:/CODE/C/ch32v307/CHV307_Library/Example/libraries/zf_driver/zf_driver_flash.c:67
        return 1;
     37e:	4785                	li	a5,1
     380:	a011                	j	384 <flash_erase_page+0x66>
E:/CODE/C/ch32v307/CHV307_Library/Example/libraries/zf_driver/zf_driver_flash.c:68
    return 0;
     382:	4781                	li	a5,0
E:/CODE/C/ch32v307/CHV307_Library/Example/libraries/zf_driver/zf_driver_flash.c:69
}
     384:	853e                	mv	a0,a5
     386:	50b2                	lw	ra,44(sp)
     388:	5422                	lw	s0,40(sp)
     38a:	6145                	addi	sp,sp,48
     38c:	8082                	ret

0000038e <flash_read_page_to_data_buffer>:
flash_read_page_to_data_buffer():
E:/CODE/C/ch32v307/CHV307_Library/Example/libraries/zf_driver/zf_driver_flash.c:134
// @param       page_num        当前扇区页的编号     参数范围 FLASH_PAGE_0-FLASH_PAGE_3
// @return      void
// Sample usage:                flash_read_page_to_data_buffer(FLASH_SECTION_127, FLASH_PAGE_3);
//-------------------------------------------------------------------------------------------------------------------
void flash_read_page_to_data_buffer (flash_section_enum sector_num, flash_page_enum page_num)
{
     38e:	7179                	addi	sp,sp,-48
     390:	d622                	sw	s0,44(sp)
     392:	1800                	addi	s0,sp,48
     394:	fca42e23          	sw	a0,-36(s0)
     398:	fcb42c23          	sw	a1,-40(s0)
E:/CODE/C/ch32v307/CHV307_Library/Example/libraries/zf_driver/zf_driver_flash.c:136
    uint16 temp_loop;
    uint32 flash_addr = ((FLASH_BASE_ADDR+FLASH_SECTION_SIZE*sector_num+FLASH_PAGE_SIZE*page_num)); // 提取当前 Flash 地址
     39c:	fdc42703          	lw	a4,-36(s0)
     3a0:	67a1                	lui	a5,0x8
     3a2:	97ba                	add	a5,a5,a4
     3a4:	00279713          	slli	a4,a5,0x2
     3a8:	fd842783          	lw	a5,-40(s0)
     3ac:	97ba                	add	a5,a5,a4
     3ae:	07aa                	slli	a5,a5,0xa
     3b0:	fef42423          	sw	a5,-24(s0)
E:/CODE/C/ch32v307/CHV307_Library/Example/libraries/zf_driver/zf_driver_flash.c:138

    for(temp_loop = 0; temp_loop < FLASH_DATA_BUFFER_SIZE; temp_loop++)                             // 根据指定长度读取
     3b4:	fe041723          	sh	zero,-18(s0)
     3b8:	a03d                	j	3e6 <flash_read_page_to_data_buffer+0x58>
E:/CODE/C/ch32v307/CHV307_Library/Example/libraries/zf_driver/zf_driver_flash.c:140 (discriminator 3)
    {
        flash_data_union_buffer[temp_loop].uint32_type = *(__IO uint32*)(flash_addr+temp_loop*4); // 循环读取 Flash 的值
     3ba:	fee45783          	lhu	a5,-18(s0)
     3be:	078a                	slli	a5,a5,0x2
     3c0:	873e                	mv	a4,a5
     3c2:	fe842783          	lw	a5,-24(s0)
     3c6:	97ba                	add	a5,a5,a4
     3c8:	fee45683          	lhu	a3,-18(s0)
     3cc:	4398                	lw	a4,0(a5)
     3ce:	200007b7          	lui	a5,0x20000
     3d2:	068a                	slli	a3,a3,0x2
     3d4:	2b078793          	addi	a5,a5,688 # 200002b0 <flash_data_union_buffer>
     3d8:	97b6                	add	a5,a5,a3
     3da:	c398                	sw	a4,0(a5)
E:/CODE/C/ch32v307/CHV307_Library/Example/libraries/zf_driver/zf_driver_flash.c:138 (discriminator 3)
    for(temp_loop = 0; temp_loop < FLASH_DATA_BUFFER_SIZE; temp_loop++)                             // 根据指定长度读取
     3dc:	fee45783          	lhu	a5,-18(s0)
     3e0:	0785                	addi	a5,a5,1
     3e2:	fef41723          	sh	a5,-18(s0)
E:/CODE/C/ch32v307/CHV307_Library/Example/libraries/zf_driver/zf_driver_flash.c:138 (discriminator 1)
     3e6:	fee45703          	lhu	a4,-18(s0)
     3ea:	0ff00793          	li	a5,255
     3ee:	fce7f6e3          	bgeu	a5,a4,3ba <flash_read_page_to_data_buffer+0x2c>
E:/CODE/C/ch32v307/CHV307_Library/Example/libraries/zf_driver/zf_driver_flash.c:142
    }
}
     3f2:	0001                	nop
     3f4:	5432                	lw	s0,44(sp)
     3f6:	6145                	addi	sp,sp,48
     3f8:	8082                	ret

000003fa <flash_write_page_to_data_buffer>:
flash_write_page_to_data_buffer():
E:/CODE/C/ch32v307/CHV307_Library/Example/libraries/zf_driver/zf_driver_flash.c:152
// @param       page_num        当前扇区页的编号     参数范围 FLASH_PAGE_0-FLASH_PAGE_3
// @return      uint8           1-表示失败 0-表示成功
// Sample usage:                flash_write_page_to_data_buffer(FLASH_SECTION_127, FLASH_PAGE_3);
//-------------------------------------------------------------------------------------------------------------------
uint8 flash_write_page_to_data_buffer (flash_section_enum sector_num, flash_page_enum page_num)
{
     3fa:	7179                	addi	sp,sp,-48
     3fc:	d606                	sw	ra,44(sp)
     3fe:	d422                	sw	s0,40(sp)
     400:	1800                	addi	s0,sp,48
     402:	fca42e23          	sw	a0,-36(s0)
     406:	fcb42c23          	sw	a1,-40(s0)
E:/CODE/C/ch32v307/CHV307_Library/Example/libraries/zf_driver/zf_driver_flash.c:154
    static volatile FLASH_Status gFlashStatus = FLASH_COMPLETE;
    uint32 flash_addr = 0;
     40a:	fe042623          	sw	zero,-20(s0)
E:/CODE/C/ch32v307/CHV307_Library/Example/libraries/zf_driver/zf_driver_flash.c:155
    uint16 len = 0;
     40e:	fe041523          	sh	zero,-22(s0)
E:/CODE/C/ch32v307/CHV307_Library/Example/libraries/zf_driver/zf_driver_flash.c:156
    flash_addr = ((FLASH_BASE_ADDR+FLASH_SECTION_SIZE*sector_num+FLASH_PAGE_SIZE*page_num));            // 提取当前 Flash 地址
     412:	fdc42703          	lw	a4,-36(s0)
     416:	67a1                	lui	a5,0x8
     418:	97ba                	add	a5,a5,a4
     41a:	00279713          	slli	a4,a5,0x2
     41e:	fd842783          	lw	a5,-40(s0)
     422:	97ba                	add	a5,a5,a4
     424:	07aa                	slli	a5,a5,0xa
     426:	fef42623          	sw	a5,-20(s0)
E:/CODE/C/ch32v307/CHV307_Library/Example/libraries/zf_driver/zf_driver_flash.c:158

    if(flash_check(sector_num, page_num))                                                               // 判断是否有数据 这里是冗余的保护 防止有人没擦除就写入
     42a:	fd842583          	lw	a1,-40(s0)
     42e:	fdc42503          	lw	a0,-36(s0)
     432:	3569                	jal	2bc <flash_check>
     434:	87aa                	mv	a5,a0
     436:	c791                	beqz	a5,442 <flash_write_page_to_data_buffer+0x48>
E:/CODE/C/ch32v307/CHV307_Library/Example/libraries/zf_driver/zf_driver_flash.c:159
        flash_erase_page(sector_num, page_num);                                                         // 擦除这一页
     438:	fd842583          	lw	a1,-40(s0)
     43c:	fdc42503          	lw	a0,-36(s0)
     440:	3df9                	jal	31e <flash_erase_page>
E:/CODE/C/ch32v307/CHV307_Library/Example/libraries/zf_driver/zf_driver_flash.c:161

    FLASH_Unlock();                                                                                     // 解锁 Flash
     442:	725010ef          	jal	ra,2366 <FLASH_Unlock>
E:/CODE/C/ch32v307/CHV307_Library/Example/libraries/zf_driver/zf_driver_flash.c:162
    while(len < FLASH_DATA_BUFFER_SIZE)                                                                                        // 根据长度
     446:	a0b9                	j	494 <flash_write_page_to_data_buffer+0x9a>
E:/CODE/C/ch32v307/CHV307_Library/Example/libraries/zf_driver/zf_driver_flash.c:164
    {
        gFlashStatus = FLASH_ProgramWord(flash_addr, flash_data_union_buffer[len].uint32_type);                                           // 按字 32bit 写入数据
     448:	fea45703          	lhu	a4,-22(s0)
     44c:	200007b7          	lui	a5,0x20000
     450:	070a                	slli	a4,a4,0x2
     452:	2b078793          	addi	a5,a5,688 # 200002b0 <flash_data_union_buffer>
     456:	97ba                	add	a5,a5,a4
     458:	439c                	lw	a5,0(a5)
     45a:	85be                	mv	a1,a5
     45c:	fec42503          	lw	a0,-20(s0)
     460:	7c9010ef          	jal	ra,2428 <FLASH_ProgramWord>
     464:	872a                	mv	a4,a0
     466:	200007b7          	lui	a5,0x20000
     46a:	22e7a223          	sw	a4,548(a5) # 20000224 <gFlashStatus.4003>
E:/CODE/C/ch32v307/CHV307_Library/Example/libraries/zf_driver/zf_driver_flash.c:165
        if(gFlashStatus != FLASH_COMPLETE)                                                              // 反复确认操作是否成功
     46e:	200007b7          	lui	a5,0x20000
     472:	2247a703          	lw	a4,548(a5) # 20000224 <gFlashStatus.4003>
     476:	4791                	li	a5,4
     478:	00f70463          	beq	a4,a5,480 <flash_write_page_to_data_buffer+0x86>
E:/CODE/C/ch32v307/CHV307_Library/Example/libraries/zf_driver/zf_driver_flash.c:166
            return 1;
     47c:	4785                	li	a5,1
     47e:	a025                	j	4a6 <flash_write_page_to_data_buffer+0xac>
E:/CODE/C/ch32v307/CHV307_Library/Example/libraries/zf_driver/zf_driver_flash.c:167
        len++;                                                                                          // 长度自增
     480:	fea45783          	lhu	a5,-22(s0)
     484:	0785                	addi	a5,a5,1
     486:	fef41523          	sh	a5,-22(s0)
E:/CODE/C/ch32v307/CHV307_Library/Example/libraries/zf_driver/zf_driver_flash.c:168
        flash_addr += 4;                                                                                // 地址自增
     48a:	fec42783          	lw	a5,-20(s0)
     48e:	0791                	addi	a5,a5,4
     490:	fef42623          	sw	a5,-20(s0)
E:/CODE/C/ch32v307/CHV307_Library/Example/libraries/zf_driver/zf_driver_flash.c:162
    while(len < FLASH_DATA_BUFFER_SIZE)                                                                                        // 根据长度
     494:	fea45703          	lhu	a4,-22(s0)
     498:	0ff00793          	li	a5,255
     49c:	fae7f6e3          	bgeu	a5,a4,448 <flash_write_page_to_data_buffer+0x4e>
E:/CODE/C/ch32v307/CHV307_Library/Example/libraries/zf_driver/zf_driver_flash.c:170
    }
    FLASH_Lock();                                                                                       // 锁定 Flash
     4a0:	6f1010ef          	jal	ra,2390 <FLASH_Lock>
E:/CODE/C/ch32v307/CHV307_Library/Example/libraries/zf_driver/zf_driver_flash.c:171
    return 0;
     4a4:	4781                	li	a5,0
E:/CODE/C/ch32v307/CHV307_Library/Example/libraries/zf_driver/zf_driver_flash.c:172
}
     4a6:	853e                	mv	a0,a5
     4a8:	50b2                	lw	ra,44(sp)
     4aa:	5422                	lw	s0,40(sp)
     4ac:	6145                	addi	sp,sp,48
     4ae:	8082                	ret

000004b0 <flash_data_buffer_clear>:
flash_data_buffer_clear():
E:/CODE/C/ch32v307/CHV307_Library/Example/libraries/zf_driver/zf_driver_flash.c:182
// @param       void
// @return      void
// Sample usage:                flash_data_buffer_clear();
//-------------------------------------------------------------------------------------------------------------------
void flash_data_buffer_clear (void)
{
     4b0:	1141                	addi	sp,sp,-16
     4b2:	c606                	sw	ra,12(sp)
     4b4:	c422                	sw	s0,8(sp)
     4b6:	0800                	addi	s0,sp,16
E:/CODE/C/ch32v307/CHV307_Library/Example/libraries/zf_driver/zf_driver_flash.c:183
    memset(flash_data_union_buffer, 0xFF, FLASH_PAGE_SIZE);
     4b8:	40000613          	li	a2,1024
     4bc:	0ff00593          	li	a1,255
     4c0:	200007b7          	lui	a5,0x20000
     4c4:	2b078513          	addi	a0,a5,688 # 200002b0 <flash_data_union_buffer>
     4c8:	33b1                	jal	214 <memset>
E:/CODE/C/ch32v307/CHV307_Library/Example/libraries/zf_driver/zf_driver_flash.c:184
}
     4ca:	0001                	nop
     4cc:	40b2                	lw	ra,12(sp)
     4ce:	4422                	lw	s0,8(sp)
     4d0:	0141                	addi	sp,sp,16
     4d2:	8082                	ret

000004d4 <gpio_init>:
gpio_init():
E:/CODE/C/ch32v307/CHV307_Library/Example/libraries/zf_driver/zf_driver_gpio.c:80
//  @param      pinconf     引脚配置（可设置参数由zf_gpio.h文件内GPIOSPEED_enum与GPIOMODE_enum枚举值确定，多个条件使用 | 相或）
//  @return     void
//  Sample usage:           gpio_init(D0, GPO, 1, GPIO_PIN_CONFIG);//D0初始化为GPIO功能、输出模式、输出高电平、速度100MHZ 推挽输出
//-------------------------------------------------------------------------------------------------------------------
void gpio_init(gpio_pin_enum gpio_pin, gpio_dir_enum gpio_dir, gpio_level_enum dat, uint32 pinconf)
{
     4d4:	7179                	addi	sp,sp,-48
     4d6:	d606                	sw	ra,44(sp)
     4d8:	d422                	sw	s0,40(sp)
     4da:	1800                	addi	s0,sp,48
     4dc:	fca42e23          	sw	a0,-36(s0)
     4e0:	fcb42c23          	sw	a1,-40(s0)
     4e4:	fcc42a23          	sw	a2,-44(s0)
     4e8:	fcd42823          	sw	a3,-48(s0)
E:/CODE/C/ch32v307/CHV307_Library/Example/libraries/zf_driver/zf_driver_gpio.c:82
    GPIO_InitTypeDef GPIO_InitStructure;
    uint8 io_group = (gpio_pin & 0xF0) >> 5;
     4ec:	fdc42783          	lw	a5,-36(s0)
     4f0:	8395                	srli	a5,a5,0x5
     4f2:	0ff7f793          	andi	a5,a5,255
     4f6:	8b9d                	andi	a5,a5,7
     4f8:	fef407a3          	sb	a5,-17(s0)
E:/CODE/C/ch32v307/CHV307_Library/Example/libraries/zf_driver/zf_driver_gpio.c:83
    uint8 io_pin = gpio_pin & 0x0F;
     4fc:	fdc42783          	lw	a5,-36(s0)
     500:	0ff7f793          	andi	a5,a5,255
     504:	8bbd                	andi	a5,a5,15
     506:	fef40723          	sb	a5,-18(s0)
E:/CODE/C/ch32v307/CHV307_Library/Example/libraries/zf_driver/zf_driver_gpio.c:87

    //GPIO_DeInit((GPIO_TypeDef *)(GPION[io_group]));
    //  空引脚则返回
    if(PIN_NULL == gpio_pin) return;
     50a:	fdc42703          	lw	a4,-36(s0)
     50e:	0ff00793          	li	a5,255
     512:	14f70563          	beq	a4,a5,65c <gpio_init+0x188>
E:/CODE/C/ch32v307/CHV307_Library/Example/libraries/zf_driver/zf_driver_gpio.c:88
    if(SPI_CS_NULL == gpio_pin) return;
     516:	fdc42703          	lw	a4,-36(s0)
     51a:	0ff00793          	li	a5,255
     51e:	14f70163          	beq	a4,a5,660 <gpio_init+0x18c>
E:/CODE/C/ch32v307/CHV307_Library/Example/libraries/zf_driver/zf_driver_gpio.c:91

    //  GPIO总线使能
    if(0 == io_group)      RCC_APB2PeriphClockCmd(RCC_APB2Periph_GPIOA, ENABLE);
     522:	fef44783          	lbu	a5,-17(s0)
     526:	e791                	bnez	a5,532 <gpio_init+0x5e>
E:/CODE/C/ch32v307/CHV307_Library/Example/libraries/zf_driver/zf_driver_gpio.c:91 (discriminator 1)
     528:	4585                	li	a1,1
     52a:	4511                	li	a0,4
     52c:	6e0020ef          	jal	ra,2c0c <RCC_APB2PeriphClockCmd>
     530:	a041                	j	5b0 <gpio_init+0xdc>
E:/CODE/C/ch32v307/CHV307_Library/Example/libraries/zf_driver/zf_driver_gpio.c:92
    else if(1 == io_group) RCC_APB2PeriphClockCmd(RCC_APB2Periph_GPIOB, ENABLE);
     532:	fef44703          	lbu	a4,-17(s0)
     536:	4785                	li	a5,1
     538:	00f71763          	bne	a4,a5,546 <gpio_init+0x72>
E:/CODE/C/ch32v307/CHV307_Library/Example/libraries/zf_driver/zf_driver_gpio.c:92 (discriminator 1)
     53c:	4585                	li	a1,1
     53e:	4521                	li	a0,8
     540:	6cc020ef          	jal	ra,2c0c <RCC_APB2PeriphClockCmd>
     544:	a0b5                	j	5b0 <gpio_init+0xdc>
E:/CODE/C/ch32v307/CHV307_Library/Example/libraries/zf_driver/zf_driver_gpio.c:93
    else if(2 == io_group) RCC_APB2PeriphClockCmd(RCC_APB2Periph_GPIOC, ENABLE);
     546:	fef44703          	lbu	a4,-17(s0)
     54a:	4789                	li	a5,2
     54c:	00f71763          	bne	a4,a5,55a <gpio_init+0x86>
E:/CODE/C/ch32v307/CHV307_Library/Example/libraries/zf_driver/zf_driver_gpio.c:93 (discriminator 1)
     550:	4585                	li	a1,1
     552:	4541                	li	a0,16
     554:	6b8020ef          	jal	ra,2c0c <RCC_APB2PeriphClockCmd>
     558:	a8a1                	j	5b0 <gpio_init+0xdc>
E:/CODE/C/ch32v307/CHV307_Library/Example/libraries/zf_driver/zf_driver_gpio.c:94
    else if(3 == io_group) RCC_APB2PeriphClockCmd(RCC_APB2Periph_GPIOD, ENABLE);
     55a:	fef44703          	lbu	a4,-17(s0)
     55e:	478d                	li	a5,3
     560:	00f71863          	bne	a4,a5,570 <gpio_init+0x9c>
E:/CODE/C/ch32v307/CHV307_Library/Example/libraries/zf_driver/zf_driver_gpio.c:94 (discriminator 1)
     564:	4585                	li	a1,1
     566:	02000513          	li	a0,32
     56a:	6a2020ef          	jal	ra,2c0c <RCC_APB2PeriphClockCmd>
     56e:	a089                	j	5b0 <gpio_init+0xdc>
E:/CODE/C/ch32v307/CHV307_Library/Example/libraries/zf_driver/zf_driver_gpio.c:95
    else if(4 == io_group) RCC_APB2PeriphClockCmd(RCC_APB2Periph_GPIOE, ENABLE);
     570:	fef44703          	lbu	a4,-17(s0)
     574:	4791                	li	a5,4
     576:	00f71863          	bne	a4,a5,586 <gpio_init+0xb2>
E:/CODE/C/ch32v307/CHV307_Library/Example/libraries/zf_driver/zf_driver_gpio.c:95 (discriminator 1)
     57a:	4585                	li	a1,1
     57c:	04000513          	li	a0,64
     580:	68c020ef          	jal	ra,2c0c <RCC_APB2PeriphClockCmd>
     584:	a035                	j	5b0 <gpio_init+0xdc>
E:/CODE/C/ch32v307/CHV307_Library/Example/libraries/zf_driver/zf_driver_gpio.c:96
    else if(5 == io_group) RCC_APB2PeriphClockCmd(RCC_APB2Periph_GPIOF, ENABLE);
     586:	fef44703          	lbu	a4,-17(s0)
     58a:	4795                	li	a5,5
     58c:	00f71863          	bne	a4,a5,59c <gpio_init+0xc8>
E:/CODE/C/ch32v307/CHV307_Library/Example/libraries/zf_driver/zf_driver_gpio.c:96 (discriminator 1)
     590:	4585                	li	a1,1
     592:	08000513          	li	a0,128
     596:	676020ef          	jal	ra,2c0c <RCC_APB2PeriphClockCmd>
     59a:	a819                	j	5b0 <gpio_init+0xdc>
E:/CODE/C/ch32v307/CHV307_Library/Example/libraries/zf_driver/zf_driver_gpio.c:97
    else if(6 == io_group) RCC_APB2PeriphClockCmd(RCC_APB2Periph_GPIOG, ENABLE);
     59c:	fef44703          	lbu	a4,-17(s0)
     5a0:	4799                	li	a5,6
     5a2:	00f71763          	bne	a4,a5,5b0 <gpio_init+0xdc>
E:/CODE/C/ch32v307/CHV307_Library/Example/libraries/zf_driver/zf_driver_gpio.c:97 (discriminator 1)
     5a6:	4585                	li	a1,1
     5a8:	10000513          	li	a0,256
     5ac:	660020ef          	jal	ra,2c0c <RCC_APB2PeriphClockCmd>
E:/CODE/C/ch32v307/CHV307_Library/Example/libraries/zf_driver/zf_driver_gpio.c:100

    //  设置引脚号
    GPIO_InitStructure.GPIO_Pin = (uint16)(1 << io_pin);
     5b0:	fee44783          	lbu	a5,-18(s0)
     5b4:	4705                	li	a4,1
     5b6:	00f717b3          	sll	a5,a4,a5
     5ba:	07c2                	slli	a5,a5,0x10
     5bc:	83c1                	srli	a5,a5,0x10
     5be:	fef41023          	sh	a5,-32(s0)
E:/CODE/C/ch32v307/CHV307_Library/Example/libraries/zf_driver/zf_driver_gpio.c:103

    //  只有输出需要设置速度
    if(GPO == gpio_dir)
     5c2:	fd842703          	lw	a4,-40(s0)
     5c6:	4785                	li	a5,1
     5c8:	02f71763          	bne	a4,a5,5f6 <gpio_init+0x122>
E:/CODE/C/ch32v307/CHV307_Library/Example/libraries/zf_driver/zf_driver_gpio.c:105
    {
        if((uint16)pinconf >> 8 == 0) GPIO_InitStructure.GPIO_Speed = (GPIOSpeed_TypeDef)(GPIO_Speed_50MHz);            //防止没有填写这个参数,默认设置50Mhz
     5cc:	fd042783          	lw	a5,-48(s0)
     5d0:	07c2                	slli	a5,a5,0x10
     5d2:	83c1                	srli	a5,a5,0x10
     5d4:	83a1                	srli	a5,a5,0x8
     5d6:	07c2                	slli	a5,a5,0x10
     5d8:	83c1                	srli	a5,a5,0x10
     5da:	e789                	bnez	a5,5e4 <gpio_init+0x110>
E:/CODE/C/ch32v307/CHV307_Library/Example/libraries/zf_driver/zf_driver_gpio.c:105 (discriminator 1)
     5dc:	478d                	li	a5,3
     5de:	fef42223          	sw	a5,-28(s0)
     5e2:	a811                	j	5f6 <gpio_init+0x122>
E:/CODE/C/ch32v307/CHV307_Library/Example/libraries/zf_driver/zf_driver_gpio.c:106
        else GPIO_InitStructure.GPIO_Speed = (gpio_speed_enum)((uint16)pinconf >> 8);         //已经填写了该参数。根据值来设置
     5e4:	fd042783          	lw	a5,-48(s0)
     5e8:	07c2                	slli	a5,a5,0x10
     5ea:	83c1                	srli	a5,a5,0x10
     5ec:	83a1                	srli	a5,a5,0x8
     5ee:	07c2                	slli	a5,a5,0x10
     5f0:	83c1                	srli	a5,a5,0x10
     5f2:	fef42223          	sw	a5,-28(s0)
E:/CODE/C/ch32v307/CHV307_Library/Example/libraries/zf_driver/zf_driver_gpio.c:110
    }

    //  设置模式
    GPIO_InitStructure.GPIO_Mode = (GPIOMode_TypeDef)((uint16)pinconf & 0xFF);
     5f6:	fd042783          	lw	a5,-48(s0)
     5fa:	07c2                	slli	a5,a5,0x10
     5fc:	83c1                	srli	a5,a5,0x10
     5fe:	0ff7f793          	andi	a5,a5,255
     602:	fef42423          	sw	a5,-24(s0)
E:/CODE/C/ch32v307/CHV307_Library/Example/libraries/zf_driver/zf_driver_gpio.c:111
    GPIO_Init((GPIO_TypeDef*)gpio_group[io_group], &GPIO_InitStructure);
     606:	fef44703          	lbu	a4,-17(s0)
     60a:	67a5                	lui	a5,0x9
     60c:	070a                	slli	a4,a4,0x2
     60e:	fe478793          	addi	a5,a5,-28 # 8fe4 <gpio_group>
     612:	97ba                	add	a5,a5,a4
     614:	439c                	lw	a5,0(a5)
     616:	873e                	mv	a4,a5
     618:	fe040793          	addi	a5,s0,-32
     61c:	85be                	mv	a1,a5
     61e:	853a                	mv	a0,a4
     620:	789010ef          	jal	ra,25a8 <GPIO_Init>
E:/CODE/C/ch32v307/CHV307_Library/Example/libraries/zf_driver/zf_driver_gpio.c:114

    //  只有输出需要设置引脚状态
    if(GPO == gpio_dir)
     624:	fd842703          	lw	a4,-40(s0)
     628:	4785                	li	a5,1
     62a:	02f71c63          	bne	a4,a5,662 <gpio_init+0x18e>
E:/CODE/C/ch32v307/CHV307_Library/Example/libraries/zf_driver/zf_driver_gpio.c:116
    {
        GPIO_WriteBit((GPIO_TypeDef*)gpio_group[io_group], (uint16)(1 << io_pin), dat);
     62e:	fef44703          	lbu	a4,-17(s0)
     632:	67a5                	lui	a5,0x9
     634:	070a                	slli	a4,a4,0x2
     636:	fe478793          	addi	a5,a5,-28 # 8fe4 <gpio_group>
     63a:	97ba                	add	a5,a5,a4
     63c:	439c                	lw	a5,0(a5)
     63e:	86be                	mv	a3,a5
     640:	fee44783          	lbu	a5,-18(s0)
     644:	4705                	li	a4,1
     646:	00f717b3          	sll	a5,a4,a5
     64a:	07c2                	slli	a5,a5,0x10
     64c:	83c1                	srli	a5,a5,0x10
     64e:	fd442603          	lw	a2,-44(s0)
     652:	85be                	mv	a1,a5
     654:	8536                	mv	a0,a3
     656:	17c020ef          	jal	ra,27d2 <GPIO_WriteBit>
     65a:	a021                	j	662 <gpio_init+0x18e>
E:/CODE/C/ch32v307/CHV307_Library/Example/libraries/zf_driver/zf_driver_gpio.c:87
    if(PIN_NULL == gpio_pin) return;
     65c:	0001                	nop
     65e:	a011                	j	662 <gpio_init+0x18e>
E:/CODE/C/ch32v307/CHV307_Library/Example/libraries/zf_driver/zf_driver_gpio.c:88
    if(SPI_CS_NULL == gpio_pin) return;
     660:	0001                	nop
E:/CODE/C/ch32v307/CHV307_Library/Example/libraries/zf_driver/zf_driver_gpio.c:118
    }
}
     662:	50b2                	lw	ra,44(sp)
     664:	5422                	lw	s0,40(sp)
     666:	6145                	addi	sp,sp,48
     668:	8082                	ret

0000066a <uart_gpio_init>:
uart_gpio_init():
E:/CODE/C/ch32v307/CHV307_Library/Example/libraries/zf_driver/zf_driver_uart.c:40
//  @param      rx_pin      串口接收引脚号
//  @return     void
//  Sample usage:           内部使用，用户无需关心
//-------------------------------------------------------------------------------------------------------------------
void uart_gpio_init(uart_pin_enum tx_pin, uart_pin_enum rx_pin)
{
     66a:	1101                	addi	sp,sp,-32
     66c:	ce06                	sw	ra,28(sp)
     66e:	cc22                	sw	s0,24(sp)
     670:	1000                	addi	s0,sp,32
     672:	fea42623          	sw	a0,-20(s0)
     676:	feb42423          	sw	a1,-24(s0)
E:/CODE/C/ch32v307/CHV307_Library/Example/libraries/zf_driver/zf_driver_uart.c:41
    if     (tx_pin == UART1_TX_A9 )     gpio_init(A9,  GPO, 0, GPO_AF_PUSH_PULL);
     67a:	fec42783          	lw	a5,-20(s0)
     67e:	e799                	bnez	a5,68c <uart_gpio_init+0x22>
E:/CODE/C/ch32v307/CHV307_Library/Example/libraries/zf_driver/zf_driver_uart.c:41 (discriminator 1)
     680:	46e1                	li	a3,24
     682:	4601                	li	a2,0
     684:	4585                	li	a1,1
     686:	4525                	li	a0,9
     688:	35b1                	jal	4d4 <gpio_init>
     68a:	aa45                	j	83a <__stack_size+0x3a>
E:/CODE/C/ch32v307/CHV307_Library/Example/libraries/zf_driver/zf_driver_uart.c:42
    else if(tx_pin == UART1_TX_B6 )     gpio_init(B6,  GPO, 0, GPO_AF_PUSH_PULL);
     68c:	fec42703          	lw	a4,-20(s0)
     690:	4789                	li	a5,2
     692:	00f71963          	bne	a4,a5,6a4 <uart_gpio_init+0x3a>
E:/CODE/C/ch32v307/CHV307_Library/Example/libraries/zf_driver/zf_driver_uart.c:42 (discriminator 1)
     696:	46e1                	li	a3,24
     698:	4601                	li	a2,0
     69a:	4585                	li	a1,1
     69c:	02600513          	li	a0,38
     6a0:	3d15                	jal	4d4 <gpio_init>
     6a2:	aa61                	j	83a <__stack_size+0x3a>
E:/CODE/C/ch32v307/CHV307_Library/Example/libraries/zf_driver/zf_driver_uart.c:43
    else if(tx_pin == UART2_TX_A2 )     gpio_init(A2,  GPO, 0, GPO_AF_PUSH_PULL);
     6a4:	fec42703          	lw	a4,-20(s0)
     6a8:	47c1                	li	a5,16
     6aa:	00f71863          	bne	a4,a5,6ba <uart_gpio_init+0x50>
E:/CODE/C/ch32v307/CHV307_Library/Example/libraries/zf_driver/zf_driver_uart.c:43 (discriminator 1)
     6ae:	46e1                	li	a3,24
     6b0:	4601                	li	a2,0
     6b2:	4585                	li	a1,1
     6b4:	4509                	li	a0,2
     6b6:	3d39                	jal	4d4 <gpio_init>
     6b8:	a249                	j	83a <__stack_size+0x3a>
E:/CODE/C/ch32v307/CHV307_Library/Example/libraries/zf_driver/zf_driver_uart.c:44
    else if(tx_pin == UART2_TX_D5 )     gpio_init(D5,  GPO, 0, GPO_AF_PUSH_PULL);
     6ba:	fec42703          	lw	a4,-20(s0)
     6be:	47c9                	li	a5,18
     6c0:	00f71963          	bne	a4,a5,6d2 <uart_gpio_init+0x68>
E:/CODE/C/ch32v307/CHV307_Library/Example/libraries/zf_driver/zf_driver_uart.c:44 (discriminator 1)
     6c4:	46e1                	li	a3,24
     6c6:	4601                	li	a2,0
     6c8:	4585                	li	a1,1
     6ca:	06500513          	li	a0,101
     6ce:	3519                	jal	4d4 <gpio_init>
     6d0:	a2ad                	j	83a <__stack_size+0x3a>
E:/CODE/C/ch32v307/CHV307_Library/Example/libraries/zf_driver/zf_driver_uart.c:45
    else if(tx_pin == UART3_TX_B10)     gpio_init(B10, GPO, 0, GPO_AF_PUSH_PULL);
     6d2:	fec42703          	lw	a4,-20(s0)
     6d6:	02000793          	li	a5,32
     6da:	00f71963          	bne	a4,a5,6ec <uart_gpio_init+0x82>
E:/CODE/C/ch32v307/CHV307_Library/Example/libraries/zf_driver/zf_driver_uart.c:45 (discriminator 1)
     6de:	46e1                	li	a3,24
     6e0:	4601                	li	a2,0
     6e2:	4585                	li	a1,1
     6e4:	02a00513          	li	a0,42
     6e8:	33f5                	jal	4d4 <gpio_init>
     6ea:	aa81                	j	83a <__stack_size+0x3a>
E:/CODE/C/ch32v307/CHV307_Library/Example/libraries/zf_driver/zf_driver_uart.c:46
    else if(tx_pin == UART3_TX_C10)     gpio_init(C10, GPO, 0, GPO_AF_PUSH_PULL);
     6ec:	fec42703          	lw	a4,-20(s0)
     6f0:	02200793          	li	a5,34
     6f4:	00f71963          	bne	a4,a5,706 <uart_gpio_init+0x9c>
E:/CODE/C/ch32v307/CHV307_Library/Example/libraries/zf_driver/zf_driver_uart.c:46 (discriminator 1)
     6f8:	46e1                	li	a3,24
     6fa:	4601                	li	a2,0
     6fc:	4585                	li	a1,1
     6fe:	04a00513          	li	a0,74
     702:	3bc9                	jal	4d4 <gpio_init>
     704:	aa1d                	j	83a <__stack_size+0x3a>
E:/CODE/C/ch32v307/CHV307_Library/Example/libraries/zf_driver/zf_driver_uart.c:47
    else if(tx_pin == UART3_TX_D8 )     gpio_init(D8,  GPO, 0, GPO_AF_PUSH_PULL);
     706:	fec42703          	lw	a4,-20(s0)
     70a:	02400793          	li	a5,36
     70e:	00f71963          	bne	a4,a5,720 <uart_gpio_init+0xb6>
E:/CODE/C/ch32v307/CHV307_Library/Example/libraries/zf_driver/zf_driver_uart.c:47 (discriminator 1)
     712:	46e1                	li	a3,24
     714:	4601                	li	a2,0
     716:	4585                	li	a1,1
     718:	06800513          	li	a0,104
     71c:	3b65                	jal	4d4 <gpio_init>
     71e:	aa31                	j	83a <__stack_size+0x3a>
E:/CODE/C/ch32v307/CHV307_Library/Example/libraries/zf_driver/zf_driver_uart.c:48
    else if(tx_pin == UART4_TX_C10)     gpio_init(C10, GPO, 0, GPO_AF_PUSH_PULL);
     720:	fec42703          	lw	a4,-20(s0)
     724:	04000793          	li	a5,64
     728:	00f71963          	bne	a4,a5,73a <uart_gpio_init+0xd0>
E:/CODE/C/ch32v307/CHV307_Library/Example/libraries/zf_driver/zf_driver_uart.c:48 (discriminator 1)
     72c:	46e1                	li	a3,24
     72e:	4601                	li	a2,0
     730:	4585                	li	a1,1
     732:	04a00513          	li	a0,74
     736:	3b79                	jal	4d4 <gpio_init>
     738:	a209                	j	83a <__stack_size+0x3a>
E:/CODE/C/ch32v307/CHV307_Library/Example/libraries/zf_driver/zf_driver_uart.c:49
    else if(tx_pin == UART4_TX_B0)      gpio_init(B0, GPO, 0, GPO_AF_PUSH_PULL);
     73a:	fec42703          	lw	a4,-20(s0)
     73e:	04200793          	li	a5,66
     742:	00f71963          	bne	a4,a5,754 <uart_gpio_init+0xea>
E:/CODE/C/ch32v307/CHV307_Library/Example/libraries/zf_driver/zf_driver_uart.c:49 (discriminator 1)
     746:	46e1                	li	a3,24
     748:	4601                	li	a2,0
     74a:	4585                	li	a1,1
     74c:	02000513          	li	a0,32
     750:	3351                	jal	4d4 <gpio_init>
     752:	a0e5                	j	83a <__stack_size+0x3a>
E:/CODE/C/ch32v307/CHV307_Library/Example/libraries/zf_driver/zf_driver_uart.c:50
    else if(tx_pin == UART5_TX_C12)     gpio_init(C12, GPO, 0, GPO_AF_PUSH_PULL);
     754:	fec42703          	lw	a4,-20(s0)
     758:	05000793          	li	a5,80
     75c:	00f71963          	bne	a4,a5,76e <uart_gpio_init+0x104>
E:/CODE/C/ch32v307/CHV307_Library/Example/libraries/zf_driver/zf_driver_uart.c:50 (discriminator 1)
     760:	46e1                	li	a3,24
     762:	4601                	li	a2,0
     764:	4585                	li	a1,1
     766:	04c00513          	li	a0,76
     76a:	33ad                	jal	4d4 <gpio_init>
     76c:	a0f9                	j	83a <__stack_size+0x3a>
E:/CODE/C/ch32v307/CHV307_Library/Example/libraries/zf_driver/zf_driver_uart.c:51
    else if(tx_pin == UART5_TX_E8)      gpio_init(E8, GPO, 0, GPO_AF_PUSH_PULL);
     76e:	fec42703          	lw	a4,-20(s0)
     772:	05200793          	li	a5,82
     776:	00f71963          	bne	a4,a5,788 <uart_gpio_init+0x11e>
E:/CODE/C/ch32v307/CHV307_Library/Example/libraries/zf_driver/zf_driver_uart.c:51 (discriminator 1)
     77a:	46e1                	li	a3,24
     77c:	4601                	li	a2,0
     77e:	4585                	li	a1,1
     780:	08800513          	li	a0,136
     784:	3b81                	jal	4d4 <gpio_init>
     786:	a855                	j	83a <__stack_size+0x3a>
E:/CODE/C/ch32v307/CHV307_Library/Example/libraries/zf_driver/zf_driver_uart.c:52
    else if(tx_pin == UART6_TX_C0 )     gpio_init(C0,  GPO, 0, GPO_AF_PUSH_PULL);
     788:	fec42703          	lw	a4,-20(s0)
     78c:	06000793          	li	a5,96
     790:	00f71963          	bne	a4,a5,7a2 <uart_gpio_init+0x138>
E:/CODE/C/ch32v307/CHV307_Library/Example/libraries/zf_driver/zf_driver_uart.c:52 (discriminator 1)
     794:	46e1                	li	a3,24
     796:	4601                	li	a2,0
     798:	4585                	li	a1,1
     79a:	04000513          	li	a0,64
     79e:	3b1d                	jal	4d4 <gpio_init>
     7a0:	a869                	j	83a <__stack_size+0x3a>
E:/CODE/C/ch32v307/CHV307_Library/Example/libraries/zf_driver/zf_driver_uart.c:53
    else if(tx_pin == UART6_TX_E10 )    gpio_init(C0,  GPO, 0, GPO_AF_PUSH_PULL);
     7a2:	fec42703          	lw	a4,-20(s0)
     7a6:	06200793          	li	a5,98
     7aa:	00f71963          	bne	a4,a5,7bc <uart_gpio_init+0x152>
E:/CODE/C/ch32v307/CHV307_Library/Example/libraries/zf_driver/zf_driver_uart.c:53 (discriminator 1)
     7ae:	46e1                	li	a3,24
     7b0:	4601                	li	a2,0
     7b2:	4585                	li	a1,1
     7b4:	04000513          	li	a0,64
     7b8:	3b31                	jal	4d4 <gpio_init>
     7ba:	a041                	j	83a <__stack_size+0x3a>
E:/CODE/C/ch32v307/CHV307_Library/Example/libraries/zf_driver/zf_driver_uart.c:54
    else if(tx_pin == UART7_TX_C2 )     gpio_init(C2,  GPO, 0, GPO_AF_PUSH_PULL);
     7bc:	fec42703          	lw	a4,-20(s0)
     7c0:	07000793          	li	a5,112
     7c4:	00f71963          	bne	a4,a5,7d6 <uart_gpio_init+0x16c>
E:/CODE/C/ch32v307/CHV307_Library/Example/libraries/zf_driver/zf_driver_uart.c:54 (discriminator 1)
     7c8:	46e1                	li	a3,24
     7ca:	4601                	li	a2,0
     7cc:	4585                	li	a1,1
     7ce:	04200513          	li	a0,66
     7d2:	3309                	jal	4d4 <gpio_init>
     7d4:	a09d                	j	83a <__stack_size+0x3a>
E:/CODE/C/ch32v307/CHV307_Library/Example/libraries/zf_driver/zf_driver_uart.c:55
    else if(tx_pin == UART7_TX_A6 )     gpio_init(A6,  GPO, 0, GPO_AF_PUSH_PULL);
     7d6:	fec42703          	lw	a4,-20(s0)
     7da:	07200793          	li	a5,114
     7de:	00f71863          	bne	a4,a5,7ee <uart_gpio_init+0x184>
E:/CODE/C/ch32v307/CHV307_Library/Example/libraries/zf_driver/zf_driver_uart.c:55 (discriminator 1)
     7e2:	46e1                	li	a3,24
     7e4:	4601                	li	a2,0
     7e6:	4585                	li	a1,1
     7e8:	4519                	li	a0,6
     7ea:	31ed                	jal	4d4 <gpio_init>
     7ec:	a0b9                	j	83a <__stack_size+0x3a>
E:/CODE/C/ch32v307/CHV307_Library/Example/libraries/zf_driver/zf_driver_uart.c:56
    else if(tx_pin == UART7_TX_E12 )    gpio_init(E12,  GPO, 0, GPO_AF_PUSH_PULL);
     7ee:	fec42703          	lw	a4,-20(s0)
     7f2:	07400793          	li	a5,116
     7f6:	00f71963          	bne	a4,a5,808 <__stack_size+0x8>
E:/CODE/C/ch32v307/CHV307_Library/Example/libraries/zf_driver/zf_driver_uart.c:56 (discriminator 1)
     7fa:	46e1                	li	a3,24
     7fc:	4601                	li	a2,0
     7fe:	4585                	li	a1,1
     800:	08c00513          	li	a0,140
     804:	39c1                	jal	4d4 <gpio_init>
     806:	a815                	j	83a <__stack_size+0x3a>
E:/CODE/C/ch32v307/CHV307_Library/Example/libraries/zf_driver/zf_driver_uart.c:57
    else if(tx_pin == UART8_TX_C4 )     gpio_init(C4,  GPO, 0, GPO_AF_PUSH_PULL);
     808:	fec42703          	lw	a4,-20(s0)
     80c:	08000793          	li	a5,128
     810:	00f71963          	bne	a4,a5,822 <__stack_size+0x22>
E:/CODE/C/ch32v307/CHV307_Library/Example/libraries/zf_driver/zf_driver_uart.c:57 (discriminator 1)
     814:	46e1                	li	a3,24
     816:	4601                	li	a2,0
     818:	4585                	li	a1,1
     81a:	04400513          	li	a0,68
     81e:	395d                	jal	4d4 <gpio_init>
     820:	a829                	j	83a <__stack_size+0x3a>
E:/CODE/C/ch32v307/CHV307_Library/Example/libraries/zf_driver/zf_driver_uart.c:58
    else if(tx_pin == UART8_TX_E14 )    gpio_init(E14,  GPO, 0, GPO_AF_PUSH_PULL);
     822:	fec42703          	lw	a4,-20(s0)
     826:	08200793          	li	a5,130
     82a:	00f71863          	bne	a4,a5,83a <__stack_size+0x3a>
E:/CODE/C/ch32v307/CHV307_Library/Example/libraries/zf_driver/zf_driver_uart.c:58 (discriminator 1)
     82e:	46e1                	li	a3,24
     830:	4601                	li	a2,0
     832:	4585                	li	a1,1
     834:	08e00513          	li	a0,142
     838:	3971                	jal	4d4 <gpio_init>
E:/CODE/C/ch32v307/CHV307_Library/Example/libraries/zf_driver/zf_driver_uart.c:60

    if     (rx_pin == UART1_RX_A10)     gpio_init(A10, GPI, 0, GPI_PULL_UP);
     83a:	fe842703          	lw	a4,-24(s0)
     83e:	4785                	li	a5,1
     840:	00f71963          	bne	a4,a5,852 <__stack_size+0x52>
E:/CODE/C/ch32v307/CHV307_Library/Example/libraries/zf_driver/zf_driver_uart.c:60 (discriminator 1)
     844:	04800693          	li	a3,72
     848:	4601                	li	a2,0
     84a:	4581                	li	a1,0
     84c:	4529                	li	a0,10
     84e:	3159                	jal	4d4 <gpio_init>
E:/CODE/C/ch32v307/CHV307_Library/Example/libraries/zf_driver/zf_driver_uart.c:78 (discriminator 1)
    else if(rx_pin == UART7_RX_C3 )     gpio_init(C3,  GPI, 0, GPI_PULL_UP);
    else if(rx_pin == UART7_RX_A7 )     gpio_init(A7,  GPI, 0, GPI_PULL_UP);
    else if(rx_pin == UART7_RX_E13 )    gpio_init(E13,  GPI, 0, GPI_PULL_UP);
    else if(rx_pin == UART8_RX_C5 )     gpio_init(C5,  GPI, 0, GPI_PULL_UP);
    else if(rx_pin == UART8_RX_E15 )    gpio_init(E15,  GPI, 0, GPI_PULL_UP);
}
     850:	aac9                	j	a22 <__stack_size+0x222>
E:/CODE/C/ch32v307/CHV307_Library/Example/libraries/zf_driver/zf_driver_uart.c:61
    else if(rx_pin == UART1_RX_B7 )     gpio_init(B7,  GPI, 0, GPI_PULL_UP);
     852:	fe842703          	lw	a4,-24(s0)
     856:	478d                	li	a5,3
     858:	00f71a63          	bne	a4,a5,86c <__stack_size+0x6c>
E:/CODE/C/ch32v307/CHV307_Library/Example/libraries/zf_driver/zf_driver_uart.c:61 (discriminator 1)
     85c:	04800693          	li	a3,72
     860:	4601                	li	a2,0
     862:	4581                	li	a1,0
     864:	02700513          	li	a0,39
     868:	31b5                	jal	4d4 <gpio_init>
E:/CODE/C/ch32v307/CHV307_Library/Example/libraries/zf_driver/zf_driver_uart.c:78 (discriminator 1)
}
     86a:	aa65                	j	a22 <__stack_size+0x222>
E:/CODE/C/ch32v307/CHV307_Library/Example/libraries/zf_driver/zf_driver_uart.c:62
    else if(rx_pin == UART2_RX_A3 )     gpio_init(A3,  GPI, 0, GPI_PULL_UP);
     86c:	fe842703          	lw	a4,-24(s0)
     870:	47c5                	li	a5,17
     872:	00f71963          	bne	a4,a5,884 <__stack_size+0x84>
E:/CODE/C/ch32v307/CHV307_Library/Example/libraries/zf_driver/zf_driver_uart.c:62 (discriminator 1)
     876:	04800693          	li	a3,72
     87a:	4601                	li	a2,0
     87c:	4581                	li	a1,0
     87e:	450d                	li	a0,3
     880:	3991                	jal	4d4 <gpio_init>
E:/CODE/C/ch32v307/CHV307_Library/Example/libraries/zf_driver/zf_driver_uart.c:78 (discriminator 1)
}
     882:	a245                	j	a22 <__stack_size+0x222>
E:/CODE/C/ch32v307/CHV307_Library/Example/libraries/zf_driver/zf_driver_uart.c:63
    else if(rx_pin == UART2_RX_D6 )     gpio_init(D6,  GPI, 0, GPI_PULL_UP);
     884:	fe842703          	lw	a4,-24(s0)
     888:	47cd                	li	a5,19
     88a:	00f71a63          	bne	a4,a5,89e <__stack_size+0x9e>
E:/CODE/C/ch32v307/CHV307_Library/Example/libraries/zf_driver/zf_driver_uart.c:63 (discriminator 1)
     88e:	04800693          	li	a3,72
     892:	4601                	li	a2,0
     894:	4581                	li	a1,0
     896:	06600513          	li	a0,102
     89a:	392d                	jal	4d4 <gpio_init>
E:/CODE/C/ch32v307/CHV307_Library/Example/libraries/zf_driver/zf_driver_uart.c:78 (discriminator 1)
}
     89c:	a259                	j	a22 <__stack_size+0x222>
E:/CODE/C/ch32v307/CHV307_Library/Example/libraries/zf_driver/zf_driver_uart.c:64
    else if(rx_pin == UART3_RX_B11)     gpio_init(B11, GPI, 0, GPI_PULL_UP);
     89e:	fe842703          	lw	a4,-24(s0)
     8a2:	02100793          	li	a5,33
     8a6:	00f71a63          	bne	a4,a5,8ba <__stack_size+0xba>
E:/CODE/C/ch32v307/CHV307_Library/Example/libraries/zf_driver/zf_driver_uart.c:64 (discriminator 1)
     8aa:	04800693          	li	a3,72
     8ae:	4601                	li	a2,0
     8b0:	4581                	li	a1,0
     8b2:	02b00513          	li	a0,43
     8b6:	3939                	jal	4d4 <gpio_init>
E:/CODE/C/ch32v307/CHV307_Library/Example/libraries/zf_driver/zf_driver_uart.c:78 (discriminator 1)
}
     8b8:	a2ad                	j	a22 <__stack_size+0x222>
E:/CODE/C/ch32v307/CHV307_Library/Example/libraries/zf_driver/zf_driver_uart.c:65
    else if(rx_pin == UART3_RX_C11)     gpio_init(C11, GPI, 0, GPI_PULL_UP);
     8ba:	fe842703          	lw	a4,-24(s0)
     8be:	02300793          	li	a5,35
     8c2:	00f71a63          	bne	a4,a5,8d6 <__stack_size+0xd6>
E:/CODE/C/ch32v307/CHV307_Library/Example/libraries/zf_driver/zf_driver_uart.c:65 (discriminator 1)
     8c6:	04800693          	li	a3,72
     8ca:	4601                	li	a2,0
     8cc:	4581                	li	a1,0
     8ce:	04b00513          	li	a0,75
     8d2:	3109                	jal	4d4 <gpio_init>
E:/CODE/C/ch32v307/CHV307_Library/Example/libraries/zf_driver/zf_driver_uart.c:78 (discriminator 1)
}
     8d4:	a2b9                	j	a22 <__stack_size+0x222>
E:/CODE/C/ch32v307/CHV307_Library/Example/libraries/zf_driver/zf_driver_uart.c:66
    else if(rx_pin == UART3_RX_D9 )     gpio_init(D9,  GPI, 0, GPI_PULL_UP);
     8d6:	fe842703          	lw	a4,-24(s0)
     8da:	02500793          	li	a5,37
     8de:	00f71a63          	bne	a4,a5,8f2 <__stack_size+0xf2>
E:/CODE/C/ch32v307/CHV307_Library/Example/libraries/zf_driver/zf_driver_uart.c:66 (discriminator 1)
     8e2:	04800693          	li	a3,72
     8e6:	4601                	li	a2,0
     8e8:	4581                	li	a1,0
     8ea:	06900513          	li	a0,105
     8ee:	36dd                	jal	4d4 <gpio_init>
E:/CODE/C/ch32v307/CHV307_Library/Example/libraries/zf_driver/zf_driver_uart.c:78 (discriminator 1)
}
     8f0:	aa0d                	j	a22 <__stack_size+0x222>
E:/CODE/C/ch32v307/CHV307_Library/Example/libraries/zf_driver/zf_driver_uart.c:67
    else if(rx_pin == UART4_RX_C11)     gpio_init(C11, GPI, 0, GPI_PULL_UP);
     8f2:	fe842703          	lw	a4,-24(s0)
     8f6:	04100793          	li	a5,65
     8fa:	00f71a63          	bne	a4,a5,90e <__stack_size+0x10e>
E:/CODE/C/ch32v307/CHV307_Library/Example/libraries/zf_driver/zf_driver_uart.c:67 (discriminator 1)
     8fe:	04800693          	li	a3,72
     902:	4601                	li	a2,0
     904:	4581                	li	a1,0
     906:	04b00513          	li	a0,75
     90a:	36e9                	jal	4d4 <gpio_init>
E:/CODE/C/ch32v307/CHV307_Library/Example/libraries/zf_driver/zf_driver_uart.c:78 (discriminator 1)
}
     90c:	aa19                	j	a22 <__stack_size+0x222>
E:/CODE/C/ch32v307/CHV307_Library/Example/libraries/zf_driver/zf_driver_uart.c:68
    else if(rx_pin == UART4_RX_B1)      gpio_init(B1, GPI, 0, GPI_PULL_UP);
     90e:	fe842703          	lw	a4,-24(s0)
     912:	04300793          	li	a5,67
     916:	00f71a63          	bne	a4,a5,92a <__stack_size+0x12a>
E:/CODE/C/ch32v307/CHV307_Library/Example/libraries/zf_driver/zf_driver_uart.c:68 (discriminator 1)
     91a:	04800693          	li	a3,72
     91e:	4601                	li	a2,0
     920:	4581                	li	a1,0
     922:	02100513          	li	a0,33
     926:	367d                	jal	4d4 <gpio_init>
E:/CODE/C/ch32v307/CHV307_Library/Example/libraries/zf_driver/zf_driver_uart.c:78 (discriminator 1)
}
     928:	a8ed                	j	a22 <__stack_size+0x222>
E:/CODE/C/ch32v307/CHV307_Library/Example/libraries/zf_driver/zf_driver_uart.c:69
    else if(rx_pin == UART5_RX_D2 )     gpio_init(D2,  GPI, 0, GPI_PULL_UP);
     92a:	fe842703          	lw	a4,-24(s0)
     92e:	05100793          	li	a5,81
     932:	00f71a63          	bne	a4,a5,946 <__stack_size+0x146>
E:/CODE/C/ch32v307/CHV307_Library/Example/libraries/zf_driver/zf_driver_uart.c:69 (discriminator 1)
     936:	04800693          	li	a3,72
     93a:	4601                	li	a2,0
     93c:	4581                	li	a1,0
     93e:	06200513          	li	a0,98
     942:	3e49                	jal	4d4 <gpio_init>
E:/CODE/C/ch32v307/CHV307_Library/Example/libraries/zf_driver/zf_driver_uart.c:78 (discriminator 1)
}
     944:	a8f9                	j	a22 <__stack_size+0x222>
E:/CODE/C/ch32v307/CHV307_Library/Example/libraries/zf_driver/zf_driver_uart.c:70
    else if(rx_pin == UART5_RX_E9 )     gpio_init(E9,  GPI, 0, GPI_PULL_UP);
     946:	fe842703          	lw	a4,-24(s0)
     94a:	05300793          	li	a5,83
     94e:	00f71a63          	bne	a4,a5,962 <__stack_size+0x162>
E:/CODE/C/ch32v307/CHV307_Library/Example/libraries/zf_driver/zf_driver_uart.c:70 (discriminator 1)
     952:	04800693          	li	a3,72
     956:	4601                	li	a2,0
     958:	4581                	li	a1,0
     95a:	08900513          	li	a0,137
     95e:	3e9d                	jal	4d4 <gpio_init>
E:/CODE/C/ch32v307/CHV307_Library/Example/libraries/zf_driver/zf_driver_uart.c:78 (discriminator 1)
}
     960:	a0c9                	j	a22 <__stack_size+0x222>
E:/CODE/C/ch32v307/CHV307_Library/Example/libraries/zf_driver/zf_driver_uart.c:71
    else if(rx_pin == UART6_RX_C1 )     gpio_init(C1,  GPI, 0, GPI_PULL_UP);
     962:	fe842703          	lw	a4,-24(s0)
     966:	06100793          	li	a5,97
     96a:	00f71a63          	bne	a4,a5,97e <__stack_size+0x17e>
E:/CODE/C/ch32v307/CHV307_Library/Example/libraries/zf_driver/zf_driver_uart.c:71 (discriminator 1)
     96e:	04800693          	li	a3,72
     972:	4601                	li	a2,0
     974:	4581                	li	a1,0
     976:	04100513          	li	a0,65
     97a:	3ea9                	jal	4d4 <gpio_init>
E:/CODE/C/ch32v307/CHV307_Library/Example/libraries/zf_driver/zf_driver_uart.c:78 (discriminator 1)
}
     97c:	a05d                	j	a22 <__stack_size+0x222>
E:/CODE/C/ch32v307/CHV307_Library/Example/libraries/zf_driver/zf_driver_uart.c:72
    else if(rx_pin == UART6_RX_E11 )    gpio_init(E11,  GPI, 0, GPI_PULL_UP);
     97e:	fe842703          	lw	a4,-24(s0)
     982:	06300793          	li	a5,99
     986:	00f71a63          	bne	a4,a5,99a <__stack_size+0x19a>
E:/CODE/C/ch32v307/CHV307_Library/Example/libraries/zf_driver/zf_driver_uart.c:72 (discriminator 1)
     98a:	04800693          	li	a3,72
     98e:	4601                	li	a2,0
     990:	4581                	li	a1,0
     992:	08b00513          	li	a0,139
     996:	3e3d                	jal	4d4 <gpio_init>
E:/CODE/C/ch32v307/CHV307_Library/Example/libraries/zf_driver/zf_driver_uart.c:78 (discriminator 1)
}
     998:	a069                	j	a22 <__stack_size+0x222>
E:/CODE/C/ch32v307/CHV307_Library/Example/libraries/zf_driver/zf_driver_uart.c:73
    else if(rx_pin == UART7_RX_C3 )     gpio_init(C3,  GPI, 0, GPI_PULL_UP);
     99a:	fe842703          	lw	a4,-24(s0)
     99e:	07100793          	li	a5,113
     9a2:	00f71a63          	bne	a4,a5,9b6 <__stack_size+0x1b6>
E:/CODE/C/ch32v307/CHV307_Library/Example/libraries/zf_driver/zf_driver_uart.c:73 (discriminator 1)
     9a6:	04800693          	li	a3,72
     9aa:	4601                	li	a2,0
     9ac:	4581                	li	a1,0
     9ae:	04300513          	li	a0,67
     9b2:	360d                	jal	4d4 <gpio_init>
E:/CODE/C/ch32v307/CHV307_Library/Example/libraries/zf_driver/zf_driver_uart.c:78 (discriminator 1)
}
     9b4:	a0bd                	j	a22 <__stack_size+0x222>
E:/CODE/C/ch32v307/CHV307_Library/Example/libraries/zf_driver/zf_driver_uart.c:74
    else if(rx_pin == UART7_RX_A7 )     gpio_init(A7,  GPI, 0, GPI_PULL_UP);
     9b6:	fe842703          	lw	a4,-24(s0)
     9ba:	07300793          	li	a5,115
     9be:	00f71963          	bne	a4,a5,9d0 <__stack_size+0x1d0>
E:/CODE/C/ch32v307/CHV307_Library/Example/libraries/zf_driver/zf_driver_uart.c:74 (discriminator 1)
     9c2:	04800693          	li	a3,72
     9c6:	4601                	li	a2,0
     9c8:	4581                	li	a1,0
     9ca:	451d                	li	a0,7
     9cc:	3621                	jal	4d4 <gpio_init>
E:/CODE/C/ch32v307/CHV307_Library/Example/libraries/zf_driver/zf_driver_uart.c:78 (discriminator 1)
}
     9ce:	a891                	j	a22 <__stack_size+0x222>
E:/CODE/C/ch32v307/CHV307_Library/Example/libraries/zf_driver/zf_driver_uart.c:75
    else if(rx_pin == UART7_RX_E13 )    gpio_init(E13,  GPI, 0, GPI_PULL_UP);
     9d0:	fe842703          	lw	a4,-24(s0)
     9d4:	07500793          	li	a5,117
     9d8:	00f71a63          	bne	a4,a5,9ec <__stack_size+0x1ec>
E:/CODE/C/ch32v307/CHV307_Library/Example/libraries/zf_driver/zf_driver_uart.c:75 (discriminator 1)
     9dc:	04800693          	li	a3,72
     9e0:	4601                	li	a2,0
     9e2:	4581                	li	a1,0
     9e4:	08d00513          	li	a0,141
     9e8:	34f5                	jal	4d4 <gpio_init>
E:/CODE/C/ch32v307/CHV307_Library/Example/libraries/zf_driver/zf_driver_uart.c:78 (discriminator 1)
}
     9ea:	a825                	j	a22 <__stack_size+0x222>
E:/CODE/C/ch32v307/CHV307_Library/Example/libraries/zf_driver/zf_driver_uart.c:76
    else if(rx_pin == UART8_RX_C5 )     gpio_init(C5,  GPI, 0, GPI_PULL_UP);
     9ec:	fe842703          	lw	a4,-24(s0)
     9f0:	08100793          	li	a5,129
     9f4:	00f71a63          	bne	a4,a5,a08 <__stack_size+0x208>
E:/CODE/C/ch32v307/CHV307_Library/Example/libraries/zf_driver/zf_driver_uart.c:76 (discriminator 1)
     9f8:	04800693          	li	a3,72
     9fc:	4601                	li	a2,0
     9fe:	4581                	li	a1,0
     a00:	04500513          	li	a0,69
     a04:	3cc1                	jal	4d4 <gpio_init>
E:/CODE/C/ch32v307/CHV307_Library/Example/libraries/zf_driver/zf_driver_uart.c:78 (discriminator 1)
}
     a06:	a831                	j	a22 <__stack_size+0x222>
E:/CODE/C/ch32v307/CHV307_Library/Example/libraries/zf_driver/zf_driver_uart.c:77
    else if(rx_pin == UART8_RX_E15 )    gpio_init(E15,  GPI, 0, GPI_PULL_UP);
     a08:	fe842703          	lw	a4,-24(s0)
     a0c:	08300793          	li	a5,131
     a10:	00f71963          	bne	a4,a5,a22 <__stack_size+0x222>
E:/CODE/C/ch32v307/CHV307_Library/Example/libraries/zf_driver/zf_driver_uart.c:77 (discriminator 1)
     a14:	04800693          	li	a3,72
     a18:	4601                	li	a2,0
     a1a:	4581                	li	a1,0
     a1c:	08f00513          	li	a0,143
     a20:	3c55                	jal	4d4 <gpio_init>
E:/CODE/C/ch32v307/CHV307_Library/Example/libraries/zf_driver/zf_driver_uart.c:78
}
     a22:	0001                	nop
     a24:	40f2                	lw	ra,28(sp)
     a26:	4462                	lw	s0,24(sp)
     a28:	6105                	addi	sp,sp,32
     a2a:	8082                	ret

00000a2c <uart_rx_interrupt>:
uart_rx_interrupt():
E:/CODE/C/ch32v307/CHV307_Library/Example/libraries/zf_driver/zf_driver_uart.c:153
//  @param      status      使能或者失能
//  @return     void
//  Sample usage:           uart_rx_irq(UART_1, ENABLE);        //打开串口1接收中断
//-------------------------------------------------------------------------------------------------------------------
void uart_rx_interrupt(uart_index_enum uartn, uint8 status)
{
     a2c:	1101                	addi	sp,sp,-32
     a2e:	ce06                	sw	ra,28(sp)
     a30:	cc22                	sw	s0,24(sp)
     a32:	1000                	addi	s0,sp,32
     a34:	fea42623          	sw	a0,-20(s0)
     a38:	87ae                	mv	a5,a1
     a3a:	fef405a3          	sb	a5,-21(s0)
E:/CODE/C/ch32v307/CHV307_Library/Example/libraries/zf_driver/zf_driver_uart.c:154
    USART_ITConfig(((USART_TypeDef*)uart_index[uartn]), USART_IT_RXNE, status);
     a3e:	67a5                	lui	a5,0x9
     a40:	fec42703          	lw	a4,-20(s0)
     a44:	070a                	slli	a4,a4,0x2
     a46:	ff878793          	addi	a5,a5,-8 # 8ff8 <uart_index>
     a4a:	97ba                	add	a5,a5,a4
     a4c:	439c                	lw	a5,0(a5)
     a4e:	873e                	mv	a4,a5
     a50:	feb44783          	lbu	a5,-21(s0)
     a54:	863e                	mv	a2,a5
     a56:	52500593          	li	a1,1317
     a5a:	853a                	mv	a0,a4
     a5c:	56e020ef          	jal	ra,2fca <USART_ITConfig>
E:/CODE/C/ch32v307/CHV307_Library/Example/libraries/zf_driver/zf_driver_uart.c:156

    NVIC->IPRIOR[(uint32)((IRQn_Type)uart_irq[uartn])] = 0;
     a60:	e000e7b7          	lui	a5,0xe000e
     a64:	81c18693          	addi	a3,gp,-2020 # 2000023c <uart_irq>
     a68:	fec42703          	lw	a4,-20(s0)
     a6c:	9736                	add	a4,a4,a3
     a6e:	00074703          	lbu	a4,0(a4)
     a72:	97ba                	add	a5,a5,a4
     a74:	40078023          	sb	zero,1024(a5) # e000e400 <_eusrstack+0xbfffe400>
E:/CODE/C/ch32v307/CHV307_Library/Example/libraries/zf_driver/zf_driver_uart.c:158

    if(status)  interrupt_enable((IRQn_Type)uart_irq[uartn]);
     a78:	feb44783          	lbu	a5,-21(s0)
     a7c:	cf81                	beqz	a5,a94 <uart_rx_interrupt+0x68>
E:/CODE/C/ch32v307/CHV307_Library/Example/libraries/zf_driver/zf_driver_uart.c:158 (discriminator 1)
     a7e:	81c18713          	addi	a4,gp,-2020 # 2000023c <uart_irq>
     a82:	fec42783          	lw	a5,-20(s0)
     a86:	97ba                	add	a5,a5,a4
     a88:	0007c783          	lbu	a5,0(a5)
     a8c:	853e                	mv	a0,a5
     a8e:	2c9000ef          	jal	ra,1556 <interrupt_enable>
E:/CODE/C/ch32v307/CHV307_Library/Example/libraries/zf_driver/zf_driver_uart.c:162 (discriminator 1)
    else        interrupt_disable((IRQn_Type)uart_irq[uartn]);

    //nvic_init((IRQn_Type)uart_irq[uartn], 1, 0, status);
}
     a92:	a819                	j	aa8 <uart_rx_interrupt+0x7c>
E:/CODE/C/ch32v307/CHV307_Library/Example/libraries/zf_driver/zf_driver_uart.c:159
    else        interrupt_disable((IRQn_Type)uart_irq[uartn]);
     a94:	81c18713          	addi	a4,gp,-2020 # 2000023c <uart_irq>
     a98:	fec42783          	lw	a5,-20(s0)
     a9c:	97ba                	add	a5,a5,a4
     a9e:	0007c783          	lbu	a5,0(a5)
     aa2:	853e                	mv	a0,a5
     aa4:	2cf000ef          	jal	ra,1572 <interrupt_disable>
E:/CODE/C/ch32v307/CHV307_Library/Example/libraries/zf_driver/zf_driver_uart.c:162
}
     aa8:	0001                	nop
     aaa:	40f2                	lw	ra,28(sp)
     aac:	4462                	lw	s0,24(sp)
     aae:	6105                	addi	sp,sp,32
     ab0:	8082                	ret

00000ab2 <uart_query_byte>:
uart_query_byte():
E:/CODE/C/ch32v307/CHV307_Library/Example/libraries/zf_driver/zf_driver_uart.c:203
//  @param      *dat            接收数据的地址
//  @return     uint8           1：接收成功   0：未接收到数据
//  Sample usage:               uint8 dat; uart_query_byte(USART_1,&dat);       // 接收串口1数据  存在在dat变量里
//-------------------------------------------------------------------------------------------------------------------
uint8 uart_query_byte(uart_index_enum uartn, uint8 *dat)
{
     ab2:	1101                	addi	sp,sp,-32
     ab4:	ce22                	sw	s0,28(sp)
     ab6:	1000                	addi	s0,sp,32
     ab8:	fea42623          	sw	a0,-20(s0)
     abc:	feb42423          	sw	a1,-24(s0)
E:/CODE/C/ch32v307/CHV307_Library/Example/libraries/zf_driver/zf_driver_uart.c:204
    if((((USART_TypeDef*)uart_index[uartn])->STATR & USART_FLAG_RXNE) != 0)
     ac0:	67a5                	lui	a5,0x9
     ac2:	fec42703          	lw	a4,-20(s0)
     ac6:	070a                	slli	a4,a4,0x2
     ac8:	ff878793          	addi	a5,a5,-8 # 8ff8 <uart_index>
     acc:	97ba                	add	a5,a5,a4
     ace:	439c                	lw	a5,0(a5)
     ad0:	0007d783          	lhu	a5,0(a5)
     ad4:	07c2                	slli	a5,a5,0x10
     ad6:	83c1                	srli	a5,a5,0x10
     ad8:	0207f793          	andi	a5,a5,32
     adc:	c78d                	beqz	a5,b06 <uart_query_byte+0x54>
E:/CODE/C/ch32v307/CHV307_Library/Example/libraries/zf_driver/zf_driver_uart.c:206
    {
        *dat = (((USART_TypeDef*)uart_index[uartn])->DATAR & 0xFF);
     ade:	67a5                	lui	a5,0x9
     ae0:	fec42703          	lw	a4,-20(s0)
     ae4:	070a                	slli	a4,a4,0x2
     ae6:	ff878793          	addi	a5,a5,-8 # 8ff8 <uart_index>
     aea:	97ba                	add	a5,a5,a4
     aec:	439c                	lw	a5,0(a5)
     aee:	0047d783          	lhu	a5,4(a5)
     af2:	07c2                	slli	a5,a5,0x10
     af4:	83c1                	srli	a5,a5,0x10
     af6:	0ff7f713          	andi	a4,a5,255
     afa:	fe842783          	lw	a5,-24(s0)
     afe:	00e78023          	sb	a4,0(a5)
E:/CODE/C/ch32v307/CHV307_Library/Example/libraries/zf_driver/zf_driver_uart.c:207
        return 1;
     b02:	4785                	li	a5,1
     b04:	a011                	j	b08 <uart_query_byte+0x56>
E:/CODE/C/ch32v307/CHV307_Library/Example/libraries/zf_driver/zf_driver_uart.c:209
    }
    return 0;
     b06:	4781                	li	a5,0
E:/CODE/C/ch32v307/CHV307_Library/Example/libraries/zf_driver/zf_driver_uart.c:210
}
     b08:	853e                	mv	a0,a5
     b0a:	4472                	lw	s0,28(sp)
     b0c:	6105                	addi	sp,sp,32
     b0e:	8082                	ret

00000b10 <uart_init>:
uart_init():
E:/CODE/C/ch32v307/CHV307_Library/Example/libraries/zf_driver/zf_driver_uart.c:222
//  @param      rx_pin      串口接收引脚号
//  @return     void
//  Sample usage:           uart_init(UART_1, 115200, UART1_TX_A9, UART1_RX_A10); //串口1初始化引脚号,TX为A9,RX为A10
//-------------------------------------------------------------------------------------------------------------------
void uart_init(uart_index_enum uart_num, uint32 baud, uart_pin_enum tx_pin, uart_pin_enum rx_pin)
{
     b10:	7179                	addi	sp,sp,-48
     b12:	d606                	sw	ra,44(sp)
     b14:	d422                	sw	s0,40(sp)
     b16:	1800                	addi	s0,sp,48
     b18:	fca42e23          	sw	a0,-36(s0)
     b1c:	fcb42c23          	sw	a1,-40(s0)
     b20:	fcc42a23          	sw	a2,-44(s0)
     b24:	fcd42823          	sw	a3,-48(s0)
E:/CODE/C/ch32v307/CHV307_Library/Example/libraries/zf_driver/zf_driver_uart.c:226
    USART_InitTypeDef USART_InitStructure;

    // AFIO总线开启
    RCC_APB2PeriphClockCmd(RCC_APB2Periph_AFIO, ENABLE);
     b28:	4585                	li	a1,1
     b2a:	4505                	li	a0,1
     b2c:	0e0020ef          	jal	ra,2c0c <RCC_APB2PeriphClockCmd>
E:/CODE/C/ch32v307/CHV307_Library/Example/libraries/zf_driver/zf_driver_uart.c:233

    // RX引脚和TX引脚必须组传入
//    zf_assert(((rx_pin - 1) == tx_pin) || (tx_pin == UART5_TX_C12 && UART5_RX_D2 == rx_pin));

    // 引脚初始化
    uart_gpio_init(tx_pin, rx_pin);
     b30:	fd042583          	lw	a1,-48(s0)
     b34:	fd442503          	lw	a0,-44(s0)
     b38:	3e0d                	jal	66a <uart_gpio_init>
E:/CODE/C/ch32v307/CHV307_Library/Example/libraries/zf_driver/zf_driver_uart.c:236

    // 端口重映射
    if(UART1_TX_B6 == tx_pin && UART1_RX_B7 == rx_pin)
     b3a:	fd442703          	lw	a4,-44(s0)
     b3e:	4789                	li	a5,2
     b40:	00f71c63          	bne	a4,a5,b58 <uart_init+0x48>
E:/CODE/C/ch32v307/CHV307_Library/Example/libraries/zf_driver/zf_driver_uart.c:236 (discriminator 1)
     b44:	fd042703          	lw	a4,-48(s0)
     b48:	478d                	li	a5,3
     b4a:	00f71763          	bne	a4,a5,b58 <uart_init+0x48>
E:/CODE/C/ch32v307/CHV307_Library/Example/libraries/zf_driver/zf_driver_uart.c:237
        GPIO_PinRemapConfig(GPIO_Remap_USART1, ENABLE);
     b4e:	4585                	li	a1,1
     b50:	4511                	li	a0,4
     b52:	4b9010ef          	jal	ra,280a <GPIO_PinRemapConfig>
     b56:	a295                	j	cba <uart_init+0x1aa>
E:/CODE/C/ch32v307/CHV307_Library/Example/libraries/zf_driver/zf_driver_uart.c:238
    else if(UART2_TX_D5 == tx_pin && UART2_RX_D6 == rx_pin)
     b58:	fd442703          	lw	a4,-44(s0)
     b5c:	47c9                	li	a5,18
     b5e:	00f71c63          	bne	a4,a5,b76 <uart_init+0x66>
E:/CODE/C/ch32v307/CHV307_Library/Example/libraries/zf_driver/zf_driver_uart.c:238 (discriminator 1)
     b62:	fd042703          	lw	a4,-48(s0)
     b66:	47cd                	li	a5,19
     b68:	00f71763          	bne	a4,a5,b76 <uart_init+0x66>
E:/CODE/C/ch32v307/CHV307_Library/Example/libraries/zf_driver/zf_driver_uart.c:239
        GPIO_PinRemapConfig(GPIO_Remap_USART2, ENABLE);
     b6c:	4585                	li	a1,1
     b6e:	4521                	li	a0,8
     b70:	49b010ef          	jal	ra,280a <GPIO_PinRemapConfig>
     b74:	a299                	j	cba <uart_init+0x1aa>
E:/CODE/C/ch32v307/CHV307_Library/Example/libraries/zf_driver/zf_driver_uart.c:240
    else if(UART3_TX_C10 == tx_pin && UART3_RX_C11 == rx_pin)
     b76:	fd442703          	lw	a4,-44(s0)
     b7a:	02200793          	li	a5,34
     b7e:	02f71063          	bne	a4,a5,b9e <uart_init+0x8e>
E:/CODE/C/ch32v307/CHV307_Library/Example/libraries/zf_driver/zf_driver_uart.c:240 (discriminator 1)
     b82:	fd042703          	lw	a4,-48(s0)
     b86:	02300793          	li	a5,35
     b8a:	00f71a63          	bne	a4,a5,b9e <uart_init+0x8e>
E:/CODE/C/ch32v307/CHV307_Library/Example/libraries/zf_driver/zf_driver_uart.c:241
        GPIO_PinRemapConfig(GPIO_PartialRemap_USART3, ENABLE);
     b8e:	4585                	li	a1,1
     b90:	001407b7          	lui	a5,0x140
     b94:	01078513          	addi	a0,a5,16 # 140010 <_data_lma+0x1369ec>
     b98:	473010ef          	jal	ra,280a <GPIO_PinRemapConfig>
     b9c:	aa39                	j	cba <uart_init+0x1aa>
E:/CODE/C/ch32v307/CHV307_Library/Example/libraries/zf_driver/zf_driver_uart.c:242
    else if(UART3_TX_D8 == tx_pin && UART3_RX_D9 == rx_pin)
     b9e:	fd442703          	lw	a4,-44(s0)
     ba2:	02400793          	li	a5,36
     ba6:	02f71063          	bne	a4,a5,bc6 <uart_init+0xb6>
E:/CODE/C/ch32v307/CHV307_Library/Example/libraries/zf_driver/zf_driver_uart.c:242 (discriminator 1)
     baa:	fd042703          	lw	a4,-48(s0)
     bae:	02500793          	li	a5,37
     bb2:	00f71a63          	bne	a4,a5,bc6 <uart_init+0xb6>
E:/CODE/C/ch32v307/CHV307_Library/Example/libraries/zf_driver/zf_driver_uart.c:243
        GPIO_PinRemapConfig(GPIO_FullRemap_USART3, ENABLE);
     bb6:	4585                	li	a1,1
     bb8:	001407b7          	lui	a5,0x140
     bbc:	03078513          	addi	a0,a5,48 # 140030 <_data_lma+0x136a0c>
     bc0:	44b010ef          	jal	ra,280a <GPIO_PinRemapConfig>
     bc4:	a8dd                	j	cba <uart_init+0x1aa>
E:/CODE/C/ch32v307/CHV307_Library/Example/libraries/zf_driver/zf_driver_uart.c:244
    else if(UART4_TX_B0 == tx_pin && UART4_RX_B1 == rx_pin)
     bc6:	fd442703          	lw	a4,-44(s0)
     bca:	04200793          	li	a5,66
     bce:	00f71d63          	bne	a4,a5,be8 <uart_init+0xd8>
E:/CODE/C/ch32v307/CHV307_Library/Example/libraries/zf_driver/zf_driver_uart.c:244 (discriminator 1)
     bd2:	fd042703          	lw	a4,-48(s0)
     bd6:	04300793          	li	a5,67
     bda:	00f71763          	bne	a4,a5,be8 <uart_init+0xd8>
E:/CODE/C/ch32v307/CHV307_Library/Example/libraries/zf_driver/zf_driver_uart.c:245
        GPIO_PinRemapConfig(GPIO_Remap_TIM4, ENABLE);
     bde:	4585                	li	a1,1
     be0:	6505                	lui	a0,0x1
     be2:	429010ef          	jal	ra,280a <GPIO_PinRemapConfig>
     be6:	a8d1                	j	cba <uart_init+0x1aa>
E:/CODE/C/ch32v307/CHV307_Library/Example/libraries/zf_driver/zf_driver_uart.c:246
    else if(UART5_TX_E8 == tx_pin && UART5_RX_E9 == rx_pin)
     be8:	fd442703          	lw	a4,-44(s0)
     bec:	05200793          	li	a5,82
     bf0:	02f71063          	bne	a4,a5,c10 <uart_init+0x100>
E:/CODE/C/ch32v307/CHV307_Library/Example/libraries/zf_driver/zf_driver_uart.c:246 (discriminator 1)
     bf4:	fd042703          	lw	a4,-48(s0)
     bf8:	05300793          	li	a5,83
     bfc:	00f71a63          	bne	a4,a5,c10 <uart_init+0x100>
E:/CODE/C/ch32v307/CHV307_Library/Example/libraries/zf_driver/zf_driver_uart.c:247
        GPIO_PinRemapConfig(GPIO_Remap_TIM5CH4_LSI, ENABLE);
     c00:	4585                	li	a1,1
     c02:	002007b7          	lui	a5,0x200
     c06:	00178513          	addi	a0,a5,1 # 200001 <_data_lma+0x1f69dd>
     c0a:	401010ef          	jal	ra,280a <GPIO_PinRemapConfig>
     c0e:	a075                	j	cba <uart_init+0x1aa>
E:/CODE/C/ch32v307/CHV307_Library/Example/libraries/zf_driver/zf_driver_uart.c:248
    else if(UART6_TX_E10 == tx_pin && UART6_RX_E11 == rx_pin)
     c10:	fd442703          	lw	a4,-44(s0)
     c14:	06200793          	li	a5,98
     c18:	02f71063          	bne	a4,a5,c38 <uart_init+0x128>
E:/CODE/C/ch32v307/CHV307_Library/Example/libraries/zf_driver/zf_driver_uart.c:248 (discriminator 1)
     c1c:	fd042703          	lw	a4,-48(s0)
     c20:	06300793          	li	a5,99
     c24:	00f71a63          	bne	a4,a5,c38 <uart_init+0x128>
E:/CODE/C/ch32v307/CHV307_Library/Example/libraries/zf_driver/zf_driver_uart.c:249
        GPIO_PinRemapConfig(GPIO_Remap_TIM67_DAC_DMA, ENABLE);
     c28:	4585                	li	a1,1
     c2a:	800017b7          	lui	a5,0x80001
     c2e:	80078513          	addi	a0,a5,-2048 # 80000800 <_eusrstack+0x5fff0800>
     c32:	3d9010ef          	jal	ra,280a <GPIO_PinRemapConfig>
     c36:	a051                	j	cba <uart_init+0x1aa>
E:/CODE/C/ch32v307/CHV307_Library/Example/libraries/zf_driver/zf_driver_uart.c:251

    else if(UART7_TX_A6 == tx_pin && UART7_RX_A7 == rx_pin)
     c38:	fd442703          	lw	a4,-44(s0)
     c3c:	07200793          	li	a5,114
     c40:	02f71263          	bne	a4,a5,c64 <uart_init+0x154>
E:/CODE/C/ch32v307/CHV307_Library/Example/libraries/zf_driver/zf_driver_uart.c:251 (discriminator 1)
     c44:	fd042703          	lw	a4,-48(s0)
     c48:	07300793          	li	a5,115
     c4c:	00f71c63          	bne	a4,a5,c64 <uart_init+0x154>
E:/CODE/C/ch32v307/CHV307_Library/Example/libraries/zf_driver/zf_driver_uart.c:252
        AFIO->PCFR2 |= 0x01<<22;                       //[23:22]
     c50:	400107b7          	lui	a5,0x40010
     c54:	4fd4                	lw	a3,28(a5)
     c56:	400107b7          	lui	a5,0x40010
     c5a:	00400737          	lui	a4,0x400
     c5e:	8f55                	or	a4,a4,a3
     c60:	cfd8                	sw	a4,28(a5)
     c62:	a8a1                	j	cba <uart_init+0x1aa>
E:/CODE/C/ch32v307/CHV307_Library/Example/libraries/zf_driver/zf_driver_uart.c:253
    else if(UART7_TX_E12 == tx_pin && UART7_RX_E13 == rx_pin)
     c64:	fd442703          	lw	a4,-44(s0)
     c68:	07400793          	li	a5,116
     c6c:	02f71263          	bne	a4,a5,c90 <uart_init+0x180>
E:/CODE/C/ch32v307/CHV307_Library/Example/libraries/zf_driver/zf_driver_uart.c:253 (discriminator 1)
     c70:	fd042703          	lw	a4,-48(s0)
     c74:	07500793          	li	a5,117
     c78:	00f71c63          	bne	a4,a5,c90 <uart_init+0x180>
E:/CODE/C/ch32v307/CHV307_Library/Example/libraries/zf_driver/zf_driver_uart.c:254
        AFIO->PCFR2 |= 0x01<<23;                       //[23:22]
     c7c:	400107b7          	lui	a5,0x40010
     c80:	4fd4                	lw	a3,28(a5)
     c82:	400107b7          	lui	a5,0x40010
     c86:	00800737          	lui	a4,0x800
     c8a:	8f55                	or	a4,a4,a3
     c8c:	cfd8                	sw	a4,28(a5)
     c8e:	a035                	j	cba <uart_init+0x1aa>
E:/CODE/C/ch32v307/CHV307_Library/Example/libraries/zf_driver/zf_driver_uart.c:256

    else if(UART8_TX_E14 == tx_pin && UART8_RX_E15 == rx_pin)
     c90:	fd442703          	lw	a4,-44(s0)
     c94:	08200793          	li	a5,130
     c98:	02f71163          	bne	a4,a5,cba <uart_init+0x1aa>
E:/CODE/C/ch32v307/CHV307_Library/Example/libraries/zf_driver/zf_driver_uart.c:256 (discriminator 1)
     c9c:	fd042703          	lw	a4,-48(s0)
     ca0:	08300793          	li	a5,131
     ca4:	00f71b63          	bne	a4,a5,cba <uart_init+0x1aa>
E:/CODE/C/ch32v307/CHV307_Library/Example/libraries/zf_driver/zf_driver_uart.c:257
        AFIO->PCFR2 |= 1<<25;    //[25:24]
     ca8:	400107b7          	lui	a5,0x40010
     cac:	4fd4                	lw	a3,28(a5)
     cae:	400107b7          	lui	a5,0x40010
     cb2:	02000737          	lui	a4,0x2000
     cb6:	8f55                	or	a4,a4,a3
     cb8:	cfd8                	sw	a4,28(a5)
E:/CODE/C/ch32v307/CHV307_Library/Example/libraries/zf_driver/zf_driver_uart.c:260

    //  串口总线使能
    if(UART_1 == uart_num) RCC_APB2PeriphClockCmd(RCC_APB2Periph_USART1, ENABLE);
     cba:	fdc42783          	lw	a5,-36(s0)
     cbe:	e791                	bnez	a5,cca <uart_init+0x1ba>
E:/CODE/C/ch32v307/CHV307_Library/Example/libraries/zf_driver/zf_driver_uart.c:260 (discriminator 1)
     cc0:	4585                	li	a1,1
     cc2:	6511                	lui	a0,0x4
     cc4:	749010ef          	jal	ra,2c0c <RCC_APB2PeriphClockCmd>
     cc8:	a869                	j	d62 <uart_init+0x252>
E:/CODE/C/ch32v307/CHV307_Library/Example/libraries/zf_driver/zf_driver_uart.c:261
    else if(UART_2 == uart_num) RCC_APB1PeriphClockCmd(RCC_APB1Periph_USART2, ENABLE);
     cca:	fdc42703          	lw	a4,-36(s0)
     cce:	4785                	li	a5,1
     cd0:	00f71863          	bne	a4,a5,ce0 <uart_init+0x1d0>
E:/CODE/C/ch32v307/CHV307_Library/Example/libraries/zf_driver/zf_driver_uart.c:261 (discriminator 1)
     cd4:	4585                	li	a1,1
     cd6:	00020537          	lui	a0,0x20
     cda:	779010ef          	jal	ra,2c52 <RCC_APB1PeriphClockCmd>
     cde:	a051                	j	d62 <uart_init+0x252>
E:/CODE/C/ch32v307/CHV307_Library/Example/libraries/zf_driver/zf_driver_uart.c:262
    else if(UART_3 == uart_num) RCC_APB1PeriphClockCmd(RCC_APB1Periph_USART3, ENABLE);
     ce0:	fdc42703          	lw	a4,-36(s0)
     ce4:	4789                	li	a5,2
     ce6:	00f71863          	bne	a4,a5,cf6 <uart_init+0x1e6>
E:/CODE/C/ch32v307/CHV307_Library/Example/libraries/zf_driver/zf_driver_uart.c:262 (discriminator 1)
     cea:	4585                	li	a1,1
     cec:	00040537          	lui	a0,0x40
     cf0:	763010ef          	jal	ra,2c52 <RCC_APB1PeriphClockCmd>
     cf4:	a0bd                	j	d62 <uart_init+0x252>
E:/CODE/C/ch32v307/CHV307_Library/Example/libraries/zf_driver/zf_driver_uart.c:263
    else if(UART_4 == uart_num) RCC_APB1PeriphClockCmd(RCC_APB1Periph_UART4, ENABLE);
     cf6:	fdc42703          	lw	a4,-36(s0)
     cfa:	478d                	li	a5,3
     cfc:	00f71863          	bne	a4,a5,d0c <uart_init+0x1fc>
E:/CODE/C/ch32v307/CHV307_Library/Example/libraries/zf_driver/zf_driver_uart.c:263 (discriminator 1)
     d00:	4585                	li	a1,1
     d02:	00080537          	lui	a0,0x80
     d06:	74d010ef          	jal	ra,2c52 <RCC_APB1PeriphClockCmd>
     d0a:	a8a1                	j	d62 <uart_init+0x252>
E:/CODE/C/ch32v307/CHV307_Library/Example/libraries/zf_driver/zf_driver_uart.c:264
    else if(UART_5 == uart_num) RCC_APB1PeriphClockCmd(RCC_APB1Periph_UART5, ENABLE);
     d0c:	fdc42703          	lw	a4,-36(s0)
     d10:	4791                	li	a5,4
     d12:	00f71863          	bne	a4,a5,d22 <uart_init+0x212>
E:/CODE/C/ch32v307/CHV307_Library/Example/libraries/zf_driver/zf_driver_uart.c:264 (discriminator 1)
     d16:	4585                	li	a1,1
     d18:	00100537          	lui	a0,0x100
     d1c:	737010ef          	jal	ra,2c52 <RCC_APB1PeriphClockCmd>
     d20:	a089                	j	d62 <uart_init+0x252>
E:/CODE/C/ch32v307/CHV307_Library/Example/libraries/zf_driver/zf_driver_uart.c:265
    else if(UART_6 == uart_num) RCC_APB1PeriphClockCmd(RCC_APB1Periph_UART6, ENABLE);
     d22:	fdc42703          	lw	a4,-36(s0)
     d26:	4795                	li	a5,5
     d28:	00f71863          	bne	a4,a5,d38 <uart_init+0x228>
E:/CODE/C/ch32v307/CHV307_Library/Example/libraries/zf_driver/zf_driver_uart.c:265 (discriminator 1)
     d2c:	4585                	li	a1,1
     d2e:	04000513          	li	a0,64
     d32:	721010ef          	jal	ra,2c52 <RCC_APB1PeriphClockCmd>
     d36:	a035                	j	d62 <uart_init+0x252>
E:/CODE/C/ch32v307/CHV307_Library/Example/libraries/zf_driver/zf_driver_uart.c:266
    else if(UART_7 == uart_num) RCC_APB1PeriphClockCmd(RCC_APB1Periph_UART7, ENABLE);
     d38:	fdc42703          	lw	a4,-36(s0)
     d3c:	4799                	li	a5,6
     d3e:	00f71863          	bne	a4,a5,d4e <uart_init+0x23e>
E:/CODE/C/ch32v307/CHV307_Library/Example/libraries/zf_driver/zf_driver_uart.c:266 (discriminator 1)
     d42:	4585                	li	a1,1
     d44:	08000513          	li	a0,128
     d48:	70b010ef          	jal	ra,2c52 <RCC_APB1PeriphClockCmd>
     d4c:	a819                	j	d62 <uart_init+0x252>
E:/CODE/C/ch32v307/CHV307_Library/Example/libraries/zf_driver/zf_driver_uart.c:267
    else if(UART_8 == uart_num) RCC_APB1PeriphClockCmd(RCC_APB1Periph_UART8, ENABLE);
     d4e:	fdc42703          	lw	a4,-36(s0)
     d52:	479d                	li	a5,7
     d54:	00f71763          	bne	a4,a5,d62 <uart_init+0x252>
E:/CODE/C/ch32v307/CHV307_Library/Example/libraries/zf_driver/zf_driver_uart.c:267 (discriminator 1)
     d58:	4585                	li	a1,1
     d5a:	10000513          	li	a0,256
     d5e:	6f5010ef          	jal	ra,2c52 <RCC_APB1PeriphClockCmd>
E:/CODE/C/ch32v307/CHV307_Library/Example/libraries/zf_driver/zf_driver_uart.c:271


    //  串口参数配置
    USART_InitStructure.USART_BaudRate = baud;
     d62:	fd842783          	lw	a5,-40(s0)
     d66:	fef42023          	sw	a5,-32(s0)
E:/CODE/C/ch32v307/CHV307_Library/Example/libraries/zf_driver/zf_driver_uart.c:272
    USART_InitStructure.USART_WordLength = USART_WordLength_8b;
     d6a:	fe041223          	sh	zero,-28(s0)
E:/CODE/C/ch32v307/CHV307_Library/Example/libraries/zf_driver/zf_driver_uart.c:273
    USART_InitStructure.USART_StopBits = USART_StopBits_1;
     d6e:	fe041323          	sh	zero,-26(s0)
E:/CODE/C/ch32v307/CHV307_Library/Example/libraries/zf_driver/zf_driver_uart.c:274
    USART_InitStructure.USART_Parity = USART_Parity_No;
     d72:	fe041423          	sh	zero,-24(s0)
E:/CODE/C/ch32v307/CHV307_Library/Example/libraries/zf_driver/zf_driver_uart.c:275
    USART_InitStructure.USART_HardwareFlowControl = USART_HardwareFlowControl_None;
     d76:	fe041623          	sh	zero,-20(s0)
E:/CODE/C/ch32v307/CHV307_Library/Example/libraries/zf_driver/zf_driver_uart.c:276
    USART_InitStructure.USART_Mode = USART_Mode_Tx | USART_Mode_Rx;
     d7a:	47b1                	li	a5,12
     d7c:	fef41523          	sh	a5,-22(s0)
E:/CODE/C/ch32v307/CHV307_Library/Example/libraries/zf_driver/zf_driver_uart.c:279

    //  使能串口
    USART_Init((USART_TypeDef*)uart_index[uart_num], &USART_InitStructure);
     d80:	67a5                	lui	a5,0x9
     d82:	fdc42703          	lw	a4,-36(s0)
     d86:	070a                	slli	a4,a4,0x2
     d88:	ff878793          	addi	a5,a5,-8 # 8ff8 <uart_index>
     d8c:	97ba                	add	a5,a5,a4
     d8e:	439c                	lw	a5,0(a5)
     d90:	873e                	mv	a4,a5
     d92:	fe040793          	addi	a5,s0,-32
     d96:	85be                	mv	a1,a5
     d98:	853a                	mv	a0,a4
     d9a:	79d010ef          	jal	ra,2d36 <USART_Init>
E:/CODE/C/ch32v307/CHV307_Library/Example/libraries/zf_driver/zf_driver_uart.c:280
    USART_Cmd((USART_TypeDef*)uart_index[uart_num], ENABLE);
     d9e:	67a5                	lui	a5,0x9
     da0:	fdc42703          	lw	a4,-36(s0)
     da4:	070a                	slli	a4,a4,0x2
     da6:	ff878793          	addi	a5,a5,-8 # 8ff8 <uart_index>
     daa:	97ba                	add	a5,a5,a4
     dac:	439c                	lw	a5,0(a5)
     dae:	4585                	li	a1,1
     db0:	853e                	mv	a0,a5
     db2:	1b8020ef          	jal	ra,2f6a <USART_Cmd>
E:/CODE/C/ch32v307/CHV307_Library/Example/libraries/zf_driver/zf_driver_uart.c:282

}
     db6:	0001                	nop
     db8:	50b2                	lw	ra,44(sp)
     dba:	5422                	lw	s0,40(sp)
     dbc:	6145                	addi	sp,sp,48
     dbe:	8082                	ret

00000dc0 <bluetooth_ch9141_uart_callback_ch1>:
bluetooth_ch9141_uart_callback_ch1():
E:/CODE/C/ch32v307/CHV307_Library/Example/libraries/zf_device/zf_device_bluetooth_ch9141.c:39
//  @since      v1.0
//  Sample usage:
//  @note       该函数在ISR文件 串口8中断程序被调用
//-------------------------------------------------------------------------------------------------------------------
void bluetooth_ch9141_uart_callback_ch1 (void)
{
     dc0:	1141                	addi	sp,sp,-16
     dc2:	c606                	sw	ra,12(sp)
     dc4:	c422                	sw	s0,8(sp)
     dc6:	0800                	addi	s0,sp,16
E:/CODE/C/ch32v307/CHV307_Library/Example/libraries/zf_device/zf_device_bluetooth_ch9141.c:40
    uart_query_byte(BLUETOOTH_CH9141_INDEX, &bluetooth_ch9141_data);                // 读取串口数据
     dc8:	83018593          	addi	a1,gp,-2000 # 20000250 <_edata>
     dcc:	4519                	li	a0,6
     dce:	31d5                	jal	ab2 <uart_query_byte>
E:/CODE/C/ch32v307/CHV307_Library/Example/libraries/zf_device/zf_device_bluetooth_ch9141.c:41
    fifo_write_buffer(&bluetooth_ch9141_fifo, &bluetooth_ch9141_data, 1);           // 存入 FIFO
     dd0:	4605                	li	a2,1
     dd2:	83018593          	addi	a1,gp,-2000 # 20000250 <_edata>
     dd6:	c9018513          	addi	a0,gp,-880 # 200006b0 <bluetooth_ch9141_fifo>
     dda:	2d21                	jal	13f2 <fifo_write_buffer>
E:/CODE/C/ch32v307/CHV307_Library/Example/libraries/zf_device/zf_device_bluetooth_ch9141.c:42
}
     ddc:	0001                	nop
     dde:	40b2                	lw	ra,12(sp)
     de0:	4422                	lw	s0,8(sp)
     de2:	0141                	addi	sp,sp,16
     de4:	8082                	ret

00000de6 <bluetooth_ch9141_uart_callback_ch2>:
bluetooth_ch9141_uart_callback_ch2():
E:/CODE/C/ch32v307/CHV307_Library/Example/libraries/zf_device/zf_device_bluetooth_ch9141_ch2.c:41
//  @since      v1.0
//  Sample usage:
//  @note       该函数在ISR文件 串口8中断程序被调用
//-------------------------------------------------------------------------------------------------------------------
void bluetooth_ch9141_uart_callback_ch2 (void)
{
     de6:	1141                	addi	sp,sp,-16
     de8:	c606                	sw	ra,12(sp)
     dea:	c422                	sw	s0,8(sp)
     dec:	0800                	addi	s0,sp,16
E:/CODE/C/ch32v307/CHV307_Library/Example/libraries/zf_device/zf_device_bluetooth_ch9141_ch2.c:42
    uart_query_byte(BLUETOOTH_CH9141_INDEX_CH2, &bluetooth_ch9141_data_ch2);                // 读取串口数据
     dee:	83118593          	addi	a1,gp,-1999 # 20000251 <bluetooth_ch9141_data_ch2>
     df2:	4505                	li	a0,1
     df4:	397d                	jal	ab2 <uart_query_byte>
E:/CODE/C/ch32v307/CHV307_Library/Example/libraries/zf_device/zf_device_bluetooth_ch9141_ch2.c:43
    fifo_write_buffer(&bluetooth_ch9141_fifo_ch2, &bluetooth_ch9141_data_ch2, 1);           // 存入 FIFO
     df6:	4605                	li	a2,1
     df8:	83118593          	addi	a1,gp,-1999 # 20000251 <bluetooth_ch9141_data_ch2>
     dfc:	ca418513          	addi	a0,gp,-860 # 200006c4 <bluetooth_ch9141_fifo_ch2>
     e00:	2bcd                	jal	13f2 <fifo_write_buffer>
E:/CODE/C/ch32v307/CHV307_Library/Example/libraries/zf_device/zf_device_bluetooth_ch9141_ch2.c:45

}
     e02:	0001                	nop
     e04:	40b2                	lw	ra,12(sp)
     e06:	4422                	lw	s0,8(sp)
     e08:	0141                	addi	sp,sp,16
     e0a:	8082                	ret

00000e0c <camera_uart_handler>:
camera_uart_handler():
E:/CODE/C/ch32v307/CHV307_Library/Example/libraries/zf_device/zf_device_camera.c:35
// @param       void
// @return      void
// Sample usage:
//-------------------------------------------------------------------------------------------------------------------
void camera_uart_handler (void)
{
     e0c:	1141                	addi	sp,sp,-16
     e0e:	c606                	sw	ra,12(sp)
     e10:	c422                	sw	s0,8(sp)
     e12:	0800                	addi	s0,sp,16
E:/CODE/C/ch32v307/CHV307_Library/Example/libraries/zf_device/zf_device_camera.c:36
    if(camera_type == CAMERA_BIN_UART)
     e14:	84c1a703          	lw	a4,-1972(gp) # 2000026c <camera_type>
     e18:	4789                	li	a5,2
     e1a:	00f70f63          	beq	a4,a5,e38 <camera_uart_handler+0x2c>
E:/CODE/C/ch32v307/CHV307_Library/Example/libraries/zf_device/zf_device_camera.c:41
    {
        // 小钻风暂不支持
        //ov7725_cof_uart_interrupt();
    }
    else if(camera_type == CAMERA_GRAYSCALE)
     e1e:	84c1a703          	lw	a4,-1972(gp) # 2000026c <camera_type>
     e22:	478d                	li	a5,3
     e24:	00f71463          	bne	a4,a5,e2c <camera_uart_handler+0x20>
E:/CODE/C/ch32v307/CHV307_Library/Example/libraries/zf_device/zf_device_camera.c:44
    {
        // 总钻风串口回调函数
        mt9v03x_uart_callback_dvp();
     e28:	2099                	jal	e6e <mt9v03x_uart_callback_dvp>
E:/CODE/C/ch32v307/CHV307_Library/Example/libraries/zf_device/zf_device_camera.c:51
    else if(camera_type == CAMERA_COLOR)
    {
        //凌瞳串口回调函数
        scc8660_uart_callback_dvp();
    }
}
     e2a:	a039                	j	e38 <camera_uart_handler+0x2c>
E:/CODE/C/ch32v307/CHV307_Library/Example/libraries/zf_device/zf_device_camera.c:46
    else if(camera_type == CAMERA_COLOR)
     e2c:	84c1a703          	lw	a4,-1972(gp) # 2000026c <camera_type>
     e30:	4791                	li	a5,4
     e32:	00f71363          	bne	a4,a5,e38 <camera_uart_handler+0x2c>
E:/CODE/C/ch32v307/CHV307_Library/Example/libraries/zf_device/zf_device_camera.c:49
        scc8660_uart_callback_dvp();
     e36:	28d9                	jal	f0c <scc8660_uart_callback_dvp>
E:/CODE/C/ch32v307/CHV307_Library/Example/libraries/zf_device/zf_device_camera.c:51
}
     e38:	0001                	nop
     e3a:	40b2                	lw	ra,12(sp)
     e3c:	4422                	lw	s0,8(sp)
     e3e:	0141                	addi	sp,sp,16
     e40:	8082                	ret

00000e42 <camera_dvp_handler>:
camera_dvp_handler():
E:/CODE/C/ch32v307/CHV307_Library/Example/libraries/zf_device/zf_device_camera.c:82
// @param       void
// @return      void
// Sample usage:
//-------------------------------------------------------------------------------------------------------------------
void camera_dvp_handler(void)
{
     e42:	1141                	addi	sp,sp,-16
     e44:	c606                	sw	ra,12(sp)
     e46:	c422                	sw	s0,8(sp)
     e48:	0800                	addi	s0,sp,16
E:/CODE/C/ch32v307/CHV307_Library/Example/libraries/zf_device/zf_device_camera.c:83
    if(camera_type == CAMERA_COLOR)
     e4a:	84c1a703          	lw	a4,-1972(gp) # 2000026c <camera_type>
     e4e:	4791                	li	a5,4
     e50:	00f71463          	bne	a4,a5,e58 <camera_dvp_handler+0x16>
E:/CODE/C/ch32v307/CHV307_Library/Example/libraries/zf_device/zf_device_camera.c:85
    {
        scc8660_vsync_dvp();
     e54:	2a31                	jal	f70 <scc8660_vsync_dvp>
E:/CODE/C/ch32v307/CHV307_Library/Example/libraries/zf_device/zf_device_camera.c:95
    }
    else if(camera_type == CAMERA_BIN_UART)
    {
        //小钻风不支持
    }
}
     e56:	a039                	j	e64 <camera_dvp_handler+0x22>
E:/CODE/C/ch32v307/CHV307_Library/Example/libraries/zf_device/zf_device_camera.c:87
    else if(camera_type == CAMERA_GRAYSCALE)
     e58:	84c1a703          	lw	a4,-1972(gp) # 2000026c <camera_type>
     e5c:	478d                	li	a5,3
     e5e:	00f71363          	bne	a4,a5,e64 <camera_dvp_handler+0x22>
E:/CODE/C/ch32v307/CHV307_Library/Example/libraries/zf_device/zf_device_camera.c:89
        mt9v03x_handler_dvp();
     e62:	2885                	jal	ed2 <mt9v03x_handler_dvp>
E:/CODE/C/ch32v307/CHV307_Library/Example/libraries/zf_device/zf_device_camera.c:95
}
     e64:	0001                	nop
     e66:	40b2                	lw	ra,12(sp)
     e68:	4422                	lw	s0,8(sp)
     e6a:	0141                	addi	sp,sp,16
     e6c:	8082                	ret

00000e6e <mt9v03x_uart_callback_dvp>:
mt9v03x_uart_callback_dvp():
E:/CODE/C/ch32v307/CHV307_Library/Example/libraries/zf_device/zf_device_mt9v03x_dvp.c:177
// @param       void
// @return      void
// Sample usage:
//-------------------------------------------------------------------------------------------------------------------
void mt9v03x_uart_callback_dvp (void)
{
     e6e:	1141                	addi	sp,sp,-16
     e70:	c606                	sw	ra,12(sp)
     e72:	c422                	sw	s0,8(sp)
     e74:	0800                	addi	s0,sp,16
E:/CODE/C/ch32v307/CHV307_Library/Example/libraries/zf_device/zf_device_mt9v03x_dvp.c:181
//    receive_dvp[receive_num_dvp] = ((USART_TypeDef*)uart_index[MT9V03X_COF_UART_DVP])->DATAR & 0xFF;
//    receive_num_dvp++;

    if(uart_query_byte(MT9V03X_COF_UART_DVP, &receive_dvp[receive_num_dvp]))
     e76:	83f1c783          	lbu	a5,-1985(gp) # 2000025f <receive_num_dvp>
     e7a:	873e                	mv	a4,a5
     e7c:	83c18793          	addi	a5,gp,-1988 # 2000025c <receive_dvp>
     e80:	97ba                	add	a5,a5,a4
     e82:	85be                	mv	a1,a5
     e84:	4511                	li	a0,4
     e86:	3135                	jal	ab2 <uart_query_byte>
     e88:	87aa                	mv	a5,a0
     e8a:	cb81                	beqz	a5,e9a <mt9v03x_uart_callback_dvp+0x2c>
E:/CODE/C/ch32v307/CHV307_Library/Example/libraries/zf_device/zf_device_mt9v03x_dvp.c:182
        receive_num_dvp++;
     e8c:	83f1c783          	lbu	a5,-1985(gp) # 2000025f <receive_num_dvp>
     e90:	0785                	addi	a5,a5,1
     e92:	0ff7f713          	andi	a4,a5,255
     e96:	82e18fa3          	sb	a4,-1985(gp) # 2000025f <receive_num_dvp>
E:/CODE/C/ch32v307/CHV307_Library/Example/libraries/zf_device/zf_device_mt9v03x_dvp.c:184

    if(1 == receive_num_dvp && 0XA5!=receive_dvp[0])
     e9a:	83f1c703          	lbu	a4,-1985(gp) # 2000025f <receive_num_dvp>
     e9e:	4785                	li	a5,1
     ea0:	00f71a63          	bne	a4,a5,eb4 <mt9v03x_uart_callback_dvp+0x46>
E:/CODE/C/ch32v307/CHV307_Library/Example/libraries/zf_device/zf_device_mt9v03x_dvp.c:184 (discriminator 1)
     ea4:	83c1c703          	lbu	a4,-1988(gp) # 2000025c <receive_dvp>
     ea8:	0a500793          	li	a5,165
     eac:	00f70463          	beq	a4,a5,eb4 <mt9v03x_uart_callback_dvp+0x46>
E:/CODE/C/ch32v307/CHV307_Library/Example/libraries/zf_device/zf_device_mt9v03x_dvp.c:185
        receive_num_dvp = 0;
     eb0:	82018fa3          	sb	zero,-1985(gp) # 2000025f <receive_num_dvp>
E:/CODE/C/ch32v307/CHV307_Library/Example/libraries/zf_device/zf_device_mt9v03x_dvp.c:186
    if(3 == receive_num_dvp)
     eb4:	83f1c703          	lbu	a4,-1985(gp) # 2000025f <receive_num_dvp>
     eb8:	478d                	li	a5,3
     eba:	00f71763          	bne	a4,a5,ec8 <mt9v03x_uart_callback_dvp+0x5a>
E:/CODE/C/ch32v307/CHV307_Library/Example/libraries/zf_device/zf_device_mt9v03x_dvp.c:188
    {
        receive_num_dvp = 0;
     ebe:	82018fa3          	sb	zero,-1985(gp) # 2000025f <receive_num_dvp>
E:/CODE/C/ch32v307/CHV307_Library/Example/libraries/zf_device/zf_device_mt9v03x_dvp.c:189
        uart_receive_flag_dvp = 1;
     ec2:	4705                	li	a4,1
     ec4:	84e18023          	sb	a4,-1984(gp) # 20000260 <uart_receive_flag_dvp>
E:/CODE/C/ch32v307/CHV307_Library/Example/libraries/zf_device/zf_device_mt9v03x_dvp.c:191
    }
}
     ec8:	0001                	nop
     eca:	40b2                	lw	ra,12(sp)
     ecc:	4422                	lw	s0,8(sp)
     ece:	0141                	addi	sp,sp,16
     ed0:	8082                	ret

00000ed2 <mt9v03x_handler_dvp>:
mt9v03x_handler_dvp():
E:/CODE/C/ch32v307/CHV307_Library/Example/libraries/zf_device/zf_device_mt9v03x_dvp.c:306
//  @return     void
//  @since      v1.0
//  Sample usage:               在isr.c里面先创建对应的中断函数，然后调用该函数(之后别忘记清除中断标志位)
//-------------------------------------------------------------------------------------------------------------------
void mt9v03x_handler_dvp(void)
{
     ed2:	1141                	addi	sp,sp,-16
     ed4:	c622                	sw	s0,12(sp)
     ed6:	0800                	addi	s0,sp,16
E:/CODE/C/ch32v307/CHV307_Library/Example/libraries/zf_device/zf_device_mt9v03x_dvp.c:307
    DVP->DMA_BUF0 = (uint32)camera_buffer_addr;       // 恢复DMA地址
     ed8:	8341a703          	lw	a4,-1996(gp) # 20000254 <camera_buffer_addr>
     edc:	500507b7          	lui	a5,0x50050
     ee0:	c798                	sw	a4,8(a5)
E:/CODE/C/ch32v307/CHV307_Library/Example/libraries/zf_device/zf_device_mt9v03x_dvp.c:308
    mt9v03x_finish_flag_dvp = 1;                        // 摄像头采集完成标志位置1
     ee2:	4705                	li	a4,1
     ee4:	82e18c23          	sb	a4,-1992(gp) # 20000258 <mt9v03x_finish_flag_dvp>
E:/CODE/C/ch32v307/CHV307_Library/Example/libraries/zf_device/zf_device_mt9v03x_dvp.c:309
    DVP->CR0 |= RB_DVP_ENABLE;                          // 重新打开DVP，采集下一副图像
     ee8:	500507b7          	lui	a5,0x50050
     eec:	0007c783          	lbu	a5,0(a5) # 50050000 <_eusrstack+0x30040000>
     ef0:	0ff7f713          	andi	a4,a5,255
     ef4:	500507b7          	lui	a5,0x50050
     ef8:	00176713          	ori	a4,a4,1
     efc:	0ff77713          	andi	a4,a4,255
     f00:	00e78023          	sb	a4,0(a5) # 50050000 <_eusrstack+0x30040000>
E:/CODE/C/ch32v307/CHV307_Library/Example/libraries/zf_device/zf_device_mt9v03x_dvp.c:310
}
     f04:	0001                	nop
     f06:	4432                	lw	s0,12(sp)
     f08:	0141                	addi	sp,sp,16
     f0a:	8082                	ret

00000f0c <scc8660_uart_callback_dvp>:
scc8660_uart_callback_dvp():
E:/CODE/C/ch32v307/CHV307_Library/Example/libraries/zf_device/zf_device_scc8660_dvp.c:106
//  @since      v1.0
//  Sample usage:	
//  @note       该函数在SDK底层fsl_lpuart文件中的串口3中断函数内调用
//-------------------------------------------------------------------------------------------------------------------
void scc8660_uart_callback_dvp(void)
{
     f0c:	1141                	addi	sp,sp,-16
     f0e:	c606                	sw	ra,12(sp)
     f10:	c422                	sw	s0,8(sp)
     f12:	0800                	addi	s0,sp,16
E:/CODE/C/ch32v307/CHV307_Library/Example/libraries/zf_device/zf_device_scc8660_dvp.c:107
    if(uart_query_byte(SCC8660_COF_UART_DVP, &scc8660_uart_receive_dvp[scc8660_uart_receive_num_dvp]))
     f14:	8471c783          	lbu	a5,-1977(gp) # 20000267 <scc8660_uart_receive_num_dvp>
     f18:	873e                	mv	a4,a5
     f1a:	84418793          	addi	a5,gp,-1980 # 20000264 <scc8660_uart_receive_dvp>
     f1e:	97ba                	add	a5,a5,a4
     f20:	85be                	mv	a1,a5
     f22:	4511                	li	a0,4
     f24:	3679                	jal	ab2 <uart_query_byte>
     f26:	87aa                	mv	a5,a0
     f28:	cb81                	beqz	a5,f38 <scc8660_uart_callback_dvp+0x2c>
E:/CODE/C/ch32v307/CHV307_Library/Example/libraries/zf_device/zf_device_scc8660_dvp.c:108
        scc8660_uart_receive_num_dvp++;
     f2a:	8471c783          	lbu	a5,-1977(gp) # 20000267 <scc8660_uart_receive_num_dvp>
     f2e:	0785                	addi	a5,a5,1
     f30:	0ff7f713          	andi	a4,a5,255
     f34:	84e183a3          	sb	a4,-1977(gp) # 20000267 <scc8660_uart_receive_num_dvp>
E:/CODE/C/ch32v307/CHV307_Library/Example/libraries/zf_device/zf_device_scc8660_dvp.c:110

    if(1==scc8660_uart_receive_num_dvp && 0XA5!=scc8660_uart_receive_dvp[0])  scc8660_uart_receive_num_dvp = 0;
     f38:	8471c703          	lbu	a4,-1977(gp) # 20000267 <scc8660_uart_receive_num_dvp>
     f3c:	4785                	li	a5,1
     f3e:	00f71a63          	bne	a4,a5,f52 <scc8660_uart_callback_dvp+0x46>
E:/CODE/C/ch32v307/CHV307_Library/Example/libraries/zf_device/zf_device_scc8660_dvp.c:110 (discriminator 1)
     f42:	8441c703          	lbu	a4,-1980(gp) # 20000264 <scc8660_uart_receive_dvp>
     f46:	0a500793          	li	a5,165
     f4a:	00f70463          	beq	a4,a5,f52 <scc8660_uart_callback_dvp+0x46>
E:/CODE/C/ch32v307/CHV307_Library/Example/libraries/zf_device/zf_device_scc8660_dvp.c:110 (discriminator 2)
     f4e:	840183a3          	sb	zero,-1977(gp) # 20000267 <scc8660_uart_receive_num_dvp>
E:/CODE/C/ch32v307/CHV307_Library/Example/libraries/zf_device/zf_device_scc8660_dvp.c:111
    if(3 == scc8660_uart_receive_num_dvp)
     f52:	8471c703          	lbu	a4,-1977(gp) # 20000267 <scc8660_uart_receive_num_dvp>
     f56:	478d                	li	a5,3
     f58:	00f71763          	bne	a4,a5,f66 <scc8660_uart_callback_dvp+0x5a>
E:/CODE/C/ch32v307/CHV307_Library/Example/libraries/zf_device/zf_device_scc8660_dvp.c:113
    {
        scc8660_uart_receive_num_dvp = 0;
     f5c:	840183a3          	sb	zero,-1977(gp) # 20000267 <scc8660_uart_receive_num_dvp>
E:/CODE/C/ch32v307/CHV307_Library/Example/libraries/zf_device/zf_device_scc8660_dvp.c:114
        scc8660_uart_receive_flag_dvp = 1;
     f60:	4705                	li	a4,1
     f62:	84e18423          	sb	a4,-1976(gp) # 20000268 <scc8660_uart_receive_flag_dvp>
E:/CODE/C/ch32v307/CHV307_Library/Example/libraries/zf_device/zf_device_scc8660_dvp.c:116
    }
}
     f66:	0001                	nop
     f68:	40b2                	lw	ra,12(sp)
     f6a:	4422                	lw	s0,8(sp)
     f6c:	0141                	addi	sp,sp,16
     f6e:	8082                	ret

00000f70 <scc8660_vsync_dvp>:
scc8660_vsync_dvp():
E:/CODE/C/ch32v307/CHV307_Library/Example/libraries/zf_device/zf_device_scc8660_dvp.c:452
//  @return     void
//  @since      v1.0
//  Sample usage:               在isr.c里面先创建对应的中断函数，然后调用该函数(之后别忘记清除中断标志位)
//-------------------------------------------------------------------------------------------------------------------
void scc8660_vsync_dvp(void)
{
     f70:	1141                	addi	sp,sp,-16
     f72:	c622                	sw	s0,12(sp)
     f74:	0800                	addi	s0,sp,16
E:/CODE/C/ch32v307/CHV307_Library/Example/libraries/zf_device/zf_device_scc8660_dvp.c:454
    //恢复DMA地址
    DVP->DMA_BUF0 = (uint32)camera_buffer_addr;
     f76:	8341a703          	lw	a4,-1996(gp) # 20000254 <camera_buffer_addr>
     f7a:	500507b7          	lui	a5,0x50050
     f7e:	c798                	sw	a4,8(a5)
E:/CODE/C/ch32v307/CHV307_Library/Example/libraries/zf_device/zf_device_scc8660_dvp.c:457

    //采集完成标志位置1
    scc8660_finish_flag_dvp = 1;
     f80:	4705                	li	a4,1
     f82:	84e184a3          	sb	a4,-1975(gp) # 20000269 <scc8660_finish_flag_dvp>
E:/CODE/C/ch32v307/CHV307_Library/Example/libraries/zf_device/zf_device_scc8660_dvp.c:460

    //开启DVP
    DVP->CR0 |= RB_DVP_ENABLE;
     f86:	500507b7          	lui	a5,0x50050
     f8a:	0007c783          	lbu	a5,0(a5) # 50050000 <_eusrstack+0x30040000>
     f8e:	0ff7f713          	andi	a4,a5,255
     f92:	500507b7          	lui	a5,0x50050
     f96:	00176713          	ori	a4,a4,1
     f9a:	0ff77713          	andi	a4,a4,255
     f9e:	00e78023          	sb	a4,0(a5) # 50050000 <_eusrstack+0x30040000>
E:/CODE/C/ch32v307/CHV307_Library/Example/libraries/zf_device/zf_device_scc8660_dvp.c:461
}
     fa2:	0001                	nop
     fa4:	4432                	lw	s0,12(sp)
     fa6:	0141                	addi	sp,sp,16
     fa8:	8082                	ret

00000faa <wireless_ch573_callback>:
wireless_ch573_callback():
E:/CODE/C/ch32v307/CHV307_Library/Example/libraries/zf_device/zf_device_wireless_ch573.c:37
// @return      void
// Sample usage:
// @note
//-------------------------------------------------------------------------------------------------------------------
void wireless_ch573_callback (void)
{
     faa:	1141                	addi	sp,sp,-16
     fac:	c606                	sw	ra,12(sp)
     fae:	c422                	sw	s0,8(sp)
     fb0:	0800                	addi	s0,sp,16
E:/CODE/C/ch32v307/CHV307_Library/Example/libraries/zf_device/zf_device_wireless_ch573.c:38
    uart_query_byte(WIRELESS_CH573_INDEX, &wireless_ch573_data);
     fb2:	85418593          	addi	a1,gp,-1964 # 20000274 <wireless_ch573_data>
     fb6:	4505                	li	a0,1
     fb8:	3ced                	jal	ab2 <uart_query_byte>
E:/CODE/C/ch32v307/CHV307_Library/Example/libraries/zf_device/zf_device_wireless_ch573.c:39
    fifo_write_buffer(&wireless_ch573_fifo, &wireless_ch573_data, 1);
     fba:	4605                	li	a2,1
     fbc:	85418593          	addi	a1,gp,-1964 # 20000274 <wireless_ch573_data>
     fc0:	cb818513          	addi	a0,gp,-840 # 200006d8 <wireless_ch573_fifo>
     fc4:	213d                	jal	13f2 <fifo_write_buffer>
E:/CODE/C/ch32v307/CHV307_Library/Example/libraries/zf_device/zf_device_wireless_ch573.c:41

}
     fc6:	0001                	nop
     fc8:	40b2                	lw	ra,12(sp)
     fca:	4422                	lw	s0,8(sp)
     fcc:	0141                	addi	sp,sp,16
     fce:	8082                	ret

00000fd0 <wireless_uart_callback>:
wireless_uart_callback():
E:/CODE/C/ch32v307/CHV307_Library/Example/libraries/zf_device/zf_device_wireless_uart.c:41
// @return      void
// Sample usage:
// @note
//-------------------------------------------------------------------------------------------------------------------
void wireless_uart_callback (void)
{
     fd0:	1141                	addi	sp,sp,-16
     fd2:	c606                	sw	ra,12(sp)
     fd4:	c422                	sw	s0,8(sp)
     fd6:	0800                	addi	s0,sp,16
E:/CODE/C/ch32v307/CHV307_Library/Example/libraries/zf_device/zf_device_wireless_uart.c:42
    uart_query_byte(WIRELESS_UART_INDEX, &wireless_uart_data);
     fd8:	85518593          	addi	a1,gp,-1963 # 20000275 <wireless_uart_data>
     fdc:	4505                	li	a0,1
     fde:	3cd1                	jal	ab2 <uart_query_byte>
E:/CODE/C/ch32v307/CHV307_Library/Example/libraries/zf_device/zf_device_wireless_uart.c:43
    fifo_write_buffer(&wireless_uart_fifo, &wireless_uart_data, 1);
     fe0:	4605                	li	a2,1
     fe2:	85518593          	addi	a1,gp,-1963 # 20000275 <wireless_uart_data>
     fe6:	ccc18513          	addi	a0,gp,-820 # 200006ec <wireless_uart_fifo>
     fea:	2121                	jal	13f2 <fifo_write_buffer>
E:/CODE/C/ch32v307/CHV307_Library/Example/libraries/zf_device/zf_device_wireless_uart.c:51
    {
        wireless_auto_baud_flag = 3;
        fifo_read_buffer(&wireless_uart_fifo, (uint8 *)wireless_auto_baud_data, (uint32 *)&wireless_auto_baud_flag, FIFO_READ_AND_CLEAN);
    }
#endif
}
     fec:	0001                	nop
     fee:	40b2                	lw	ra,12(sp)
     ff0:	4422                	lw	s0,8(sp)
     ff2:	0141                	addi	sp,sp,16
     ff4:	8082                	ret

00000ff6 <clock_init>:
clock_init():
E:/CODE/C/ch32v307/CHV307_Library/Example/libraries/zf_common/zf_common_clock.c:36
// @param       clock           时钟频率 推荐使用 zf_common_clock.h 中 system_clock_enum 定义的选项
// @return      void
// Sample usage:                clock_init(SYSTEM_CLOCK_144M);                   // 初始化核心时钟为 144MHz
//-------------------------------------------------------------------------------------------------------------------
void clock_init (uint32 clock)
{
     ff6:	1101                	addi	sp,sp,-32
     ff8:	ce06                	sw	ra,28(sp)
     ffa:	cc22                	sw	s0,24(sp)
     ffc:	1000                	addi	s0,sp,32
     ffe:	fea42623          	sw	a0,-20(s0)
E:/CODE/C/ch32v307/CHV307_Library/Example/libraries/zf_common/zf_common_clock.c:37
    system_clock = clock;                                                       // 记录核心时钟频率
    1002:	fec42703          	lw	a4,-20(s0)
    1006:	84e1ac23          	sw	a4,-1960(gp) # 20000278 <system_clock>
E:/CODE/C/ch32v307/CHV307_Library/Example/libraries/zf_common/zf_common_clock.c:38
    clock_reset();
    100a:	2811                	jal	101e <clock_reset>
E:/CODE/C/ch32v307/CHV307_Library/Example/libraries/zf_common/zf_common_clock.c:39
    clock_set_freq(clock);
    100c:	fec42503          	lw	a0,-20(s0)
    1010:	2051                	jal	1094 <clock_set_freq>
E:/CODE/C/ch32v307/CHV307_Library/Example/libraries/zf_common/zf_common_clock.c:40
    interrupt_init();
    1012:	2bb5                	jal	158e <interrupt_init>
E:/CODE/C/ch32v307/CHV307_Library/Example/libraries/zf_common/zf_common_clock.c:41
}
    1014:	0001                	nop
    1016:	40f2                	lw	ra,28(sp)
    1018:	4462                	lw	s0,24(sp)
    101a:	6105                	addi	sp,sp,32
    101c:	8082                	ret

0000101e <clock_reset>:
clock_reset():
E:/CODE/C/ch32v307/CHV307_Library/Example/libraries/zf_common/zf_common_clock.c:49
// @brief       核心时钟恢复初始设置 内部调用
// @param       void
// @return      void
//-------------------------------------------------------------------------------------------------------------------
static void clock_reset (void)
{
    101e:	1141                	addi	sp,sp,-16
    1020:	c622                	sw	s0,12(sp)
    1022:	0800                	addi	s0,sp,16
E:/CODE/C/ch32v307/CHV307_Library/Example/libraries/zf_common/zf_common_clock.c:50
    RCC->CTLR |= (uint32)0x00000001;      //使能HSI振荡器
    1024:	400217b7          	lui	a5,0x40021
    1028:	4398                	lw	a4,0(a5)
    102a:	400217b7          	lui	a5,0x40021
    102e:	00176713          	ori	a4,a4,1
    1032:	c398                	sw	a4,0(a5)
E:/CODE/C/ch32v307/CHV307_Library/Example/libraries/zf_common/zf_common_clock.c:51
    RCC->CFGR0 &= (uint32)0xF8FF0000;
    1034:	400217b7          	lui	a5,0x40021
    1038:	43d4                	lw	a3,4(a5)
    103a:	400217b7          	lui	a5,0x40021
    103e:	f8ff0737          	lui	a4,0xf8ff0
    1042:	8f75                	and	a4,a4,a3
    1044:	c3d8                	sw	a4,4(a5)
E:/CODE/C/ch32v307/CHV307_Library/Example/libraries/zf_common/zf_common_clock.c:52
    RCC->CTLR &= (uint32)0xFEF6FFFF;
    1046:	400217b7          	lui	a5,0x40021
    104a:	4394                	lw	a3,0(a5)
    104c:	400217b7          	lui	a5,0x40021
    1050:	fef70737          	lui	a4,0xfef70
    1054:	177d                	addi	a4,a4,-1
    1056:	8f75                	and	a4,a4,a3
    1058:	c398                	sw	a4,0(a5)
E:/CODE/C/ch32v307/CHV307_Library/Example/libraries/zf_common/zf_common_clock.c:53
    RCC->CTLR &= (uint32)0xFFFBFFFF;
    105a:	400217b7          	lui	a5,0x40021
    105e:	4394                	lw	a3,0(a5)
    1060:	400217b7          	lui	a5,0x40021
    1064:	fffc0737          	lui	a4,0xfffc0
    1068:	177d                	addi	a4,a4,-1
    106a:	8f75                	and	a4,a4,a3
    106c:	c398                	sw	a4,0(a5)
E:/CODE/C/ch32v307/CHV307_Library/Example/libraries/zf_common/zf_common_clock.c:54
    RCC->CFGR0 &= (uint32)0xFF80FFFF;
    106e:	400217b7          	lui	a5,0x40021
    1072:	43d4                	lw	a3,4(a5)
    1074:	400217b7          	lui	a5,0x40021
    1078:	ff810737          	lui	a4,0xff810
    107c:	177d                	addi	a4,a4,-1
    107e:	8f75                	and	a4,a4,a3
    1080:	c3d8                	sw	a4,4(a5)
E:/CODE/C/ch32v307/CHV307_Library/Example/libraries/zf_common/zf_common_clock.c:55
    RCC->INTR = 0x009F0000;                 // 禁用所有中断并清除挂起位
    1082:	400217b7          	lui	a5,0x40021
    1086:	009f0737          	lui	a4,0x9f0
    108a:	c798                	sw	a4,8(a5)
E:/CODE/C/ch32v307/CHV307_Library/Example/libraries/zf_common/zf_common_clock.c:56
}
    108c:	0001                	nop
    108e:	4432                	lw	s0,12(sp)
    1090:	0141                	addi	sp,sp,16
    1092:	8082                	ret

00001094 <clock_set_freq>:
clock_set_freq():
E:/CODE/C/ch32v307/CHV307_Library/Example/libraries/zf_common/zf_common_clock.c:66
// @brief       核心时钟设置
// @param       clock           时钟频率 推荐使用 zf_common_clock.h 中 system_clock_enum 定义的选项
// @return      void
//-------------------------------------------------------------------------------------------------------------------
static void clock_set_freq (uint32 clock)
{
    1094:	7179                	addi	sp,sp,-48
    1096:	d622                	sw	s0,44(sp)
    1098:	1800                	addi	s0,sp,48
    109a:	fca42e23          	sw	a0,-36(s0)
E:/CODE/C/ch32v307/CHV307_Library/Example/libraries/zf_common/zf_common_clock.c:67
    __IO uint32 StartUpCounter = 0, HSEStatus = 0;
    109e:	fe042623          	sw	zero,-20(s0)
    10a2:	fe042423          	sw	zero,-24(s0)
E:/CODE/C/ch32v307/CHV307_Library/Example/libraries/zf_common/zf_common_clock.c:69

    RCC->CTLR |= ((uint32)RCC_HSEON);
    10a6:	400217b7          	lui	a5,0x40021
    10aa:	4394                	lw	a3,0(a5)
    10ac:	400217b7          	lui	a5,0x40021
    10b0:	6741                	lui	a4,0x10
    10b2:	8f55                	or	a4,a4,a3
    10b4:	c398                	sw	a4,0(a5)
E:/CODE/C/ch32v307/CHV307_Library/Example/libraries/zf_common/zf_common_clock.c:74 (discriminator 2)

    /* Wait till HSE is ready and if Time out is reached exit */
    do
    {
        HSEStatus = RCC->CTLR & RCC_HSERDY;
    10b6:	400217b7          	lui	a5,0x40021
    10ba:	4398                	lw	a4,0(a5)
    10bc:	000207b7          	lui	a5,0x20
    10c0:	8ff9                	and	a5,a5,a4
    10c2:	fef42423          	sw	a5,-24(s0)
E:/CODE/C/ch32v307/CHV307_Library/Example/libraries/zf_common/zf_common_clock.c:75 (discriminator 2)
        StartUpCounter++;
    10c6:	fec42783          	lw	a5,-20(s0)
    10ca:	0785                	addi	a5,a5,1
    10cc:	fef42623          	sw	a5,-20(s0)
E:/CODE/C/ch32v307/CHV307_Library/Example/libraries/zf_common/zf_common_clock.c:76 (discriminator 2)
    } while((HSEStatus == 0) && (StartUpCounter != HSE_STARTUP_TIMEOUT));
    10d0:	fe842783          	lw	a5,-24(s0)
    10d4:	e799                	bnez	a5,10e2 <clock_set_freq+0x4e>
E:/CODE/C/ch32v307/CHV307_Library/Example/libraries/zf_common/zf_common_clock.c:76 (discriminator 1)
    10d6:	fec42703          	lw	a4,-20(s0)
    10da:	50000793          	li	a5,1280
    10de:	fcf71ce3          	bne	a4,a5,10b6 <clock_set_freq+0x22>
E:/CODE/C/ch32v307/CHV307_Library/Example/libraries/zf_common/zf_common_clock.c:78

    if ((RCC->CTLR & RCC_HSERDY) != RESET)
    10e2:	400217b7          	lui	a5,0x40021
    10e6:	4398                	lw	a4,0(a5)
    10e8:	000207b7          	lui	a5,0x20
    10ec:	8ff9                	and	a5,a5,a4
    10ee:	c789                	beqz	a5,10f8 <clock_set_freq+0x64>
E:/CODE/C/ch32v307/CHV307_Library/Example/libraries/zf_common/zf_common_clock.c:80
    {
        HSEStatus = (uint32)0x01;
    10f0:	4785                	li	a5,1
    10f2:	fef42423          	sw	a5,-24(s0)
    10f6:	a019                	j	10fc <clock_set_freq+0x68>
E:/CODE/C/ch32v307/CHV307_Library/Example/libraries/zf_common/zf_common_clock.c:84
    }
    else
    {
        HSEStatus = (uint32)0x00;
    10f8:	fe042423          	sw	zero,-24(s0)
E:/CODE/C/ch32v307/CHV307_Library/Example/libraries/zf_common/zf_common_clock.c:87
    }

    if (HSEStatus == (uint32)0x01)
    10fc:	fe842703          	lw	a4,-24(s0)
    1100:	4785                	li	a5,1
    1102:	1ef71563          	bne	a4,a5,12ec <clock_set_freq+0x258>
E:/CODE/C/ch32v307/CHV307_Library/Example/libraries/zf_common/zf_common_clock.c:90
    {
        /* Enable Prefetch Buffer */
        FLASH->ACTLR |= FLASH_ACTLR_PRFTBE;
    1106:	400227b7          	lui	a5,0x40022
    110a:	4398                	lw	a4,0(a5)
    110c:	400227b7          	lui	a5,0x40022
    1110:	01076713          	ori	a4,a4,16
    1114:	c398                	sw	a4,0(a5)
E:/CODE/C/ch32v307/CHV307_Library/Example/libraries/zf_common/zf_common_clock.c:93

        /* Flash wait state */
        FLASH->ACTLR &= (uint32)((uint32)~FLASH_ACTLR_LATENCY);
    1116:	400227b7          	lui	a5,0x40022
    111a:	4398                	lw	a4,0(a5)
    111c:	400227b7          	lui	a5,0x40022
    1120:	9b71                	andi	a4,a4,-4
    1122:	c398                	sw	a4,0(a5)
E:/CODE/C/ch32v307/CHV307_Library/Example/libraries/zf_common/zf_common_clock.c:95

        FLASH->ACTLR |= (((clock-1)/24000000)&0x07);
    1124:	400227b7          	lui	a5,0x40022
    1128:	4394                	lw	a3,0(a5)
    112a:	fdc42783          	lw	a5,-36(s0)
    112e:	fff78713          	addi	a4,a5,-1 # 40021fff <_eusrstack+0x20011fff>
    1132:	016e37b7          	lui	a5,0x16e3
    1136:	60078793          	addi	a5,a5,1536 # 16e3600 <_data_lma+0x16d9fdc>
    113a:	02f757b3          	divu	a5,a4,a5
    113e:	0077f713          	andi	a4,a5,7
    1142:	400227b7          	lui	a5,0x40022
    1146:	8f55                	or	a4,a4,a3
    1148:	c398                	sw	a4,0(a5)
E:/CODE/C/ch32v307/CHV307_Library/Example/libraries/zf_common/zf_common_clock.c:98

        /* HCLK = SYSCLK */
        RCC->CFGR0 |= (uint32)RCC_HPRE_DIV1;
    114a:	40021737          	lui	a4,0x40021
    114e:	400217b7          	lui	a5,0x40021
    1152:	4358                	lw	a4,4(a4)
    1154:	c3d8                	sw	a4,4(a5)
E:/CODE/C/ch32v307/CHV307_Library/Example/libraries/zf_common/zf_common_clock.c:100
        /* PCLK2 = HCLK */
        RCC->CFGR0 |= (uint32)RCC_PPRE2_DIV1;
    1156:	40021737          	lui	a4,0x40021
    115a:	400217b7          	lui	a5,0x40021
    115e:	4358                	lw	a4,4(a4)
    1160:	c3d8                	sw	a4,4(a5)
E:/CODE/C/ch32v307/CHV307_Library/Example/libraries/zf_common/zf_common_clock.c:102
        /* PCLK1 = HCLK */
        RCC->CFGR0 |= (uint32)RCC_PPRE1_DIV1;
    1162:	40021737          	lui	a4,0x40021
    1166:	400217b7          	lui	a5,0x40021
    116a:	4358                	lw	a4,4(a4)
    116c:	c3d8                	sw	a4,4(a5)
E:/CODE/C/ch32v307/CHV307_Library/Example/libraries/zf_common/zf_common_clock.c:105


        if(clock == SYSTEM_CLOCK_XTAL)
    116e:	fdc42703          	lw	a4,-36(s0)
    1172:	007a17b7          	lui	a5,0x7a1
    1176:	20078793          	addi	a5,a5,512 # 7a1200 <_data_lma+0x797bdc>
    117a:	02f71b63          	bne	a4,a5,11b0 <clock_set_freq+0x11c>
E:/CODE/C/ch32v307/CHV307_Library/Example/libraries/zf_common/zf_common_clock.c:108
        {
            /* Select HSE as system clock source */
            RCC->CFGR0 &= (uint32)((uint32)~(RCC_SW));
    117e:	400217b7          	lui	a5,0x40021
    1182:	43d8                	lw	a4,4(a5)
    1184:	400217b7          	lui	a5,0x40021
    1188:	9b71                	andi	a4,a4,-4
    118a:	c3d8                	sw	a4,4(a5)
E:/CODE/C/ch32v307/CHV307_Library/Example/libraries/zf_common/zf_common_clock.c:109
            RCC->CFGR0 |= (uint32)RCC_SW_HSE;
    118c:	400217b7          	lui	a5,0x40021
    1190:	43d8                	lw	a4,4(a5)
    1192:	400217b7          	lui	a5,0x40021
    1196:	00176713          	ori	a4,a4,1
    119a:	c3d8                	sw	a4,4(a5)
E:/CODE/C/ch32v307/CHV307_Library/Example/libraries/zf_common/zf_common_clock.c:111
            /* Wait till HSE is used as system clock source */
            while ((RCC->CFGR0 & (uint32)RCC_SWS) != (uint32)0x04)
    119c:	0001                	nop
E:/CODE/C/ch32v307/CHV307_Library/Example/libraries/zf_common/zf_common_clock.c:111 (discriminator 1)
    119e:	400217b7          	lui	a5,0x40021
    11a2:	43dc                	lw	a5,4(a5)
    11a4:	00c7f713          	andi	a4,a5,12
    11a8:	4791                	li	a5,4
    11aa:	fef71ae3          	bne	a4,a5,119e <clock_set_freq+0x10a>
E:/CODE/C/ch32v307/CHV307_Library/Example/libraries/zf_common/zf_common_clock.c:161
        /*
        * If HSE fails to start-up, the application will have wrong clock
        * configuration. User can add here some code to deal with this error
        */
    }
}
    11ae:	a281                	j	12ee <clock_set_freq+0x25a>
E:/CODE/C/ch32v307/CHV307_Library/Example/libraries/zf_common/zf_common_clock.c:118
            RCC->CFGR0 &= (uint32)((uint32)~(RCC_PLLSRC | RCC_PLLXTPRE | RCC_PLLMULL));
    11b0:	400217b7          	lui	a5,0x40021
    11b4:	43d4                	lw	a3,4(a5)
    11b6:	400217b7          	lui	a5,0x40021
    11ba:	ffc10737          	lui	a4,0xffc10
    11be:	177d                	addi	a4,a4,-1
    11c0:	8f75                	and	a4,a4,a3
    11c2:	c3d8                	sw	a4,4(a5)
E:/CODE/C/ch32v307/CHV307_Library/Example/libraries/zf_common/zf_common_clock.c:120
            if(clock == SYSTEM_CLOCK_144M)
    11c4:	fdc42703          	lw	a4,-36(s0)
    11c8:	089547b7          	lui	a5,0x8954
    11cc:	40078793          	addi	a5,a5,1024 # 8954400 <_data_lma+0x894addc>
    11d0:	00f71b63          	bne	a4,a5,11e6 <clock_set_freq+0x152>
E:/CODE/C/ch32v307/CHV307_Library/Example/libraries/zf_common/zf_common_clock.c:121
            RCC->CFGR0 |= (uint32)(RCC_PLLSRC_HSE | RCC_PLLXTPRE_HSE | RCC_PLLMULL18_EXTEN);
    11d4:	400217b7          	lui	a5,0x40021
    11d8:	43d4                	lw	a3,4(a5)
    11da:	400217b7          	lui	a5,0x40021
    11de:	6741                	lui	a4,0x10
    11e0:	8f55                	or	a4,a4,a3
    11e2:	c3d8                	sw	a4,4(a5)
    11e4:	a855                	j	1298 <clock_set_freq+0x204>
E:/CODE/C/ch32v307/CHV307_Library/Example/libraries/zf_common/zf_common_clock.c:122
            else if(clock == SYSTEM_CLOCK_120M)
    11e6:	fdc42703          	lw	a4,-36(s0)
    11ea:	072717b7          	lui	a5,0x7271
    11ee:	e0078793          	addi	a5,a5,-512 # 7270e00 <_data_lma+0x72677dc>
    11f2:	00f71c63          	bne	a4,a5,120a <clock_set_freq+0x176>
E:/CODE/C/ch32v307/CHV307_Library/Example/libraries/zf_common/zf_common_clock.c:123
            RCC->CFGR0 |= (uint32)(RCC_PLLSRC_HSE | RCC_PLLXTPRE_HSE | RCC_PLLMULL15_EXTEN);
    11f6:	400217b7          	lui	a5,0x40021
    11fa:	43d4                	lw	a3,4(a5)
    11fc:	400217b7          	lui	a5,0x40021
    1200:	00390737          	lui	a4,0x390
    1204:	8f55                	or	a4,a4,a3
    1206:	c3d8                	sw	a4,4(a5)
    1208:	a841                	j	1298 <clock_set_freq+0x204>
E:/CODE/C/ch32v307/CHV307_Library/Example/libraries/zf_common/zf_common_clock.c:124
            else if(clock == SYSTEM_CLOCK_96M)
    120a:	fdc42703          	lw	a4,-36(s0)
    120e:	05b8e7b7          	lui	a5,0x5b8e
    1212:	80078793          	addi	a5,a5,-2048 # 5b8d800 <_data_lma+0x5b841dc>
    1216:	00f71c63          	bne	a4,a5,122e <clock_set_freq+0x19a>
E:/CODE/C/ch32v307/CHV307_Library/Example/libraries/zf_common/zf_common_clock.c:125
            RCC->CFGR0 |= (uint32)(RCC_PLLSRC_HSE | RCC_PLLXTPRE_HSE | RCC_PLLMULL12_EXTEN);
    121a:	400217b7          	lui	a5,0x40021
    121e:	43d4                	lw	a3,4(a5)
    1220:	400217b7          	lui	a5,0x40021
    1224:	00290737          	lui	a4,0x290
    1228:	8f55                	or	a4,a4,a3
    122a:	c3d8                	sw	a4,4(a5)
    122c:	a0b5                	j	1298 <clock_set_freq+0x204>
E:/CODE/C/ch32v307/CHV307_Library/Example/libraries/zf_common/zf_common_clock.c:126
            else if(clock == SYSTEM_CLOCK_72M)
    122e:	fdc42703          	lw	a4,-36(s0)
    1232:	044aa7b7          	lui	a5,0x44aa
    1236:	20078793          	addi	a5,a5,512 # 44aa200 <_data_lma+0x44a0bdc>
    123a:	00f71c63          	bne	a4,a5,1252 <clock_set_freq+0x1be>
E:/CODE/C/ch32v307/CHV307_Library/Example/libraries/zf_common/zf_common_clock.c:127
            RCC->CFGR0 |= (uint32)(RCC_PLLSRC_HSE | RCC_PLLXTPRE_HSE | RCC_PLLMULL9_EXTEN);
    123e:	400217b7          	lui	a5,0x40021
    1242:	43d4                	lw	a3,4(a5)
    1244:	400217b7          	lui	a5,0x40021
    1248:	001d0737          	lui	a4,0x1d0
    124c:	8f55                	or	a4,a4,a3
    124e:	c3d8                	sw	a4,4(a5)
    1250:	a0a1                	j	1298 <clock_set_freq+0x204>
E:/CODE/C/ch32v307/CHV307_Library/Example/libraries/zf_common/zf_common_clock.c:128
            else if(clock == SYSTEM_CLOCK_48M)
    1252:	fdc42703          	lw	a4,-36(s0)
    1256:	02dc77b7          	lui	a5,0x2dc7
    125a:	c0078793          	addi	a5,a5,-1024 # 2dc6c00 <_data_lma+0x2dbd5dc>
    125e:	00f71c63          	bne	a4,a5,1276 <clock_set_freq+0x1e2>
E:/CODE/C/ch32v307/CHV307_Library/Example/libraries/zf_common/zf_common_clock.c:129
            RCC->CFGR0 |= (uint32)(RCC_PLLSRC_HSE | RCC_PLLXTPRE_HSE | RCC_PLLMULL6_EXTEN);
    1262:	400217b7          	lui	a5,0x40021
    1266:	43d4                	lw	a3,4(a5)
    1268:	400217b7          	lui	a5,0x40021
    126c:	00110737          	lui	a4,0x110
    1270:	8f55                	or	a4,a4,a3
    1272:	c3d8                	sw	a4,4(a5)
    1274:	a015                	j	1298 <clock_set_freq+0x204>
E:/CODE/C/ch32v307/CHV307_Library/Example/libraries/zf_common/zf_common_clock.c:130
            else if(clock == SYSTEM_CLOCK_24M)
    1276:	fdc42703          	lw	a4,-36(s0)
    127a:	016e37b7          	lui	a5,0x16e3
    127e:	60078793          	addi	a5,a5,1536 # 16e3600 <_data_lma+0x16d9fdc>
    1282:	00f71b63          	bne	a4,a5,1298 <clock_set_freq+0x204>
E:/CODE/C/ch32v307/CHV307_Library/Example/libraries/zf_common/zf_common_clock.c:131
            RCC->CFGR0 |= (uint32)(RCC_PLLSRC_HSE | RCC_PLLXTPRE_HSE | RCC_PLLMULL3_EXTEN);
    1286:	400217b7          	lui	a5,0x40021
    128a:	43d4                	lw	a3,4(a5)
    128c:	400217b7          	lui	a5,0x40021
    1290:	00050737          	lui	a4,0x50
    1294:	8f55                	or	a4,a4,a3
    1296:	c3d8                	sw	a4,4(a5)
E:/CODE/C/ch32v307/CHV307_Library/Example/libraries/zf_common/zf_common_clock.c:138
            RCC->CTLR |= RCC_PLLON;
    1298:	400217b7          	lui	a5,0x40021
    129c:	4394                	lw	a3,0(a5)
    129e:	400217b7          	lui	a5,0x40021
    12a2:	01000737          	lui	a4,0x1000
    12a6:	8f55                	or	a4,a4,a3
    12a8:	c398                	sw	a4,0(a5)
E:/CODE/C/ch32v307/CHV307_Library/Example/libraries/zf_common/zf_common_clock.c:140
            while((RCC->CTLR & RCC_PLLRDY) == 0)
    12aa:	0001                	nop
E:/CODE/C/ch32v307/CHV307_Library/Example/libraries/zf_common/zf_common_clock.c:140 (discriminator 1)
    12ac:	400217b7          	lui	a5,0x40021
    12b0:	4398                	lw	a4,0(a5)
    12b2:	020007b7          	lui	a5,0x2000
    12b6:	8ff9                	and	a5,a5,a4
    12b8:	dbf5                	beqz	a5,12ac <clock_set_freq+0x218>
E:/CODE/C/ch32v307/CHV307_Library/Example/libraries/zf_common/zf_common_clock.c:144
            RCC->CFGR0 &= (uint32)((uint32)~(RCC_SW));
    12ba:	400217b7          	lui	a5,0x40021
    12be:	43d8                	lw	a4,4(a5)
    12c0:	400217b7          	lui	a5,0x40021
    12c4:	9b71                	andi	a4,a4,-4
    12c6:	c3d8                	sw	a4,4(a5)
E:/CODE/C/ch32v307/CHV307_Library/Example/libraries/zf_common/zf_common_clock.c:145
            RCC->CFGR0 |= (uint32)RCC_SW_PLL;
    12c8:	400217b7          	lui	a5,0x40021
    12cc:	43d8                	lw	a4,4(a5)
    12ce:	400217b7          	lui	a5,0x40021
    12d2:	00276713          	ori	a4,a4,2
    12d6:	c3d8                	sw	a4,4(a5)
E:/CODE/C/ch32v307/CHV307_Library/Example/libraries/zf_common/zf_common_clock.c:147
            while ((RCC->CFGR0 & (uint32)RCC_SWS) != (uint32)0x08)
    12d8:	0001                	nop
E:/CODE/C/ch32v307/CHV307_Library/Example/libraries/zf_common/zf_common_clock.c:147 (discriminator 1)
    12da:	400217b7          	lui	a5,0x40021
    12de:	43dc                	lw	a5,4(a5)
    12e0:	00c7f713          	andi	a4,a5,12
    12e4:	47a1                	li	a5,8
    12e6:	fef71ae3          	bne	a4,a5,12da <clock_set_freq+0x246>
E:/CODE/C/ch32v307/CHV307_Library/Example/libraries/zf_common/zf_common_clock.c:161
}
    12ea:	a011                	j	12ee <clock_set_freq+0x25a>
E:/CODE/C/ch32v307/CHV307_Library/Example/libraries/zf_common/zf_common_clock.c:155 (discriminator 2)
        while(1);           // 外部晶振不稳定或缺失 时钟设置失败
    12ec:	a001                	j	12ec <clock_set_freq+0x258>
E:/CODE/C/ch32v307/CHV307_Library/Example/libraries/zf_common/zf_common_clock.c:161
}
    12ee:	5432                	lw	s0,44(sp)
    12f0:	6145                	addi	sp,sp,48
    12f2:	8082                	ret

000012f4 <debug_init>:
debug_init():
E:/CODE/C/ch32v307/CHV307_Library/Example/libraries/zf_common/zf_common_debug.c:41
// @param       void
// @return      void
// Sample usage:
//-------------------------------------------------------------------------------------------------------------------
void debug_init (void)
{
    12f4:	1141                	addi	sp,sp,-16
    12f6:	c606                	sw	ra,12(sp)
    12f8:	c422                	sw	s0,8(sp)
    12fa:	0800                	addi	s0,sp,16
E:/CODE/C/ch32v307/CHV307_Library/Example/libraries/zf_common/zf_common_debug.c:48
//    GPIO_DeInit(GPIOB);
//    GPIO_DeInit(GPIOC);
//    GPIO_DeInit(GPIOD);
//    GPIO_DeInit(GPIOE);

    uart_init(
    12fc:	02100693          	li	a3,33
    1300:	02000613          	li	a2,32
    1304:	67f1                	lui	a5,0x1c
    1306:	20078593          	addi	a1,a5,512 # 1c200 <_data_lma+0x12bdc>
    130a:	4509                	li	a0,2
    130c:	805ff0ef          	jal	ra,b10 <uart_init>
E:/CODE/C/ch32v307/CHV307_Library/Example/libraries/zf_common/zf_common_debug.c:56
        DEBUG_UART_TX_PIN,                                                      // 在 zf_common_debug.h 中查看对应值
        DEBUG_UART_RX_PIN);                                                     // 在 zf_common_debug.h 中查看对应值

    if(DEBUG_UART_USE_INTERRUPT)                                                // 如果启用串口中断
    {
        uart_rx_interrupt(DEBUG_UART_INDEX, 1);                                 // 使能对应串口接收中断
    1310:	4585                	li	a1,1
    1312:	4509                	li	a0,2
    1314:	f18ff0ef          	jal	ra,a2c <uart_rx_interrupt>
E:/CODE/C/ch32v307/CHV307_Library/Example/libraries/zf_common/zf_common_debug.c:58
    }
    zf_debug_init_flag = 1;
    1318:	4705                	li	a4,1
    131a:	84e18e23          	sb	a4,-1956(gp) # 2000027c <zf_debug_init_flag>
E:/CODE/C/ch32v307/CHV307_Library/Example/libraries/zf_common/zf_common_debug.c:59
}
    131e:	0001                	nop
    1320:	40b2                	lw	ra,12(sp)
    1322:	4422                	lw	s0,8(sp)
    1324:	0141                	addi	sp,sp,16
    1326:	8082                	ret

00001328 <_write>:
_write():
E:/CODE/C/ch32v307/CHV307_Library/Example/libraries/zf_common/zf_common_debug.c:159
//  @since      v1.0
//  Sample usage:              重定向printf到DEBUG串口上
//-------------------------------------------------------------------------------------------------------------------
#if (1 == PRINTF_ENABLE)
int _write(int fd, char *buf, int size)
{
    1328:	7179                	addi	sp,sp,-48
    132a:	d606                	sw	ra,44(sp)
    132c:	d422                	sw	s0,40(sp)
    132e:	1800                	addi	s0,sp,48
    1330:	fca42e23          	sw	a0,-36(s0)
    1334:	fcb42c23          	sw	a1,-40(s0)
    1338:	fcc42a23          	sw	a2,-44(s0)
E:/CODE/C/ch32v307/CHV307_Library/Example/libraries/zf_common/zf_common_debug.c:161
    int i;
    for(i=0; i<size; i++)
    133c:	fe042623          	sw	zero,-20(s0)
    1340:	a0a9                	j	138a <_write+0x62>
E:/CODE/C/ch32v307/CHV307_Library/Example/libraries/zf_common/zf_common_debug.c:163
    {
        while (USART_GetFlagStatus((USART_TypeDef*)uart_index[DEBUG_UART_INDEX], USART_FLAG_TC) == RESET);
    1342:	0001                	nop
E:/CODE/C/ch32v307/CHV307_Library/Example/libraries/zf_common/zf_common_debug.c:163 (discriminator 1)
    1344:	67a5                	lui	a5,0x9
    1346:	ff878793          	addi	a5,a5,-8 # 8ff8 <uart_index>
    134a:	479c                	lw	a5,8(a5)
    134c:	04000593          	li	a1,64
    1350:	853e                	mv	a0,a5
    1352:	56b010ef          	jal	ra,30bc <USART_GetFlagStatus>
    1356:	87aa                	mv	a5,a0
    1358:	d7f5                	beqz	a5,1344 <_write+0x1c>
E:/CODE/C/ch32v307/CHV307_Library/Example/libraries/zf_common/zf_common_debug.c:164 (discriminator 2)
        USART_SendData((USART_TypeDef*)uart_index[DEBUG_UART_INDEX], *buf++);
    135a:	67a5                	lui	a5,0x9
    135c:	ff878793          	addi	a5,a5,-8 # 8ff8 <uart_index>
    1360:	479c                	lw	a5,8(a5)
    1362:	86be                	mv	a3,a5
    1364:	fd842783          	lw	a5,-40(s0)
    1368:	00178713          	addi	a4,a5,1
    136c:	fce42c23          	sw	a4,-40(s0)
    1370:	00078783          	lb	a5,0(a5)
    1374:	07c2                	slli	a5,a5,0x10
    1376:	83c1                	srli	a5,a5,0x10
    1378:	85be                	mv	a1,a5
    137a:	8536                	mv	a0,a3
    137c:	513010ef          	jal	ra,308e <USART_SendData>
E:/CODE/C/ch32v307/CHV307_Library/Example/libraries/zf_common/zf_common_debug.c:161 (discriminator 2)
    for(i=0; i<size; i++)
    1380:	fec42783          	lw	a5,-20(s0)
    1384:	0785                	addi	a5,a5,1
    1386:	fef42623          	sw	a5,-20(s0)
E:/CODE/C/ch32v307/CHV307_Library/Example/libraries/zf_common/zf_common_debug.c:161 (discriminator 1)
    138a:	fec42703          	lw	a4,-20(s0)
    138e:	fd442783          	lw	a5,-44(s0)
    1392:	faf748e3          	blt	a4,a5,1342 <_write+0x1a>
E:/CODE/C/ch32v307/CHV307_Library/Example/libraries/zf_common/zf_common_debug.c:167

    }
    return size;
    1396:	fd442783          	lw	a5,-44(s0)
E:/CODE/C/ch32v307/CHV307_Library/Example/libraries/zf_common/zf_common_debug.c:168
}
    139a:	853e                	mv	a0,a5
    139c:	50b2                	lw	ra,44(sp)
    139e:	5422                	lw	s0,40(sp)
    13a0:	6145                	addi	sp,sp,48
    13a2:	8082                	ret

000013a4 <fifo_head_offset>:
fifo_head_offset():
E:/CODE/C/ch32v307/CHV307_Library/Example/libraries/zf_common/zf_common_fifo.c:53
// @param       offset          偏移量
// @return      void
// Sample usage:
//-------------------------------------------------------------------------------------------------------------------
void fifo_head_offset (fifo_struct *fifo, uint32 offset)
{
    13a4:	1101                	addi	sp,sp,-32
    13a6:	ce22                	sw	s0,28(sp)
    13a8:	1000                	addi	s0,sp,32
    13aa:	fea42623          	sw	a0,-20(s0)
    13ae:	feb42423          	sw	a1,-24(s0)
E:/CODE/C/ch32v307/CHV307_Library/Example/libraries/zf_common/zf_common_fifo.c:54
    fifo->head += offset;
    13b2:	fec42783          	lw	a5,-20(s0)
    13b6:	43d8                	lw	a4,4(a5)
    13b8:	fe842783          	lw	a5,-24(s0)
    13bc:	973e                	add	a4,a4,a5
    13be:	fec42783          	lw	a5,-20(s0)
    13c2:	c3d8                	sw	a4,4(a5)
E:/CODE/C/ch32v307/CHV307_Library/Example/libraries/zf_common/zf_common_fifo.c:56
    
    while(fifo->max <= fifo->head)                                              // 如果范围超过则减缓冲区大小 直到小于最大缓冲区大小
    13c4:	a819                	j	13da <fifo_head_offset+0x36>
E:/CODE/C/ch32v307/CHV307_Library/Example/libraries/zf_common/zf_common_fifo.c:58
    {
        fifo->head -= fifo->max;
    13c6:	fec42783          	lw	a5,-20(s0)
    13ca:	43d8                	lw	a4,4(a5)
    13cc:	fec42783          	lw	a5,-20(s0)
    13d0:	4b9c                	lw	a5,16(a5)
    13d2:	8f1d                	sub	a4,a4,a5
    13d4:	fec42783          	lw	a5,-20(s0)
    13d8:	c3d8                	sw	a4,4(a5)
E:/CODE/C/ch32v307/CHV307_Library/Example/libraries/zf_common/zf_common_fifo.c:56
    while(fifo->max <= fifo->head)                                              // 如果范围超过则减缓冲区大小 直到小于最大缓冲区大小
    13da:	fec42783          	lw	a5,-20(s0)
    13de:	4b98                	lw	a4,16(a5)
    13e0:	fec42783          	lw	a5,-20(s0)
    13e4:	43dc                	lw	a5,4(a5)
    13e6:	fee7f0e3          	bgeu	a5,a4,13c6 <fifo_head_offset+0x22>
E:/CODE/C/ch32v307/CHV307_Library/Example/libraries/zf_common/zf_common_fifo.c:60
    }
}
    13ea:	0001                	nop
    13ec:	4472                	lw	s0,28(sp)
    13ee:	6105                	addi	sp,sp,32
    13f0:	8082                	ret

000013f2 <fifo_write_buffer>:
fifo_write_buffer():
E:/CODE/C/ch32v307/CHV307_Library/Example/libraries/zf_common/zf_common_fifo.c:112
// @param       length          需要写入的数据长度
// @return      fifo_state_enum 操作状态
// Sample usage:                if(fifo_write(&fifo,data,32)!=FIFO_SUCCESS) while(1);
//-------------------------------------------------------------------------------------------------------------------
fifo_state_enum fifo_write_buffer (fifo_struct *fifo, uint8 *dat, uint32 length)
{
    13f2:	7179                	addi	sp,sp,-48
    13f4:	d606                	sw	ra,44(sp)
    13f6:	d422                	sw	s0,40(sp)
    13f8:	1800                	addi	s0,sp,48
    13fa:	fca42e23          	sw	a0,-36(s0)
    13fe:	fcb42c23          	sw	a1,-40(s0)
    1402:	fcc42a23          	sw	a2,-44(s0)
E:/CODE/C/ch32v307/CHV307_Library/Example/libraries/zf_common/zf_common_fifo.c:115
    uint32 temp_length;
    
    if(length < fifo->size)                                                     // 剩余空间足够装下本次数据
    1406:	fdc42783          	lw	a5,-36(s0)
    140a:	47dc                	lw	a5,12(a5)
    140c:	fd442703          	lw	a4,-44(s0)
    1410:	0cf77b63          	bgeu	a4,a5,14e6 <fifo_write_buffer+0xf4>
E:/CODE/C/ch32v307/CHV307_Library/Example/libraries/zf_common/zf_common_fifo.c:117
    {
        interrupt_global_disable();
    1414:	2a5d                	jal	15ca <interrupt_global_disable>
E:/CODE/C/ch32v307/CHV307_Library/Example/libraries/zf_common/zf_common_fifo.c:118
        temp_length = fifo->max - fifo->head;                                   // 计算头指针距离缓冲区尾还有多少空间
    1416:	fdc42783          	lw	a5,-36(s0)
    141a:	4b98                	lw	a4,16(a5)
    141c:	fdc42783          	lw	a5,-36(s0)
    1420:	43dc                	lw	a5,4(a5)
    1422:	40f707b3          	sub	a5,a4,a5
    1426:	fef42623          	sw	a5,-20(s0)
E:/CODE/C/ch32v307/CHV307_Library/Example/libraries/zf_common/zf_common_fifo.c:120

        if(length > temp_length)                                                // 距离缓冲区尾长度不足写入数据 环形缓冲区分段操作
    142a:	fd442703          	lw	a4,-44(s0)
    142e:	fec42783          	lw	a5,-20(s0)
    1432:	06e7fb63          	bgeu	a5,a4,14a8 <fifo_write_buffer+0xb6>
E:/CODE/C/ch32v307/CHV307_Library/Example/libraries/zf_common/zf_common_fifo.c:122
        {
            memcpy(&fifo->buffer[fifo->head], dat, temp_length);                // 拷贝第一段数据
    1436:	fdc42783          	lw	a5,-36(s0)
    143a:	4398                	lw	a4,0(a5)
    143c:	fdc42783          	lw	a5,-36(s0)
    1440:	43dc                	lw	a5,4(a5)
    1442:	97ba                	add	a5,a5,a4
    1444:	fec42603          	lw	a2,-20(s0)
    1448:	fd842583          	lw	a1,-40(s0)
    144c:	853e                	mv	a0,a5
    144e:	7ae040ef          	jal	ra,5bfc <memcpy>
E:/CODE/C/ch32v307/CHV307_Library/Example/libraries/zf_common/zf_common_fifo.c:123
            fifo_head_offset(fifo, temp_length);                                // 头指针偏移
    1452:	fec42583          	lw	a1,-20(s0)
    1456:	fdc42503          	lw	a0,-36(s0)
    145a:	37a9                	jal	13a4 <fifo_head_offset>
E:/CODE/C/ch32v307/CHV307_Library/Example/libraries/zf_common/zf_common_fifo.c:124
            dat += temp_length;                                                 // 读取缓冲偏移
    145c:	fd842703          	lw	a4,-40(s0)
    1460:	fec42783          	lw	a5,-20(s0)
    1464:	97ba                	add	a5,a5,a4
    1466:	fcf42c23          	sw	a5,-40(s0)
E:/CODE/C/ch32v307/CHV307_Library/Example/libraries/zf_common/zf_common_fifo.c:125
            memcpy(&fifo->buffer[fifo->head], dat, length - temp_length);       // 拷贝第一段数据
    146a:	fdc42783          	lw	a5,-36(s0)
    146e:	4398                	lw	a4,0(a5)
    1470:	fdc42783          	lw	a5,-36(s0)
    1474:	43dc                	lw	a5,4(a5)
    1476:	00f706b3          	add	a3,a4,a5
    147a:	fd442703          	lw	a4,-44(s0)
    147e:	fec42783          	lw	a5,-20(s0)
    1482:	40f707b3          	sub	a5,a4,a5
    1486:	863e                	mv	a2,a5
    1488:	fd842583          	lw	a1,-40(s0)
    148c:	8536                	mv	a0,a3
    148e:	76e040ef          	jal	ra,5bfc <memcpy>
E:/CODE/C/ch32v307/CHV307_Library/Example/libraries/zf_common/zf_common_fifo.c:126
            fifo_head_offset(fifo, length - temp_length);                       // 头指针偏移
    1492:	fd442703          	lw	a4,-44(s0)
    1496:	fec42783          	lw	a5,-20(s0)
    149a:	40f707b3          	sub	a5,a4,a5
    149e:	85be                	mv	a1,a5
    14a0:	fdc42503          	lw	a0,-36(s0)
    14a4:	3701                	jal	13a4 <fifo_head_offset>
    14a6:	a025                	j	14ce <fifo_write_buffer+0xdc>
E:/CODE/C/ch32v307/CHV307_Library/Example/libraries/zf_common/zf_common_fifo.c:130
        }
        else
        {
            memcpy(&fifo->buffer[fifo->head], dat, length);                     // 一次完整写入
    14a8:	fdc42783          	lw	a5,-36(s0)
    14ac:	4398                	lw	a4,0(a5)
    14ae:	fdc42783          	lw	a5,-36(s0)
    14b2:	43dc                	lw	a5,4(a5)
    14b4:	97ba                	add	a5,a5,a4
    14b6:	fd442603          	lw	a2,-44(s0)
    14ba:	fd842583          	lw	a1,-40(s0)
    14be:	853e                	mv	a0,a5
    14c0:	73c040ef          	jal	ra,5bfc <memcpy>
E:/CODE/C/ch32v307/CHV307_Library/Example/libraries/zf_common/zf_common_fifo.c:131
            fifo_head_offset(fifo, length);                                     // 头指针偏移
    14c4:	fd442583          	lw	a1,-44(s0)
    14c8:	fdc42503          	lw	a0,-36(s0)
    14cc:	3de1                	jal	13a4 <fifo_head_offset>
E:/CODE/C/ch32v307/CHV307_Library/Example/libraries/zf_common/zf_common_fifo.c:134
        }

        fifo->size -= length;                                                   // 缓冲区剩余长度减小
    14ce:	fdc42783          	lw	a5,-36(s0)
    14d2:	47d8                	lw	a4,12(a5)
    14d4:	fd442783          	lw	a5,-44(s0)
    14d8:	8f1d                	sub	a4,a4,a5
    14da:	fdc42783          	lw	a5,-36(s0)
    14de:	c7d8                	sw	a4,12(a5)
E:/CODE/C/ch32v307/CHV307_Library/Example/libraries/zf_common/zf_common_fifo.c:135
        interrupt_global_enable();
    14e0:	2875                	jal	159c <interrupt_global_enable>
E:/CODE/C/ch32v307/CHV307_Library/Example/libraries/zf_common/zf_common_fifo.c:142
    else
    {
        return FIFO_SPACE_NO_ENOUGH;
    }
    
    return FIFO_SUCCESS;
    14e2:	4781                	li	a5,0
    14e4:	a011                	j	14e8 <fifo_write_buffer+0xf6>
E:/CODE/C/ch32v307/CHV307_Library/Example/libraries/zf_common/zf_common_fifo.c:139
        return FIFO_SPACE_NO_ENOUGH;
    14e6:	4789                	li	a5,2
E:/CODE/C/ch32v307/CHV307_Library/Example/libraries/zf_common/zf_common_fifo.c:143
}
    14e8:	853e                	mv	a0,a5
    14ea:	50b2                	lw	ra,44(sp)
    14ec:	5422                	lw	s0,40(sp)
    14ee:	6145                	addi	sp,sp,48
    14f0:	8082                	ret

000014f2 <NVIC_EnableIRQ>:
NVIC_EnableIRQ():
E:\CODE\C\ch32v307\CHV307_Library\Example\libraries\sdk\Core/core_riscv.h:129
* Function Name  : NVIC_EnableIRQ
* Description    : Enable Interrupt
* Input          : IRQn: Interrupt Numbers
* Return         : None
*******************************************************************************/
RV_STATIC_INLINE void NVIC_EnableIRQ(IRQn_Type IRQn){
    14f2:	1101                	addi	sp,sp,-32
    14f4:	ce22                	sw	s0,28(sp)
    14f6:	1000                	addi	s0,sp,32
    14f8:	fea42623          	sw	a0,-20(s0)
E:\CODE\C\ch32v307\CHV307_Library\Example\libraries\sdk\Core/core_riscv.h:130
  NVIC->IENR[((uint32_t)(IRQn) >> 5)] = (1 << ((uint32_t)(IRQn) & 0x1F));
    14fc:	fec42783          	lw	a5,-20(s0)
    1500:	8bfd                	andi	a5,a5,31
    1502:	4705                	li	a4,1
    1504:	00f716b3          	sll	a3,a4,a5
    1508:	e000e737          	lui	a4,0xe000e
    150c:	fec42783          	lw	a5,-20(s0)
    1510:	8395                	srli	a5,a5,0x5
    1512:	04078793          	addi	a5,a5,64
    1516:	078a                	slli	a5,a5,0x2
    1518:	97ba                	add	a5,a5,a4
    151a:	c394                	sw	a3,0(a5)
E:\CODE\C\ch32v307\CHV307_Library\Example\libraries\sdk\Core/core_riscv.h:131
}
    151c:	0001                	nop
    151e:	4472                	lw	s0,28(sp)
    1520:	6105                	addi	sp,sp,32
    1522:	8082                	ret

00001524 <NVIC_DisableIRQ>:
NVIC_DisableIRQ():
E:\CODE\C\ch32v307\CHV307_Library\Example\libraries\sdk\Core/core_riscv.h:140
* Description    : Disable Interrupt
* Input          : IRQn: Interrupt Numbers
* Return         : None
*******************************************************************************/
RV_STATIC_INLINE void NVIC_DisableIRQ(IRQn_Type IRQn)
{
    1524:	1101                	addi	sp,sp,-32
    1526:	ce22                	sw	s0,28(sp)
    1528:	1000                	addi	s0,sp,32
    152a:	fea42623          	sw	a0,-20(s0)
E:\CODE\C\ch32v307\CHV307_Library\Example\libraries\sdk\Core/core_riscv.h:141
  NVIC->IRER[((uint32_t)(IRQn) >> 5)] = (1 << ((uint32_t)(IRQn) & 0x1F));
    152e:	fec42783          	lw	a5,-20(s0)
    1532:	8bfd                	andi	a5,a5,31
    1534:	4705                	li	a4,1
    1536:	00f716b3          	sll	a3,a4,a5
    153a:	e000e737          	lui	a4,0xe000e
    153e:	fec42783          	lw	a5,-20(s0)
    1542:	8395                	srli	a5,a5,0x5
    1544:	06078793          	addi	a5,a5,96
    1548:	078a                	slli	a5,a5,0x2
    154a:	97ba                	add	a5,a5,a4
    154c:	c394                	sw	a3,0(a5)
E:\CODE\C\ch32v307\CHV307_Library\Example\libraries\sdk\Core/core_riscv.h:142
}
    154e:	0001                	nop
    1550:	4472                	lw	s0,28(sp)
    1552:	6105                	addi	sp,sp,32
    1554:	8082                	ret

00001556 <interrupt_enable>:
interrupt_enable():
E:/CODE/C/ch32v307/CHV307_Library/Example/libraries/zf_common/zf_common_interrupt.c:34
// @param       irqn            指定中断号 可查看 isr.c 对应中断服务函数的标注
// @return      void
// Sample usage:                interrupt_enable(UART1_IRQn);
//-------------------------------------------------------------------------------------------------------------------
void interrupt_enable (IRQn_Type irqn)
{
    1556:	1101                	addi	sp,sp,-32
    1558:	ce06                	sw	ra,28(sp)
    155a:	cc22                	sw	s0,24(sp)
    155c:	1000                	addi	s0,sp,32
    155e:	fea42623          	sw	a0,-20(s0)
E:/CODE/C/ch32v307/CHV307_Library/Example/libraries/zf_common/zf_common_interrupt.c:35
    NVIC_EnableIRQ(irqn);
    1562:	fec42503          	lw	a0,-20(s0)
    1566:	3771                	jal	14f2 <NVIC_EnableIRQ>
E:/CODE/C/ch32v307/CHV307_Library/Example/libraries/zf_common/zf_common_interrupt.c:36
}
    1568:	0001                	nop
    156a:	40f2                	lw	ra,28(sp)
    156c:	4462                	lw	s0,24(sp)
    156e:	6105                	addi	sp,sp,32
    1570:	8082                	ret

00001572 <interrupt_disable>:
interrupt_disable():
E:/CODE/C/ch32v307/CHV307_Library/Example/libraries/zf_common/zf_common_interrupt.c:45
// @param       irqn            指定中断号 可查看 isr.c 对应中断服务函数的标注
// @return      void
// Sample usage:                interrupt_disable(UART1_IRQn);
//-------------------------------------------------------------------------------------------------------------------
void interrupt_disable (IRQn_Type irqn)
{
    1572:	1101                	addi	sp,sp,-32
    1574:	ce06                	sw	ra,28(sp)
    1576:	cc22                	sw	s0,24(sp)
    1578:	1000                	addi	s0,sp,32
    157a:	fea42623          	sw	a0,-20(s0)
E:/CODE/C/ch32v307/CHV307_Library/Example/libraries/zf_common/zf_common_interrupt.c:46
    NVIC_DisableIRQ(irqn);
    157e:	fec42503          	lw	a0,-20(s0)
    1582:	374d                	jal	1524 <NVIC_DisableIRQ>
E:/CODE/C/ch32v307/CHV307_Library/Example/libraries/zf_common/zf_common_interrupt.c:47
}
    1584:	0001                	nop
    1586:	40f2                	lw	ra,28(sp)
    1588:	4462                	lw	s0,24(sp)
    158a:	6105                	addi	sp,sp,32
    158c:	8082                	ret

0000158e <interrupt_init>:
interrupt_init():
E:/CODE/C/ch32v307/CHV307_Library/Example/libraries/zf_common/zf_common_interrupt.c:69
// @param       void
// @return      void
// Sample usage:                interrupt_init();
//-------------------------------------------------------------------------------------------------------------------
void interrupt_init (void)
{
    158e:	1141                	addi	sp,sp,-16
    1590:	c622                	sw	s0,12(sp)
    1592:	0800                	addi	s0,sp,16
E:/CODE/C/ch32v307/CHV307_Library/Example/libraries/zf_common/zf_common_interrupt.c:72
    //NVIC_SetPriorityGrouping(4);

}
    1594:	0001                	nop
    1596:	4432                	lw	s0,12(sp)
    1598:	0141                	addi	sp,sp,16
    159a:	8082                	ret

0000159c <interrupt_global_enable>:
interrupt_global_enable():
E:/CODE/C/ch32v307/CHV307_Library/Example/libraries/zf_common/zf_common_interrupt.c:81
// @param       void            还原的嵌套层 如果传入 0 则直接清空嵌套层数开启总中断
// @return      void
// Sample usage:                interrupt_global_enable();
//-------------------------------------------------------------------------------------------------------------------
void interrupt_global_enable (void)
{
    159c:	1141                	addi	sp,sp,-16
    159e:	c606                	sw	ra,12(sp)
    15a0:	c422                	sw	s0,8(sp)
    15a2:	0800                	addi	s0,sp,16
E:/CODE/C/ch32v307/CHV307_Library/Example/libraries/zf_common/zf_common_interrupt.c:82
    if(interrupt_nest_count)
    15a4:	8601a783          	lw	a5,-1952(gp) # 20000280 <interrupt_nest_count>
    15a8:	c799                	beqz	a5,15b6 <interrupt_global_enable+0x1a>
E:/CODE/C/ch32v307/CHV307_Library/Example/libraries/zf_common/zf_common_interrupt.c:83
        interrupt_nest_count--;
    15aa:	8601a783          	lw	a5,-1952(gp) # 20000280 <interrupt_nest_count>
    15ae:	fff78713          	addi	a4,a5,-1
    15b2:	86e1a023          	sw	a4,-1952(gp) # 20000280 <interrupt_nest_count>
E:/CODE/C/ch32v307/CHV307_Library/Example/libraries/zf_common/zf_common_interrupt.c:85

    if(interrupt_nest_count == 0)
    15b6:	8601a783          	lw	a5,-1952(gp) # 20000280 <interrupt_nest_count>
    15ba:	e399                	bnez	a5,15c0 <interrupt_global_enable+0x24>
E:/CODE/C/ch32v307/CHV307_Library/Example/libraries/zf_common/zf_common_interrupt.c:88
    {
        extern void en_interrupt();
        en_interrupt();
    15bc:	c4bfe0ef          	jal	ra,206 <en_interrupt>
E:/CODE/C/ch32v307/CHV307_Library/Example/libraries/zf_common/zf_common_interrupt.c:90
    }
}
    15c0:	0001                	nop
    15c2:	40b2                	lw	ra,12(sp)
    15c4:	4422                	lw	s0,8(sp)
    15c6:	0141                	addi	sp,sp,16
    15c8:	8082                	ret

000015ca <interrupt_global_disable>:
interrupt_global_disable():
E:/CODE/C/ch32v307/CHV307_Library/Example/libraries/zf_common/zf_common_interrupt.c:99
// @param       void
// @return      void
// Sample usage:                interrupt_disable_all();
//-------------------------------------------------------------------------------------------------------------------
void interrupt_global_disable (void)
{
    15ca:	1141                	addi	sp,sp,-16
    15cc:	c606                	sw	ra,12(sp)
    15ce:	c422                	sw	s0,8(sp)
    15d0:	0800                	addi	s0,sp,16
E:/CODE/C/ch32v307/CHV307_Library/Example/libraries/zf_common/zf_common_interrupt.c:100
    if(!interrupt_nest_count)
    15d2:	8601a783          	lw	a5,-1952(gp) # 20000280 <interrupt_nest_count>
    15d6:	e399                	bnez	a5,15dc <interrupt_global_disable+0x12>
E:/CODE/C/ch32v307/CHV307_Library/Example/libraries/zf_common/zf_common_interrupt.c:103
    {
        extern void dis_interrupt();
        dis_interrupt();
    15d8:	c29fe0ef          	jal	ra,200 <dis_interrupt>
E:/CODE/C/ch32v307/CHV307_Library/Example/libraries/zf_common/zf_common_interrupt.c:105
    }
    interrupt_nest_count++;
    15dc:	8601a783          	lw	a5,-1952(gp) # 20000280 <interrupt_nest_count>
    15e0:	00178713          	addi	a4,a5,1
    15e4:	86e1a023          	sw	a4,-1952(gp) # 20000280 <interrupt_nest_count>
E:/CODE/C/ch32v307/CHV307_Library/Example/libraries/zf_common/zf_common_interrupt.c:110
    //返回当前mstatus寄存器的值
//    uint32 temp;
//    temp = __get_MSTATUS();
//    return temp;
}
    15e8:	0001                	nop
    15ea:	40b2                	lw	ra,12(sp)
    15ec:	4422                	lw	s0,8(sp)
    15ee:	0141                	addi	sp,sp,16
    15f0:	8082                	ret

000015f2 <USART1_IRQHandler>:
USART1_IRQHandler():
E:/CODE/C/ch32v307/CHV307_Library/Example/8-Flash Demo/user/src/isr.c:65
void EXTI4_IRQHandler(void) __attribute__((interrupt("WCH-Interrupt-fast")));
void EXTI9_5_IRQHandler(void) __attribute__((interrupt("WCH-Interrupt-fast")));
void EXTI15_10_IRQHandler(void) __attribute__((interrupt("WCH-Interrupt-fast")));

void USART1_IRQHandler(void)
{
    15f2:	1141                	addi	sp,sp,-16
    15f4:	c622                	sw	s0,12(sp)
    15f6:	0800                	addi	s0,sp,16
E:/CODE/C/ch32v307/CHV307_Library/Example/8-Flash Demo/user/src/isr.c:66
    if(USART_GetITStatus(USART1, USART_IT_RXNE) != RESET)
    15f8:	52500593          	li	a1,1317
    15fc:	400147b7          	lui	a5,0x40014
    1600:	80078513          	addi	a0,a5,-2048 # 40013800 <_eusrstack+0x20003800>
    1604:	2ff010ef          	jal	ra,3102 <USART_GetITStatus>
    1608:	87aa                	mv	a5,a0
    160a:	cb89                	beqz	a5,161c <USART1_IRQHandler+0x2a>
E:/CODE/C/ch32v307/CHV307_Library/Example/8-Flash Demo/user/src/isr.c:69
    {

        USART_ClearITPendingBit(USART1, USART_IT_RXNE);
    160c:	52500593          	li	a1,1317
    1610:	400147b7          	lui	a5,0x40014
    1614:	80078513          	addi	a0,a5,-2048 # 40013800 <_eusrstack+0x20003800>
    1618:	3ed010ef          	jal	ra,3204 <USART_ClearITPendingBit>
E:/CODE/C/ch32v307/CHV307_Library/Example/8-Flash Demo/user/src/isr.c:71
    }
}
    161c:	0001                	nop
    161e:	4432                	lw	s0,12(sp)
    1620:	0141                	addi	sp,sp,16
    1622:	30200073          	mret

00001626 <USART2_IRQHandler>:
USART2_IRQHandler():
E:/CODE/C/ch32v307/CHV307_Library/Example/8-Flash Demo/user/src/isr.c:73
void USART2_IRQHandler(void)
{
    1626:	1141                	addi	sp,sp,-16
    1628:	c622                	sw	s0,12(sp)
    162a:	0800                	addi	s0,sp,16
E:/CODE/C/ch32v307/CHV307_Library/Example/8-Flash Demo/user/src/isr.c:74
    if(USART_GetITStatus(USART2, USART_IT_RXNE) != RESET)
    162c:	52500593          	li	a1,1317
    1630:	400047b7          	lui	a5,0x40004
    1634:	40078513          	addi	a0,a5,1024 # 40004400 <_eusrstack+0x1fff4400>
    1638:	2cb010ef          	jal	ra,3102 <USART_GetITStatus>
    163c:	87aa                	mv	a5,a0
    163e:	c3a1                	beqz	a5,167e <USART2_IRQHandler+0x58>
E:/CODE/C/ch32v307/CHV307_Library/Example/8-Flash Demo/user/src/isr.c:76
    {
        if(wireless_type == WIRELESS_UART)
    1640:	8501a703          	lw	a4,-1968(gp) # 20000270 <wireless_type>
    1644:	4785                	li	a5,1
    1646:	00f71563          	bne	a4,a5,1650 <USART2_IRQHandler+0x2a>
E:/CODE/C/ch32v307/CHV307_Library/Example/8-Flash Demo/user/src/isr.c:78
        {
            wireless_uart_callback();
    164a:	987ff0ef          	jal	ra,fd0 <wireless_uart_callback>
    164e:	a005                	j	166e <USART2_IRQHandler+0x48>
E:/CODE/C/ch32v307/CHV307_Library/Example/8-Flash Demo/user/src/isr.c:80
        }
        else if(wireless_type == BLUETOOTH_CH9141)
    1650:	8501a703          	lw	a4,-1968(gp) # 20000270 <wireless_type>
    1654:	4789                	li	a5,2
    1656:	00f71563          	bne	a4,a5,1660 <USART2_IRQHandler+0x3a>
E:/CODE/C/ch32v307/CHV307_Library/Example/8-Flash Demo/user/src/isr.c:82
        {
            bluetooth_ch9141_uart_callback_ch2();
    165a:	f8cff0ef          	jal	ra,de6 <bluetooth_ch9141_uart_callback_ch2>
    165e:	a801                	j	166e <USART2_IRQHandler+0x48>
E:/CODE/C/ch32v307/CHV307_Library/Example/8-Flash Demo/user/src/isr.c:84
        }
        else if(wireless_type == WIRELESS_CH573)
    1660:	8501a703          	lw	a4,-1968(gp) # 20000270 <wireless_type>
    1664:	478d                	li	a5,3
    1666:	00f71463          	bne	a4,a5,166e <USART2_IRQHandler+0x48>
E:/CODE/C/ch32v307/CHV307_Library/Example/8-Flash Demo/user/src/isr.c:86
        {
            wireless_ch573_callback();
    166a:	941ff0ef          	jal	ra,faa <wireless_ch573_callback>
E:/CODE/C/ch32v307/CHV307_Library/Example/8-Flash Demo/user/src/isr.c:88
        }
        USART_ClearITPendingBit(USART2, USART_IT_RXNE);
    166e:	52500593          	li	a1,1317
    1672:	400047b7          	lui	a5,0x40004
    1676:	40078513          	addi	a0,a5,1024 # 40004400 <_eusrstack+0x1fff4400>
    167a:	38b010ef          	jal	ra,3204 <USART_ClearITPendingBit>
E:/CODE/C/ch32v307/CHV307_Library/Example/8-Flash Demo/user/src/isr.c:90
    }
}
    167e:	0001                	nop
    1680:	4432                	lw	s0,12(sp)
    1682:	0141                	addi	sp,sp,16
    1684:	30200073          	mret

00001688 <USART3_IRQHandler>:
USART3_IRQHandler():
E:/CODE/C/ch32v307/CHV307_Library/Example/8-Flash Demo/user/src/isr.c:92
void USART3_IRQHandler(void)
{
    1688:	1141                	addi	sp,sp,-16
    168a:	c622                	sw	s0,12(sp)
    168c:	0800                	addi	s0,sp,16
E:/CODE/C/ch32v307/CHV307_Library/Example/8-Flash Demo/user/src/isr.c:93
    if(USART_GetITStatus(USART3, USART_IT_RXNE) != RESET)
    168e:	52500593          	li	a1,1317
    1692:	400057b7          	lui	a5,0x40005
    1696:	80078513          	addi	a0,a5,-2048 # 40004800 <_eusrstack+0x1fff4800>
    169a:	269010ef          	jal	ra,3102 <USART_GetITStatus>
    169e:	87aa                	mv	a5,a0
    16a0:	cb89                	beqz	a5,16b2 <USART3_IRQHandler+0x2a>
E:/CODE/C/ch32v307/CHV307_Library/Example/8-Flash Demo/user/src/isr.c:96
    {

        USART_ClearITPendingBit(USART3, USART_IT_RXNE);
    16a2:	52500593          	li	a1,1317
    16a6:	400057b7          	lui	a5,0x40005
    16aa:	80078513          	addi	a0,a5,-2048 # 40004800 <_eusrstack+0x1fff4800>
    16ae:	357010ef          	jal	ra,3204 <USART_ClearITPendingBit>
E:/CODE/C/ch32v307/CHV307_Library/Example/8-Flash Demo/user/src/isr.c:98
    }
}
    16b2:	0001                	nop
    16b4:	4432                	lw	s0,12(sp)
    16b6:	0141                	addi	sp,sp,16
    16b8:	30200073          	mret

000016bc <UART4_IRQHandler>:
UART4_IRQHandler():
E:/CODE/C/ch32v307/CHV307_Library/Example/8-Flash Demo/user/src/isr.c:100
void UART4_IRQHandler (void)
{
    16bc:	1141                	addi	sp,sp,-16
    16be:	c622                	sw	s0,12(sp)
    16c0:	0800                	addi	s0,sp,16
E:/CODE/C/ch32v307/CHV307_Library/Example/8-Flash Demo/user/src/isr.c:101
    if(USART_GetITStatus(UART4, USART_IT_RXNE) != RESET)
    16c2:	52500593          	li	a1,1317
    16c6:	400057b7          	lui	a5,0x40005
    16ca:	c0078513          	addi	a0,a5,-1024 # 40004c00 <_eusrstack+0x1fff4c00>
    16ce:	235010ef          	jal	ra,3102 <USART_GetITStatus>
    16d2:	87aa                	mv	a5,a0
    16d4:	cb89                	beqz	a5,16e6 <UART4_IRQHandler+0x2a>
E:/CODE/C/ch32v307/CHV307_Library/Example/8-Flash Demo/user/src/isr.c:104
    {

        USART_ClearITPendingBit(UART4, USART_IT_RXNE);
    16d6:	52500593          	li	a1,1317
    16da:	400057b7          	lui	a5,0x40005
    16de:	c0078513          	addi	a0,a5,-1024 # 40004c00 <_eusrstack+0x1fff4c00>
    16e2:	323010ef          	jal	ra,3204 <USART_ClearITPendingBit>
E:/CODE/C/ch32v307/CHV307_Library/Example/8-Flash Demo/user/src/isr.c:106
    }
}
    16e6:	0001                	nop
    16e8:	4432                	lw	s0,12(sp)
    16ea:	0141                	addi	sp,sp,16
    16ec:	30200073          	mret

000016f0 <UART5_IRQHandler>:
UART5_IRQHandler():
E:/CODE/C/ch32v307/CHV307_Library/Example/8-Flash Demo/user/src/isr.c:108
void UART5_IRQHandler (void)
{
    16f0:	1141                	addi	sp,sp,-16
    16f2:	c622                	sw	s0,12(sp)
    16f4:	0800                	addi	s0,sp,16
E:/CODE/C/ch32v307/CHV307_Library/Example/8-Flash Demo/user/src/isr.c:109
    if(USART_GetITStatus(UART5, USART_IT_RXNE) != RESET)
    16f6:	52500593          	li	a1,1317
    16fa:	40005537          	lui	a0,0x40005
    16fe:	205010ef          	jal	ra,3102 <USART_GetITStatus>
    1702:	87aa                	mv	a5,a0
    1704:	cb89                	beqz	a5,1716 <UART5_IRQHandler+0x26>
E:/CODE/C/ch32v307/CHV307_Library/Example/8-Flash Demo/user/src/isr.c:111
    {
        camera_uart_handler();
    1706:	f06ff0ef          	jal	ra,e0c <camera_uart_handler>
E:/CODE/C/ch32v307/CHV307_Library/Example/8-Flash Demo/user/src/isr.c:112
        USART_ClearITPendingBit(UART5, USART_IT_RXNE);
    170a:	52500593          	li	a1,1317
    170e:	40005537          	lui	a0,0x40005
    1712:	2f3010ef          	jal	ra,3204 <USART_ClearITPendingBit>
E:/CODE/C/ch32v307/CHV307_Library/Example/8-Flash Demo/user/src/isr.c:114
    }
}
    1716:	0001                	nop
    1718:	4432                	lw	s0,12(sp)
    171a:	0141                	addi	sp,sp,16
    171c:	30200073          	mret

00001720 <UART6_IRQHandler>:
UART6_IRQHandler():
E:/CODE/C/ch32v307/CHV307_Library/Example/8-Flash Demo/user/src/isr.c:116
void UART6_IRQHandler (void)
{
    1720:	1141                	addi	sp,sp,-16
    1722:	c622                	sw	s0,12(sp)
    1724:	0800                	addi	s0,sp,16
E:/CODE/C/ch32v307/CHV307_Library/Example/8-Flash Demo/user/src/isr.c:117
    if(USART_GetITStatus(UART6, USART_IT_RXNE) != RESET)
    1726:	52500593          	li	a1,1317
    172a:	400027b7          	lui	a5,0x40002
    172e:	80078513          	addi	a0,a5,-2048 # 40001800 <_eusrstack+0x1fff1800>
    1732:	1d1010ef          	jal	ra,3102 <USART_GetITStatus>
    1736:	87aa                	mv	a5,a0
    1738:	cb89                	beqz	a5,174a <UART6_IRQHandler+0x2a>
E:/CODE/C/ch32v307/CHV307_Library/Example/8-Flash Demo/user/src/isr.c:120
    {

        USART_ClearITPendingBit(UART6, USART_IT_RXNE);
    173a:	52500593          	li	a1,1317
    173e:	400027b7          	lui	a5,0x40002
    1742:	80078513          	addi	a0,a5,-2048 # 40001800 <_eusrstack+0x1fff1800>
    1746:	2bf010ef          	jal	ra,3204 <USART_ClearITPendingBit>
E:/CODE/C/ch32v307/CHV307_Library/Example/8-Flash Demo/user/src/isr.c:122
    }
}
    174a:	0001                	nop
    174c:	4432                	lw	s0,12(sp)
    174e:	0141                	addi	sp,sp,16
    1750:	30200073          	mret

00001754 <UART7_IRQHandler>:
UART7_IRQHandler():
E:/CODE/C/ch32v307/CHV307_Library/Example/8-Flash Demo/user/src/isr.c:124
void UART7_IRQHandler (void)
{
    1754:	1141                	addi	sp,sp,-16
    1756:	c622                	sw	s0,12(sp)
    1758:	0800                	addi	s0,sp,16
E:/CODE/C/ch32v307/CHV307_Library/Example/8-Flash Demo/user/src/isr.c:125
    if(USART_GetITStatus(UART7, USART_IT_RXNE) != RESET)
    175a:	52500593          	li	a1,1317
    175e:	400027b7          	lui	a5,0x40002
    1762:	c0078513          	addi	a0,a5,-1024 # 40001c00 <_eusrstack+0x1fff1c00>
    1766:	19d010ef          	jal	ra,3102 <USART_GetITStatus>
    176a:	87aa                	mv	a5,a0
    176c:	c78d                	beqz	a5,1796 <UART7_IRQHandler+0x42>
E:/CODE/C/ch32v307/CHV307_Library/Example/8-Flash Demo/user/src/isr.c:127
    {
        if(wireless_type == WIRELESS_UART)
    176e:	8501a703          	lw	a4,-1968(gp) # 20000270 <wireless_type>
    1772:	4785                	li	a5,1
    1774:	00f70963          	beq	a4,a5,1786 <UART7_IRQHandler+0x32>
E:/CODE/C/ch32v307/CHV307_Library/Example/8-Flash Demo/user/src/isr.c:131
        {

        }
        else if(wireless_type == BLUETOOTH_CH9141)
    1778:	8501a703          	lw	a4,-1968(gp) # 20000270 <wireless_type>
    177c:	4789                	li	a5,2
    177e:	00f71463          	bne	a4,a5,1786 <UART7_IRQHandler+0x32>
E:/CODE/C/ch32v307/CHV307_Library/Example/8-Flash Demo/user/src/isr.c:133
        {
            bluetooth_ch9141_uart_callback_ch1();
    1782:	e3eff0ef          	jal	ra,dc0 <bluetooth_ch9141_uart_callback_ch1>
E:/CODE/C/ch32v307/CHV307_Library/Example/8-Flash Demo/user/src/isr.c:135
        }
        USART_ClearITPendingBit(UART7, USART_IT_RXNE);
    1786:	52500593          	li	a1,1317
    178a:	400027b7          	lui	a5,0x40002
    178e:	c0078513          	addi	a0,a5,-1024 # 40001c00 <_eusrstack+0x1fff1c00>
    1792:	273010ef          	jal	ra,3204 <USART_ClearITPendingBit>
E:/CODE/C/ch32v307/CHV307_Library/Example/8-Flash Demo/user/src/isr.c:137
    }
}
    1796:	0001                	nop
    1798:	4432                	lw	s0,12(sp)
    179a:	0141                	addi	sp,sp,16
    179c:	30200073          	mret

000017a0 <UART8_IRQHandler>:
UART8_IRQHandler():
E:/CODE/C/ch32v307/CHV307_Library/Example/8-Flash Demo/user/src/isr.c:139
void UART8_IRQHandler (void)
{
    17a0:	1141                	addi	sp,sp,-16
    17a2:	c622                	sw	s0,12(sp)
    17a4:	0800                	addi	s0,sp,16
E:/CODE/C/ch32v307/CHV307_Library/Example/8-Flash Demo/user/src/isr.c:140
    if(USART_GetITStatus(UART8, USART_IT_RXNE) != RESET)
    17a6:	52500593          	li	a1,1317
    17aa:	40002537          	lui	a0,0x40002
    17ae:	155010ef          	jal	ra,3102 <USART_GetITStatus>
    17b2:	87aa                	mv	a5,a0
    17b4:	c799                	beqz	a5,17c2 <UART8_IRQHandler+0x22>
E:/CODE/C/ch32v307/CHV307_Library/Example/8-Flash Demo/user/src/isr.c:144
    {
//        extern void uart_handler (void);
//        uart_handler();
        USART_ClearITPendingBit(UART8, USART_IT_RXNE);
    17b6:	52500593          	li	a1,1317
    17ba:	40002537          	lui	a0,0x40002
    17be:	247010ef          	jal	ra,3204 <USART_ClearITPendingBit>
E:/CODE/C/ch32v307/CHV307_Library/Example/8-Flash Demo/user/src/isr.c:146
    }
}
    17c2:	0001                	nop
    17c4:	4432                	lw	s0,12(sp)
    17c6:	0141                	addi	sp,sp,16
    17c8:	30200073          	mret

000017cc <DVP_IRQHandler>:
DVP_IRQHandler():
E:/CODE/C/ch32v307/CHV307_Library/Example/8-Flash Demo/user/src/isr.c:151



void DVP_IRQHandler(void)
{
    17cc:	1141                	addi	sp,sp,-16
    17ce:	c622                	sw	s0,12(sp)
    17d0:	0800                	addi	s0,sp,16
E:/CODE/C/ch32v307/CHV307_Library/Example/8-Flash Demo/user/src/isr.c:152
    if (DVP->IFR & RB_DVP_IF_FRM_DONE)
    17d2:	500507b7          	lui	a5,0x50050
    17d6:	0107c783          	lbu	a5,16(a5) # 50050010 <_eusrstack+0x30040010>
    17da:	0ff7f793          	andi	a5,a5,255
    17de:	8b91                	andi	a5,a5,4
    17e0:	c385                	beqz	a5,1800 <DVP_IRQHandler+0x34>
E:/CODE/C/ch32v307/CHV307_Library/Example/8-Flash Demo/user/src/isr.c:154
    {
        camera_dvp_handler();
    17e2:	e60ff0ef          	jal	ra,e42 <camera_dvp_handler>
E:/CODE/C/ch32v307/CHV307_Library/Example/8-Flash Demo/user/src/isr.c:155
        DVP->IFR &= ~RB_DVP_IF_FRM_DONE;
    17e6:	500507b7          	lui	a5,0x50050
    17ea:	0107c783          	lbu	a5,16(a5) # 50050010 <_eusrstack+0x30040010>
    17ee:	0ff7f713          	andi	a4,a5,255
    17f2:	500507b7          	lui	a5,0x50050
    17f6:	9b6d                	andi	a4,a4,-5
    17f8:	0ff77713          	andi	a4,a4,255
    17fc:	00e78823          	sb	a4,16(a5) # 50050010 <_eusrstack+0x30040010>
E:/CODE/C/ch32v307/CHV307_Library/Example/8-Flash Demo/user/src/isr.c:157
    }
}
    1800:	0001                	nop
    1802:	4432                	lw	s0,12(sp)
    1804:	0141                	addi	sp,sp,16
    1806:	30200073          	mret

0000180a <EXTI0_IRQHandler>:
EXTI0_IRQHandler():
E:/CODE/C/ch32v307/CHV307_Library/Example/8-Flash Demo/user/src/isr.c:159
void EXTI0_IRQHandler(void)
{
    180a:	1141                	addi	sp,sp,-16
    180c:	c622                	sw	s0,12(sp)
    180e:	0800                	addi	s0,sp,16
E:/CODE/C/ch32v307/CHV307_Library/Example/8-Flash Demo/user/src/isr.c:160
    if(SET == EXTI_GetITStatus(EXTI_Line0))
    1810:	4505                	li	a0,1
    1812:	2df000ef          	jal	ra,22f0 <EXTI_GetITStatus>
    1816:	872a                	mv	a4,a0
    1818:	4785                	li	a5,1
    181a:	00f71563          	bne	a4,a5,1824 <EXTI0_IRQHandler+0x1a>
E:/CODE/C/ch32v307/CHV307_Library/Example/8-Flash Demo/user/src/isr.c:162
    {
        EXTI_ClearITPendingBit(EXTI_Line0);
    181e:	4505                	li	a0,1
    1820:	327000ef          	jal	ra,2346 <EXTI_ClearITPendingBit>
E:/CODE/C/ch32v307/CHV307_Library/Example/8-Flash Demo/user/src/isr.c:165

    }
}
    1824:	0001                	nop
    1826:	4432                	lw	s0,12(sp)
    1828:	0141                	addi	sp,sp,16
    182a:	30200073          	mret

0000182e <EXTI1_IRQHandler>:
EXTI1_IRQHandler():
E:/CODE/C/ch32v307/CHV307_Library/Example/8-Flash Demo/user/src/isr.c:168

void EXTI1_IRQHandler(void)
{
    182e:	1141                	addi	sp,sp,-16
    1830:	c622                	sw	s0,12(sp)
    1832:	0800                	addi	s0,sp,16
E:/CODE/C/ch32v307/CHV307_Library/Example/8-Flash Demo/user/src/isr.c:169
    if(SET == EXTI_GetITStatus(EXTI_Line1))
    1834:	4509                	li	a0,2
    1836:	2bb000ef          	jal	ra,22f0 <EXTI_GetITStatus>
    183a:	872a                	mv	a4,a0
    183c:	4785                	li	a5,1
    183e:	00f71563          	bne	a4,a5,1848 <EXTI1_IRQHandler+0x1a>
E:/CODE/C/ch32v307/CHV307_Library/Example/8-Flash Demo/user/src/isr.c:171
    {
        EXTI_ClearITPendingBit(EXTI_Line1);
    1842:	4509                	li	a0,2
    1844:	303000ef          	jal	ra,2346 <EXTI_ClearITPendingBit>
E:/CODE/C/ch32v307/CHV307_Library/Example/8-Flash Demo/user/src/isr.c:174

    }
}
    1848:	0001                	nop
    184a:	4432                	lw	s0,12(sp)
    184c:	0141                	addi	sp,sp,16
    184e:	30200073          	mret

00001852 <EXTI2_IRQHandler>:
EXTI2_IRQHandler():
E:/CODE/C/ch32v307/CHV307_Library/Example/8-Flash Demo/user/src/isr.c:177

void EXTI2_IRQHandler(void)
{
    1852:	1141                	addi	sp,sp,-16
    1854:	c622                	sw	s0,12(sp)
    1856:	0800                	addi	s0,sp,16
E:/CODE/C/ch32v307/CHV307_Library/Example/8-Flash Demo/user/src/isr.c:178
    if(SET == EXTI_GetITStatus(EXTI_Line2))
    1858:	4511                	li	a0,4
    185a:	297000ef          	jal	ra,22f0 <EXTI_GetITStatus>
    185e:	872a                	mv	a4,a0
    1860:	4785                	li	a5,1
    1862:	00f71563          	bne	a4,a5,186c <EXTI2_IRQHandler+0x1a>
E:/CODE/C/ch32v307/CHV307_Library/Example/8-Flash Demo/user/src/isr.c:180
    {
        EXTI_ClearITPendingBit(EXTI_Line2);
    1866:	4511                	li	a0,4
    1868:	2df000ef          	jal	ra,2346 <EXTI_ClearITPendingBit>
E:/CODE/C/ch32v307/CHV307_Library/Example/8-Flash Demo/user/src/isr.c:183

    }
}
    186c:	0001                	nop
    186e:	4432                	lw	s0,12(sp)
    1870:	0141                	addi	sp,sp,16
    1872:	30200073          	mret

00001876 <EXTI3_IRQHandler>:
EXTI3_IRQHandler():
E:/CODE/C/ch32v307/CHV307_Library/Example/8-Flash Demo/user/src/isr.c:186

void EXTI3_IRQHandler(void)
{
    1876:	1141                	addi	sp,sp,-16
    1878:	c622                	sw	s0,12(sp)
    187a:	0800                	addi	s0,sp,16
E:/CODE/C/ch32v307/CHV307_Library/Example/8-Flash Demo/user/src/isr.c:187
    if(SET == EXTI_GetITStatus(EXTI_Line3))
    187c:	4521                	li	a0,8
    187e:	273000ef          	jal	ra,22f0 <EXTI_GetITStatus>
    1882:	872a                	mv	a4,a0
    1884:	4785                	li	a5,1
    1886:	00f71563          	bne	a4,a5,1890 <EXTI3_IRQHandler+0x1a>
E:/CODE/C/ch32v307/CHV307_Library/Example/8-Flash Demo/user/src/isr.c:189
    {
        EXTI_ClearITPendingBit(EXTI_Line3);
    188a:	4521                	li	a0,8
    188c:	2bb000ef          	jal	ra,2346 <EXTI_ClearITPendingBit>
E:/CODE/C/ch32v307/CHV307_Library/Example/8-Flash Demo/user/src/isr.c:192

    }
}
    1890:	0001                	nop
    1892:	4432                	lw	s0,12(sp)
    1894:	0141                	addi	sp,sp,16
    1896:	30200073          	mret

0000189a <EXTI4_IRQHandler>:
EXTI4_IRQHandler():
E:/CODE/C/ch32v307/CHV307_Library/Example/8-Flash Demo/user/src/isr.c:195

void EXTI4_IRQHandler(void)
{
    189a:	1141                	addi	sp,sp,-16
    189c:	c622                	sw	s0,12(sp)
    189e:	0800                	addi	s0,sp,16
E:/CODE/C/ch32v307/CHV307_Library/Example/8-Flash Demo/user/src/isr.c:196
    if(SET == EXTI_GetITStatus(EXTI_Line4))
    18a0:	4541                	li	a0,16
    18a2:	24f000ef          	jal	ra,22f0 <EXTI_GetITStatus>
    18a6:	872a                	mv	a4,a0
    18a8:	4785                	li	a5,1
    18aa:	00f71563          	bne	a4,a5,18b4 <EXTI4_IRQHandler+0x1a>
E:/CODE/C/ch32v307/CHV307_Library/Example/8-Flash Demo/user/src/isr.c:198
    {
        EXTI_ClearITPendingBit(EXTI_Line4);
    18ae:	4541                	li	a0,16
    18b0:	297000ef          	jal	ra,2346 <EXTI_ClearITPendingBit>
E:/CODE/C/ch32v307/CHV307_Library/Example/8-Flash Demo/user/src/isr.c:201

    }
}
    18b4:	0001                	nop
    18b6:	4432                	lw	s0,12(sp)
    18b8:	0141                	addi	sp,sp,16
    18ba:	30200073          	mret

000018be <EXTI9_5_IRQHandler>:
EXTI9_5_IRQHandler():
E:/CODE/C/ch32v307/CHV307_Library/Example/8-Flash Demo/user/src/isr.c:203
void EXTI9_5_IRQHandler(void)
{
    18be:	1141                	addi	sp,sp,-16
    18c0:	c622                	sw	s0,12(sp)
    18c2:	0800                	addi	s0,sp,16
E:/CODE/C/ch32v307/CHV307_Library/Example/8-Flash Demo/user/src/isr.c:204
    if(SET == EXTI_GetITStatus(EXTI_Line5))
    18c4:	02000513          	li	a0,32
    18c8:	229000ef          	jal	ra,22f0 <EXTI_GetITStatus>
    18cc:	872a                	mv	a4,a0
    18ce:	4785                	li	a5,1
    18d0:	00f71663          	bne	a4,a5,18dc <EXTI9_5_IRQHandler+0x1e>
E:/CODE/C/ch32v307/CHV307_Library/Example/8-Flash Demo/user/src/isr.c:206
    {
        EXTI_ClearITPendingBit(EXTI_Line5);
    18d4:	02000513          	li	a0,32
    18d8:	26f000ef          	jal	ra,2346 <EXTI_ClearITPendingBit>
E:/CODE/C/ch32v307/CHV307_Library/Example/8-Flash Demo/user/src/isr.c:209

    }
    if(SET == EXTI_GetITStatus(EXTI_Line6))
    18dc:	04000513          	li	a0,64
    18e0:	211000ef          	jal	ra,22f0 <EXTI_GetITStatus>
    18e4:	872a                	mv	a4,a0
    18e6:	4785                	li	a5,1
    18e8:	00f71663          	bne	a4,a5,18f4 <EXTI9_5_IRQHandler+0x36>
E:/CODE/C/ch32v307/CHV307_Library/Example/8-Flash Demo/user/src/isr.c:211
    {
        EXTI_ClearITPendingBit(EXTI_Line6);
    18ec:	04000513          	li	a0,64
    18f0:	257000ef          	jal	ra,2346 <EXTI_ClearITPendingBit>
E:/CODE/C/ch32v307/CHV307_Library/Example/8-Flash Demo/user/src/isr.c:214

    }
    if(SET == EXTI_GetITStatus(EXTI_Line7))
    18f4:	08000513          	li	a0,128
    18f8:	1f9000ef          	jal	ra,22f0 <EXTI_GetITStatus>
    18fc:	872a                	mv	a4,a0
    18fe:	4785                	li	a5,1
    1900:	00f71663          	bne	a4,a5,190c <EXTI9_5_IRQHandler+0x4e>
E:/CODE/C/ch32v307/CHV307_Library/Example/8-Flash Demo/user/src/isr.c:216
    {
        EXTI_ClearITPendingBit(EXTI_Line7);
    1904:	08000513          	li	a0,128
    1908:	23f000ef          	jal	ra,2346 <EXTI_ClearITPendingBit>
E:/CODE/C/ch32v307/CHV307_Library/Example/8-Flash Demo/user/src/isr.c:219

    }
    if(SET == EXTI_GetITStatus(EXTI_Line8))
    190c:	10000513          	li	a0,256
    1910:	1e1000ef          	jal	ra,22f0 <EXTI_GetITStatus>
    1914:	872a                	mv	a4,a0
    1916:	4785                	li	a5,1
    1918:	00f71663          	bne	a4,a5,1924 <EXTI9_5_IRQHandler+0x66>
E:/CODE/C/ch32v307/CHV307_Library/Example/8-Flash Demo/user/src/isr.c:221
    {
        EXTI_ClearITPendingBit(EXTI_Line8);
    191c:	10000513          	li	a0,256
    1920:	227000ef          	jal	ra,2346 <EXTI_ClearITPendingBit>
E:/CODE/C/ch32v307/CHV307_Library/Example/8-Flash Demo/user/src/isr.c:224

    }
    if(SET == EXTI_GetITStatus(EXTI_Line9))
    1924:	20000513          	li	a0,512
    1928:	1c9000ef          	jal	ra,22f0 <EXTI_GetITStatus>
    192c:	872a                	mv	a4,a0
    192e:	4785                	li	a5,1
    1930:	00f71663          	bne	a4,a5,193c <EXTI9_5_IRQHandler+0x7e>
E:/CODE/C/ch32v307/CHV307_Library/Example/8-Flash Demo/user/src/isr.c:226
    {
        EXTI_ClearITPendingBit(EXTI_Line9);
    1934:	20000513          	li	a0,512
    1938:	20f000ef          	jal	ra,2346 <EXTI_ClearITPendingBit>
E:/CODE/C/ch32v307/CHV307_Library/Example/8-Flash Demo/user/src/isr.c:230

    }

}
    193c:	0001                	nop
    193e:	4432                	lw	s0,12(sp)
    1940:	0141                	addi	sp,sp,16
    1942:	30200073          	mret

00001946 <EXTI15_10_IRQHandler>:
EXTI15_10_IRQHandler():
E:/CODE/C/ch32v307/CHV307_Library/Example/8-Flash Demo/user/src/isr.c:233

void EXTI15_10_IRQHandler(void)
{
    1946:	1141                	addi	sp,sp,-16
    1948:	c622                	sw	s0,12(sp)
    194a:	0800                	addi	s0,sp,16
E:/CODE/C/ch32v307/CHV307_Library/Example/8-Flash Demo/user/src/isr.c:234
    if(SET == EXTI_GetITStatus(EXTI_Line10))
    194c:	40000513          	li	a0,1024
    1950:	1a1000ef          	jal	ra,22f0 <EXTI_GetITStatus>
    1954:	872a                	mv	a4,a0
    1956:	4785                	li	a5,1
    1958:	00f71663          	bne	a4,a5,1964 <EXTI15_10_IRQHandler+0x1e>
E:/CODE/C/ch32v307/CHV307_Library/Example/8-Flash Demo/user/src/isr.c:236
    {
        EXTI_ClearITPendingBit(EXTI_Line10);
    195c:	40000513          	li	a0,1024
    1960:	1e7000ef          	jal	ra,2346 <EXTI_ClearITPendingBit>
E:/CODE/C/ch32v307/CHV307_Library/Example/8-Flash Demo/user/src/isr.c:239

    }
    if(SET == EXTI_GetITStatus(EXTI_Line11))
    1964:	6785                	lui	a5,0x1
    1966:	80078513          	addi	a0,a5,-2048 # 800 <__stack_size>
    196a:	187000ef          	jal	ra,22f0 <EXTI_GetITStatus>
    196e:	872a                	mv	a4,a0
    1970:	4785                	li	a5,1
    1972:	00f71763          	bne	a4,a5,1980 <EXTI15_10_IRQHandler+0x3a>
E:/CODE/C/ch32v307/CHV307_Library/Example/8-Flash Demo/user/src/isr.c:241
    {
        EXTI_ClearITPendingBit(EXTI_Line11);
    1976:	6785                	lui	a5,0x1
    1978:	80078513          	addi	a0,a5,-2048 # 800 <__stack_size>
    197c:	1cb000ef          	jal	ra,2346 <EXTI_ClearITPendingBit>
E:/CODE/C/ch32v307/CHV307_Library/Example/8-Flash Demo/user/src/isr.c:244

    }
    if(SET == EXTI_GetITStatus(EXTI_Line12))
    1980:	6505                	lui	a0,0x1
    1982:	16f000ef          	jal	ra,22f0 <EXTI_GetITStatus>
    1986:	872a                	mv	a4,a0
    1988:	4785                	li	a5,1
    198a:	00f71563          	bne	a4,a5,1994 <EXTI15_10_IRQHandler+0x4e>
E:/CODE/C/ch32v307/CHV307_Library/Example/8-Flash Demo/user/src/isr.c:246
    {
        EXTI_ClearITPendingBit(EXTI_Line12);
    198e:	6505                	lui	a0,0x1
    1990:	1b7000ef          	jal	ra,2346 <EXTI_ClearITPendingBit>
E:/CODE/C/ch32v307/CHV307_Library/Example/8-Flash Demo/user/src/isr.c:249

    }
    if(SET == EXTI_GetITStatus(EXTI_Line13))
    1994:	6509                	lui	a0,0x2
    1996:	15b000ef          	jal	ra,22f0 <EXTI_GetITStatus>
    199a:	872a                	mv	a4,a0
    199c:	4785                	li	a5,1
    199e:	00f71563          	bne	a4,a5,19a8 <EXTI15_10_IRQHandler+0x62>
E:/CODE/C/ch32v307/CHV307_Library/Example/8-Flash Demo/user/src/isr.c:251
    {
        EXTI_ClearITPendingBit(EXTI_Line13);
    19a2:	6509                	lui	a0,0x2
    19a4:	1a3000ef          	jal	ra,2346 <EXTI_ClearITPendingBit>
E:/CODE/C/ch32v307/CHV307_Library/Example/8-Flash Demo/user/src/isr.c:254

    }
    if(SET == EXTI_GetITStatus(EXTI_Line14))
    19a8:	6511                	lui	a0,0x4
    19aa:	147000ef          	jal	ra,22f0 <EXTI_GetITStatus>
    19ae:	872a                	mv	a4,a0
    19b0:	4785                	li	a5,1
    19b2:	00f71563          	bne	a4,a5,19bc <EXTI15_10_IRQHandler+0x76>
E:/CODE/C/ch32v307/CHV307_Library/Example/8-Flash Demo/user/src/isr.c:256
    {
        EXTI_ClearITPendingBit(EXTI_Line14);
    19b6:	6511                	lui	a0,0x4
    19b8:	18f000ef          	jal	ra,2346 <EXTI_ClearITPendingBit>
E:/CODE/C/ch32v307/CHV307_Library/Example/8-Flash Demo/user/src/isr.c:259

    }
    if(SET == EXTI_GetITStatus(EXTI_Line15))
    19bc:	6521                	lui	a0,0x8
    19be:	133000ef          	jal	ra,22f0 <EXTI_GetITStatus>
    19c2:	872a                	mv	a4,a0
    19c4:	4785                	li	a5,1
    19c6:	00f71563          	bne	a4,a5,19d0 <EXTI15_10_IRQHandler+0x8a>
E:/CODE/C/ch32v307/CHV307_Library/Example/8-Flash Demo/user/src/isr.c:261
    {
        EXTI_ClearITPendingBit(EXTI_Line15);
    19ca:	6521                	lui	a0,0x8
    19cc:	17b000ef          	jal	ra,2346 <EXTI_ClearITPendingBit>
E:/CODE/C/ch32v307/CHV307_Library/Example/8-Flash Demo/user/src/isr.c:264

    }
}
    19d0:	0001                	nop
    19d2:	4432                	lw	s0,12(sp)
    19d4:	0141                	addi	sp,sp,16
    19d6:	30200073          	mret

000019da <TIM1_UP_IRQHandler>:
TIM1_UP_IRQHandler():
E:/CODE/C/ch32v307/CHV307_Library/Example/8-Flash Demo/user/src/isr.c:267

void TIM1_UP_IRQHandler(void)
{
    19da:	1141                	addi	sp,sp,-16
    19dc:	c622                	sw	s0,12(sp)
    19de:	0800                	addi	s0,sp,16
E:/CODE/C/ch32v307/CHV307_Library/Example/8-Flash Demo/user/src/isr.c:268
    if(TIM_GetITStatus(TIM1, TIM_IT_Update) != RESET)
    19e0:	4585                	li	a1,1
    19e2:	400137b7          	lui	a5,0x40013
    19e6:	c0078513          	addi	a0,a5,-1024 # 40012c00 <_eusrstack+0x20002c00>
    19ea:	2ae010ef          	jal	ra,2c98 <TIM_GetITStatus>
    19ee:	87aa                	mv	a5,a0
    19f0:	cb81                	beqz	a5,1a00 <TIM1_UP_IRQHandler+0x26>
E:/CODE/C/ch32v307/CHV307_Library/Example/8-Flash Demo/user/src/isr.c:270
    {
        TIM_ClearITPendingBit(TIM1, TIM_IT_Update);
    19f2:	4585                	li	a1,1
    19f4:	400137b7          	lui	a5,0x40013
    19f8:	c0078513          	addi	a0,a5,-1024 # 40012c00 <_eusrstack+0x20002c00>
    19fc:	30c010ef          	jal	ra,2d08 <TIM_ClearITPendingBit>
E:/CODE/C/ch32v307/CHV307_Library/Example/8-Flash Demo/user/src/isr.c:273

    }
}
    1a00:	0001                	nop
    1a02:	4432                	lw	s0,12(sp)
    1a04:	0141                	addi	sp,sp,16
    1a06:	30200073          	mret

00001a0a <TIM2_IRQHandler>:
TIM2_IRQHandler():
E:/CODE/C/ch32v307/CHV307_Library/Example/8-Flash Demo/user/src/isr.c:277


void TIM2_IRQHandler(void)
{
    1a0a:	1141                	addi	sp,sp,-16
    1a0c:	c622                	sw	s0,12(sp)
    1a0e:	0800                	addi	s0,sp,16
E:/CODE/C/ch32v307/CHV307_Library/Example/8-Flash Demo/user/src/isr.c:278
    if(TIM_GetITStatus(TIM2, TIM_IT_Update) != RESET)
    1a10:	4585                	li	a1,1
    1a12:	40000537          	lui	a0,0x40000
    1a16:	282010ef          	jal	ra,2c98 <TIM_GetITStatus>
    1a1a:	87aa                	mv	a5,a0
    1a1c:	c791                	beqz	a5,1a28 <TIM2_IRQHandler+0x1e>
E:/CODE/C/ch32v307/CHV307_Library/Example/8-Flash Demo/user/src/isr.c:280
    {
       TIM_ClearITPendingBit(TIM2, TIM_IT_Update );
    1a1e:	4585                	li	a1,1
    1a20:	40000537          	lui	a0,0x40000
    1a24:	2e4010ef          	jal	ra,2d08 <TIM_ClearITPendingBit>
E:/CODE/C/ch32v307/CHV307_Library/Example/8-Flash Demo/user/src/isr.c:284


    }
}
    1a28:	0001                	nop
    1a2a:	4432                	lw	s0,12(sp)
    1a2c:	0141                	addi	sp,sp,16
    1a2e:	30200073          	mret

00001a32 <TIM3_IRQHandler>:
TIM3_IRQHandler():
E:/CODE/C/ch32v307/CHV307_Library/Example/8-Flash Demo/user/src/isr.c:287

void TIM3_IRQHandler(void)
{
    1a32:	1141                	addi	sp,sp,-16
    1a34:	c622                	sw	s0,12(sp)
    1a36:	0800                	addi	s0,sp,16
E:/CODE/C/ch32v307/CHV307_Library/Example/8-Flash Demo/user/src/isr.c:288
    if(TIM_GetITStatus(TIM3, TIM_IT_Update) != RESET)
    1a38:	4585                	li	a1,1
    1a3a:	400007b7          	lui	a5,0x40000
    1a3e:	40078513          	addi	a0,a5,1024 # 40000400 <_eusrstack+0x1fff0400>
    1a42:	256010ef          	jal	ra,2c98 <TIM_GetITStatus>
    1a46:	87aa                	mv	a5,a0
    1a48:	cb81                	beqz	a5,1a58 <TIM3_IRQHandler+0x26>
E:/CODE/C/ch32v307/CHV307_Library/Example/8-Flash Demo/user/src/isr.c:290
    {
       TIM_ClearITPendingBit(TIM3, TIM_IT_Update );
    1a4a:	4585                	li	a1,1
    1a4c:	400007b7          	lui	a5,0x40000
    1a50:	40078513          	addi	a0,a5,1024 # 40000400 <_eusrstack+0x1fff0400>
    1a54:	2b4010ef          	jal	ra,2d08 <TIM_ClearITPendingBit>
E:/CODE/C/ch32v307/CHV307_Library/Example/8-Flash Demo/user/src/isr.c:294


    }
}
    1a58:	0001                	nop
    1a5a:	4432                	lw	s0,12(sp)
    1a5c:	0141                	addi	sp,sp,16
    1a5e:	30200073          	mret

00001a62 <TIM4_IRQHandler>:
TIM4_IRQHandler():
E:/CODE/C/ch32v307/CHV307_Library/Example/8-Flash Demo/user/src/isr.c:297

void TIM4_IRQHandler(void)
{
    1a62:	1141                	addi	sp,sp,-16
    1a64:	c622                	sw	s0,12(sp)
    1a66:	0800                	addi	s0,sp,16
E:/CODE/C/ch32v307/CHV307_Library/Example/8-Flash Demo/user/src/isr.c:298
    if(TIM_GetITStatus(TIM4, TIM_IT_Update) != RESET)
    1a68:	4585                	li	a1,1
    1a6a:	400017b7          	lui	a5,0x40001
    1a6e:	80078513          	addi	a0,a5,-2048 # 40000800 <_eusrstack+0x1fff0800>
    1a72:	226010ef          	jal	ra,2c98 <TIM_GetITStatus>
    1a76:	87aa                	mv	a5,a0
    1a78:	cb81                	beqz	a5,1a88 <TIM4_IRQHandler+0x26>
E:/CODE/C/ch32v307/CHV307_Library/Example/8-Flash Demo/user/src/isr.c:300
    {
       TIM_ClearITPendingBit(TIM4, TIM_IT_Update );
    1a7a:	4585                	li	a1,1
    1a7c:	400017b7          	lui	a5,0x40001
    1a80:	80078513          	addi	a0,a5,-2048 # 40000800 <_eusrstack+0x1fff0800>
    1a84:	284010ef          	jal	ra,2d08 <TIM_ClearITPendingBit>
E:/CODE/C/ch32v307/CHV307_Library/Example/8-Flash Demo/user/src/isr.c:304


    }
}
    1a88:	0001                	nop
    1a8a:	4432                	lw	s0,12(sp)
    1a8c:	0141                	addi	sp,sp,16
    1a8e:	30200073          	mret

00001a92 <TIM5_IRQHandler>:
TIM5_IRQHandler():
E:/CODE/C/ch32v307/CHV307_Library/Example/8-Flash Demo/user/src/isr.c:307

void TIM5_IRQHandler(void)
{
    1a92:	1141                	addi	sp,sp,-16
    1a94:	c622                	sw	s0,12(sp)
    1a96:	0800                	addi	s0,sp,16
E:/CODE/C/ch32v307/CHV307_Library/Example/8-Flash Demo/user/src/isr.c:308
    if(TIM_GetITStatus(TIM5, TIM_IT_Update) != RESET)
    1a98:	4585                	li	a1,1
    1a9a:	400017b7          	lui	a5,0x40001
    1a9e:	c0078513          	addi	a0,a5,-1024 # 40000c00 <_eusrstack+0x1fff0c00>
    1aa2:	1f6010ef          	jal	ra,2c98 <TIM_GetITStatus>
    1aa6:	87aa                	mv	a5,a0
    1aa8:	cb81                	beqz	a5,1ab8 <TIM5_IRQHandler+0x26>
E:/CODE/C/ch32v307/CHV307_Library/Example/8-Flash Demo/user/src/isr.c:310
    {
       TIM_ClearITPendingBit(TIM5, TIM_IT_Update );
    1aaa:	4585                	li	a1,1
    1aac:	400017b7          	lui	a5,0x40001
    1ab0:	c0078513          	addi	a0,a5,-1024 # 40000c00 <_eusrstack+0x1fff0c00>
    1ab4:	254010ef          	jal	ra,2d08 <TIM_ClearITPendingBit>
E:/CODE/C/ch32v307/CHV307_Library/Example/8-Flash Demo/user/src/isr.c:314


    }
}
    1ab8:	0001                	nop
    1aba:	4432                	lw	s0,12(sp)
    1abc:	0141                	addi	sp,sp,16
    1abe:	30200073          	mret

00001ac2 <TIM6_IRQHandler>:
TIM6_IRQHandler():
E:/CODE/C/ch32v307/CHV307_Library/Example/8-Flash Demo/user/src/isr.c:317

void TIM6_IRQHandler(void)
{
    1ac2:	1141                	addi	sp,sp,-16
    1ac4:	c622                	sw	s0,12(sp)
    1ac6:	0800                	addi	s0,sp,16
E:/CODE/C/ch32v307/CHV307_Library/Example/8-Flash Demo/user/src/isr.c:318
    if(TIM_GetITStatus(TIM6, TIM_IT_Update) != RESET)
    1ac8:	4585                	li	a1,1
    1aca:	40001537          	lui	a0,0x40001
    1ace:	1ca010ef          	jal	ra,2c98 <TIM_GetITStatus>
    1ad2:	87aa                	mv	a5,a0
    1ad4:	c791                	beqz	a5,1ae0 <TIM6_IRQHandler+0x1e>
E:/CODE/C/ch32v307/CHV307_Library/Example/8-Flash Demo/user/src/isr.c:320
    {
       TIM_ClearITPendingBit(TIM6, TIM_IT_Update );
    1ad6:	4585                	li	a1,1
    1ad8:	40001537          	lui	a0,0x40001
    1adc:	22c010ef          	jal	ra,2d08 <TIM_ClearITPendingBit>
E:/CODE/C/ch32v307/CHV307_Library/Example/8-Flash Demo/user/src/isr.c:324


    }
}
    1ae0:	0001                	nop
    1ae2:	4432                	lw	s0,12(sp)
    1ae4:	0141                	addi	sp,sp,16
    1ae6:	30200073          	mret

00001aea <TIM7_IRQHandler>:
TIM7_IRQHandler():
E:/CODE/C/ch32v307/CHV307_Library/Example/8-Flash Demo/user/src/isr.c:327

void TIM7_IRQHandler(void)
{
    1aea:	1141                	addi	sp,sp,-16
    1aec:	c622                	sw	s0,12(sp)
    1aee:	0800                	addi	s0,sp,16
E:/CODE/C/ch32v307/CHV307_Library/Example/8-Flash Demo/user/src/isr.c:328
    if(TIM_GetITStatus(TIM7, TIM_IT_Update) != RESET)
    1af0:	4585                	li	a1,1
    1af2:	400017b7          	lui	a5,0x40001
    1af6:	40078513          	addi	a0,a5,1024 # 40001400 <_eusrstack+0x1fff1400>
    1afa:	19e010ef          	jal	ra,2c98 <TIM_GetITStatus>
    1afe:	87aa                	mv	a5,a0
    1b00:	cb81                	beqz	a5,1b10 <TIM7_IRQHandler+0x26>
E:/CODE/C/ch32v307/CHV307_Library/Example/8-Flash Demo/user/src/isr.c:330
    {
       TIM_ClearITPendingBit(TIM7, TIM_IT_Update );
    1b02:	4585                	li	a1,1
    1b04:	400017b7          	lui	a5,0x40001
    1b08:	40078513          	addi	a0,a5,1024 # 40001400 <_eusrstack+0x1fff1400>
    1b0c:	1fc010ef          	jal	ra,2d08 <TIM_ClearITPendingBit>
E:/CODE/C/ch32v307/CHV307_Library/Example/8-Flash Demo/user/src/isr.c:334


    }
}
    1b10:	0001                	nop
    1b12:	4432                	lw	s0,12(sp)
    1b14:	0141                	addi	sp,sp,16
    1b16:	30200073          	mret

00001b1a <TIM8_UP_IRQHandler>:
TIM8_UP_IRQHandler():
E:/CODE/C/ch32v307/CHV307_Library/Example/8-Flash Demo/user/src/isr.c:338


void TIM8_UP_IRQHandler(void)
{
    1b1a:	1141                	addi	sp,sp,-16
    1b1c:	c622                	sw	s0,12(sp)
    1b1e:	0800                	addi	s0,sp,16
E:/CODE/C/ch32v307/CHV307_Library/Example/8-Flash Demo/user/src/isr.c:339
    if(TIM_GetITStatus(TIM8, TIM_IT_Update) != RESET)
    1b20:	4585                	li	a1,1
    1b22:	400137b7          	lui	a5,0x40013
    1b26:	40078513          	addi	a0,a5,1024 # 40013400 <_eusrstack+0x20003400>
    1b2a:	16e010ef          	jal	ra,2c98 <TIM_GetITStatus>
    1b2e:	87aa                	mv	a5,a0
    1b30:	cb81                	beqz	a5,1b40 <TIM8_UP_IRQHandler+0x26>
E:/CODE/C/ch32v307/CHV307_Library/Example/8-Flash Demo/user/src/isr.c:341
    {
        TIM_ClearITPendingBit(TIM8, TIM_IT_Update);
    1b32:	4585                	li	a1,1
    1b34:	400137b7          	lui	a5,0x40013
    1b38:	40078513          	addi	a0,a5,1024 # 40013400 <_eusrstack+0x20003400>
    1b3c:	1cc010ef          	jal	ra,2d08 <TIM_ClearITPendingBit>
E:/CODE/C/ch32v307/CHV307_Library/Example/8-Flash Demo/user/src/isr.c:344

    }
}
    1b40:	0001                	nop
    1b42:	4432                	lw	s0,12(sp)
    1b44:	0141                	addi	sp,sp,16
    1b46:	30200073          	mret

00001b4a <TIM9_UP_IRQHandler>:
TIM9_UP_IRQHandler():
E:/CODE/C/ch32v307/CHV307_Library/Example/8-Flash Demo/user/src/isr.c:348


void TIM9_UP_IRQHandler(void)
{
    1b4a:	1141                	addi	sp,sp,-16
    1b4c:	c622                	sw	s0,12(sp)
    1b4e:	0800                	addi	s0,sp,16
E:/CODE/C/ch32v307/CHV307_Library/Example/8-Flash Demo/user/src/isr.c:349
    if(TIM_GetITStatus(TIM9, TIM_IT_Update) != RESET)
    1b50:	4585                	li	a1,1
    1b52:	400157b7          	lui	a5,0x40015
    1b56:	c0078513          	addi	a0,a5,-1024 # 40014c00 <_eusrstack+0x20004c00>
    1b5a:	13e010ef          	jal	ra,2c98 <TIM_GetITStatus>
    1b5e:	87aa                	mv	a5,a0
    1b60:	cb81                	beqz	a5,1b70 <TIM9_UP_IRQHandler+0x26>
E:/CODE/C/ch32v307/CHV307_Library/Example/8-Flash Demo/user/src/isr.c:351
    {
        TIM_ClearITPendingBit(TIM9, TIM_IT_Update);
    1b62:	4585                	li	a1,1
    1b64:	400157b7          	lui	a5,0x40015
    1b68:	c0078513          	addi	a0,a5,-1024 # 40014c00 <_eusrstack+0x20004c00>
    1b6c:	19c010ef          	jal	ra,2d08 <TIM_ClearITPendingBit>
E:/CODE/C/ch32v307/CHV307_Library/Example/8-Flash Demo/user/src/isr.c:354

    }
}
    1b70:	0001                	nop
    1b72:	4432                	lw	s0,12(sp)
    1b74:	0141                	addi	sp,sp,16
    1b76:	30200073          	mret

00001b7a <TIM10_UP_IRQHandler>:
TIM10_UP_IRQHandler():
E:/CODE/C/ch32v307/CHV307_Library/Example/8-Flash Demo/user/src/isr.c:358


void TIM10_UP_IRQHandler(void)
{
    1b7a:	1141                	addi	sp,sp,-16
    1b7c:	c622                	sw	s0,12(sp)
    1b7e:	0800                	addi	s0,sp,16
E:/CODE/C/ch32v307/CHV307_Library/Example/8-Flash Demo/user/src/isr.c:359
    if(TIM_GetITStatus(TIM10, TIM_IT_Update) != RESET)
    1b80:	4585                	li	a1,1
    1b82:	40015537          	lui	a0,0x40015
    1b86:	112010ef          	jal	ra,2c98 <TIM_GetITStatus>
    1b8a:	87aa                	mv	a5,a0
    1b8c:	c791                	beqz	a5,1b98 <TIM10_UP_IRQHandler+0x1e>
E:/CODE/C/ch32v307/CHV307_Library/Example/8-Flash Demo/user/src/isr.c:361
    {
        TIM_ClearITPendingBit(TIM10, TIM_IT_Update);
    1b8e:	4585                	li	a1,1
    1b90:	40015537          	lui	a0,0x40015
    1b94:	174010ef          	jal	ra,2d08 <TIM_ClearITPendingBit>
E:/CODE/C/ch32v307/CHV307_Library/Example/8-Flash Demo/user/src/isr.c:364

    }
}
    1b98:	0001                	nop
    1b9a:	4432                	lw	s0,12(sp)
    1b9c:	0141                	addi	sp,sp,16
    1b9e:	30200073          	mret

00001ba2 <NMI_Handler>:
NMI_Handler():
E:/CODE/C/ch32v307/CHV307_Library/Example/8-Flash Demo/user/src/isr.c:460
* Description    : This function handles NMI exception.
* Input          : None
* Return         : None
*******************************************************************************/
void NMI_Handler(void)
{
    1ba2:	1141                	addi	sp,sp,-16
    1ba4:	c622                	sw	s0,12(sp)
    1ba6:	0800                	addi	s0,sp,16
E:/CODE/C/ch32v307/CHV307_Library/Example/8-Flash Demo/user/src/isr.c:461
}
    1ba8:	0001                	nop
    1baa:	4432                	lw	s0,12(sp)
    1bac:	0141                	addi	sp,sp,16
    1bae:	30200073          	mret

00001bb2 <HardFault_Handler>:
HardFault_Handler():
E:/CODE/C/ch32v307/CHV307_Library/Example/8-Flash Demo/user/src/isr.c:470
* Description    : This function handles Hard Fault exception.
* Input          : None
* Return         : None
*******************************************************************************/
void HardFault_Handler(void)
{
    1bb2:	1141                	addi	sp,sp,-16
    1bb4:	c622                	sw	s0,12(sp)
    1bb6:	0800                	addi	s0,sp,16
E:/CODE/C/ch32v307/CHV307_Library/Example/8-Flash Demo/user/src/isr.c:471 (discriminator 1)
  while (1)
    1bb8:	a001                	j	1bb8 <HardFault_Handler+0x6>

00001bba <main>:
main():
E:/CODE/C/ch32v307/CHV307_Library/Example/8-Flash Demo/user/src/main.c:55




int main(void)
{
    1bba:	1141                	addi	sp,sp,-16
    1bbc:	c606                	sw	ra,12(sp)
    1bbe:	c422                	sw	s0,8(sp)
    1bc0:	0800                	addi	s0,sp,16
E:/CODE/C/ch32v307/CHV307_Library/Example/8-Flash Demo/user/src/main.c:56
    interrupt_global_disable();            // 关闭总中断
    1bc2:	a09ff0ef          	jal	ra,15ca <interrupt_global_disable>
E:/CODE/C/ch32v307/CHV307_Library/Example/8-Flash Demo/user/src/main.c:57
    clock_init(SYSTEM_CLOCK_144M);      // 务必保留，设置系统时钟。
    1bc6:	089547b7          	lui	a5,0x8954
    1bca:	40078513          	addi	a0,a5,1024 # 8954400 <_data_lma+0x894addc>
    1bce:	c28ff0ef          	jal	ra,ff6 <clock_init>
E:/CODE/C/ch32v307/CHV307_Library/Example/8-Flash Demo/user/src/main.c:58
    debug_init();                       // 务必保留，本函数用于初始化MPU 时钟 调试串口
    1bd2:	f22ff0ef          	jal	ra,12f4 <debug_init>
E:/CODE/C/ch32v307/CHV307_Library/Example/8-Flash Demo/user/src/main.c:61

    // 此处编写用户代码 例如外设初始化代码等
     if(flash_check(FLASH_SECTION_INDEX, FLASH_PAGE_INDEX))                      // 判断是否有数据
    1bd6:	458d                	li	a1,3
    1bd8:	03e00513          	li	a0,62
    1bdc:	ee0fe0ef          	jal	ra,2bc <flash_check>
    1be0:	87aa                	mv	a5,a0
    1be2:	c791                	beqz	a5,1bee <main+0x34>
E:/CODE/C/ch32v307/CHV307_Library/Example/8-Flash Demo/user/src/main.c:62
         flash_erase_page(FLASH_SECTION_INDEX, FLASH_PAGE_INDEX);                // 擦除这一页
    1be4:	458d                	li	a1,3
    1be6:	03e00513          	li	a0,62
    1bea:	f34fe0ef          	jal	ra,31e <flash_erase_page>
E:/CODE/C/ch32v307/CHV307_Library/Example/8-Flash Demo/user/src/main.c:64

     flash_read_page_to_data_buffer(FLASH_SECTION_INDEX, FLASH_PAGE_INDEX);      // 将数据从 flash 读取到缓冲区
    1bee:	458d                	li	a1,3
    1bf0:	03e00513          	li	a0,62
    1bf4:	f9afe0ef          	jal	ra,38e <flash_read_page_to_data_buffer>
E:/CODE/C/ch32v307/CHV307_Library/Example/8-Flash Demo/user/src/main.c:65
     printf("\r\n FLASH_SECTION_INDEX: %d, FLASH_PAGE_INDEX: %d, origin data is :", FLASH_SECTION_INDEX, FLASH_PAGE_INDEX);
    1bf8:	460d                	li	a2,3
    1bfa:	03e00593          	li	a1,62
    1bfe:	67a5                	lui	a5,0x9
    1c00:	dd478513          	addi	a0,a5,-556 # 8dd4 <_sbrk+0x22>
    1c04:	2a5040ef          	jal	ra,66a8 <iprintf>
E:/CODE/C/ch32v307/CHV307_Library/Example/8-Flash Demo/user/src/main.c:66
     printf("\r\n float_type : %f", flash_data_union_buffer[0].float_type);      // 将缓冲区第 0 个位置的数据以 float  格式输出
    1c08:	200007b7          	lui	a5,0x20000
    1c0c:	2b07a783          	lw	a5,688(a5) # 200002b0 <flash_data_union_buffer>
    1c10:	853e                	mv	a0,a5
    1c12:	6c9030ef          	jal	ra,5ada <__extendsfdf2>
    1c16:	87aa                	mv	a5,a0
    1c18:	882e                	mv	a6,a1
    1c1a:	863e                	mv	a2,a5
    1c1c:	86c2                	mv	a3,a6
    1c1e:	67a5                	lui	a5,0x9
    1c20:	e1878513          	addi	a0,a5,-488 # 8e18 <_sbrk+0x66>
    1c24:	285040ef          	jal	ra,66a8 <iprintf>
E:/CODE/C/ch32v307/CHV307_Library/Example/8-Flash Demo/user/src/main.c:67
     printf("\r\n uint32_type: %u", flash_data_union_buffer[1].uint32_type);     // 将缓冲区第 1 个位置的数据以 uint32 格式输出
    1c28:	200007b7          	lui	a5,0x20000
    1c2c:	2b078793          	addi	a5,a5,688 # 200002b0 <flash_data_union_buffer>
    1c30:	43dc                	lw	a5,4(a5)
    1c32:	85be                	mv	a1,a5
    1c34:	67a5                	lui	a5,0x9
    1c36:	e2c78513          	addi	a0,a5,-468 # 8e2c <_sbrk+0x7a>
    1c3a:	26f040ef          	jal	ra,66a8 <iprintf>
E:/CODE/C/ch32v307/CHV307_Library/Example/8-Flash Demo/user/src/main.c:68
     printf("\r\n int32_type : %d", flash_data_union_buffer[2].int32_type);      // 将缓冲区第 2 个位置的数据以 int32  格式输出
    1c3e:	200007b7          	lui	a5,0x20000
    1c42:	2b078793          	addi	a5,a5,688 # 200002b0 <flash_data_union_buffer>
    1c46:	479c                	lw	a5,8(a5)
    1c48:	85be                	mv	a1,a5
    1c4a:	67a5                	lui	a5,0x9
    1c4c:	e4078513          	addi	a0,a5,-448 # 8e40 <_sbrk+0x8e>
    1c50:	259040ef          	jal	ra,66a8 <iprintf>
E:/CODE/C/ch32v307/CHV307_Library/Example/8-Flash Demo/user/src/main.c:69
     printf("\r\n uint16_type: %u", flash_data_union_buffer[3].uint16_type);     // 将缓冲区第 3 个位置的数据以 uint16 格式输出
    1c54:	200007b7          	lui	a5,0x20000
    1c58:	2b078793          	addi	a5,a5,688 # 200002b0 <flash_data_union_buffer>
    1c5c:	00c7d783          	lhu	a5,12(a5)
    1c60:	85be                	mv	a1,a5
    1c62:	67a5                	lui	a5,0x9
    1c64:	e5478513          	addi	a0,a5,-428 # 8e54 <_sbrk+0xa2>
    1c68:	241040ef          	jal	ra,66a8 <iprintf>
E:/CODE/C/ch32v307/CHV307_Library/Example/8-Flash Demo/user/src/main.c:70
     printf("\r\n int16_type : %d", flash_data_union_buffer[4].int16_type);      // 将缓冲区第 4 个位置的数据以 int16  格式输出
    1c6c:	200007b7          	lui	a5,0x20000
    1c70:	2b078793          	addi	a5,a5,688 # 200002b0 <flash_data_union_buffer>
    1c74:	01079783          	lh	a5,16(a5)
    1c78:	85be                	mv	a1,a5
    1c7a:	67a5                	lui	a5,0x9
    1c7c:	e6878513          	addi	a0,a5,-408 # 8e68 <_sbrk+0xb6>
    1c80:	229040ef          	jal	ra,66a8 <iprintf>
E:/CODE/C/ch32v307/CHV307_Library/Example/8-Flash Demo/user/src/main.c:71
     printf("\r\n uint8_type : %u", flash_data_union_buffer[5].uint8_type);      // 将缓冲区第 5 个位置的数据以 uint8  格式输出
    1c84:	200007b7          	lui	a5,0x20000
    1c88:	2b078793          	addi	a5,a5,688 # 200002b0 <flash_data_union_buffer>
    1c8c:	0147c783          	lbu	a5,20(a5)
    1c90:	85be                	mv	a1,a5
    1c92:	67a5                	lui	a5,0x9
    1c94:	e7c78513          	addi	a0,a5,-388 # 8e7c <_sbrk+0xca>
    1c98:	211040ef          	jal	ra,66a8 <iprintf>
E:/CODE/C/ch32v307/CHV307_Library/Example/8-Flash Demo/user/src/main.c:72
     printf("\r\n int8_type  : %d", flash_data_union_buffer[6].int8_type);       // 将缓冲区第 6 个位置的数据以 int8   格式输出
    1c9c:	200007b7          	lui	a5,0x20000
    1ca0:	2b078793          	addi	a5,a5,688 # 200002b0 <flash_data_union_buffer>
    1ca4:	01878783          	lb	a5,24(a5)
    1ca8:	85be                	mv	a1,a5
    1caa:	67a5                	lui	a5,0x9
    1cac:	e9078513          	addi	a0,a5,-368 # 8e90 <_sbrk+0xde>
    1cb0:	1f9040ef          	jal	ra,66a8 <iprintf>
E:/CODE/C/ch32v307/CHV307_Library/Example/8-Flash Demo/user/src/main.c:80
     // 请注意 数据缓冲区的每个位置只能存储一种类型的数据
     // 请注意 数据缓冲区的每个位置只能存储一种类型的数据

     // 例如 flash_data_union_buffer[0] 写入 int8_type 那么只能以 int8_type 读取
     // 同样 flash_data_union_buffer[0] 写入 float_type 那么只能以 float_type 读取
     printf("\r\n Data property display :");
    1cb4:	67a5                	lui	a5,0x9
    1cb6:	ea478513          	addi	a0,a5,-348 # 8ea4 <_sbrk+0xf2>
    1cba:	1ef040ef          	jal	ra,66a8 <iprintf>
E:/CODE/C/ch32v307/CHV307_Library/Example/8-Flash Demo/user/src/main.c:81
     printf("\r\n flash_data_union_buffer[0] write int8 data type:");
    1cbe:	67a5                	lui	a5,0x9
    1cc0:	ec078513          	addi	a0,a5,-320 # 8ec0 <_sbrk+0x10e>
    1cc4:	1e5040ef          	jal	ra,66a8 <iprintf>
E:/CODE/C/ch32v307/CHV307_Library/Example/8-Flash Demo/user/src/main.c:82
     flash_data_union_buffer[0].int8_type   = -128;                              // 向缓冲区第 0 个位置写入     int8   数据
    1cc8:	200007b7          	lui	a5,0x20000
    1ccc:	f8000713          	li	a4,-128
    1cd0:	2ae78823          	sb	a4,688(a5) # 200002b0 <flash_data_union_buffer>
E:/CODE/C/ch32v307/CHV307_Library/Example/8-Flash Demo/user/src/main.c:83
     printf("\r\n float_type : %f", flash_data_union_buffer[0].float_type);      // 将缓冲区第 0 个位置的数据以 float  格式输出 数据将不正确
    1cd4:	200007b7          	lui	a5,0x20000
    1cd8:	2b07a783          	lw	a5,688(a5) # 200002b0 <flash_data_union_buffer>
    1cdc:	853e                	mv	a0,a5
    1cde:	5fd030ef          	jal	ra,5ada <__extendsfdf2>
    1ce2:	87aa                	mv	a5,a0
    1ce4:	882e                	mv	a6,a1
    1ce6:	863e                	mv	a2,a5
    1ce8:	86c2                	mv	a3,a6
    1cea:	67a5                	lui	a5,0x9
    1cec:	e1878513          	addi	a0,a5,-488 # 8e18 <_sbrk+0x66>
    1cf0:	1b9040ef          	jal	ra,66a8 <iprintf>
E:/CODE/C/ch32v307/CHV307_Library/Example/8-Flash Demo/user/src/main.c:84
     printf("\r\n int8_type  : %d", flash_data_union_buffer[0].int8_type);       // 将缓冲区第 0 个位置的数据以 int8   格式输出 得到正确写入数据
    1cf4:	200007b7          	lui	a5,0x20000
    1cf8:	2b078783          	lb	a5,688(a5) # 200002b0 <flash_data_union_buffer>
    1cfc:	85be                	mv	a1,a5
    1cfe:	67a5                	lui	a5,0x9
    1d00:	e9078513          	addi	a0,a5,-368 # 8e90 <_sbrk+0xde>
    1d04:	1a5040ef          	jal	ra,66a8 <iprintf>
E:/CODE/C/ch32v307/CHV307_Library/Example/8-Flash Demo/user/src/main.c:86

     printf("\r\n flash_data_union_buffer[0] write int8 data type:");
    1d08:	67a5                	lui	a5,0x9
    1d0a:	ec078513          	addi	a0,a5,-320 # 8ec0 <_sbrk+0x10e>
    1d0e:	19b040ef          	jal	ra,66a8 <iprintf>
E:/CODE/C/ch32v307/CHV307_Library/Example/8-Flash Demo/user/src/main.c:87
     flash_data_union_buffer[0].int8_type  -= 1;                                 // 向缓冲区第 0 个位置写入     int8   数据
    1d12:	200007b7          	lui	a5,0x20000
    1d16:	2b078783          	lb	a5,688(a5) # 200002b0 <flash_data_union_buffer>
    1d1a:	0ff7f793          	andi	a5,a5,255
    1d1e:	17fd                	addi	a5,a5,-1
    1d20:	0ff7f793          	andi	a5,a5,255
    1d24:	01879713          	slli	a4,a5,0x18
    1d28:	8761                	srai	a4,a4,0x18
    1d2a:	200007b7          	lui	a5,0x20000
    1d2e:	2ae78823          	sb	a4,688(a5) # 200002b0 <flash_data_union_buffer>
E:/CODE/C/ch32v307/CHV307_Library/Example/8-Flash Demo/user/src/main.c:88
     printf("\r\n float_type : %f", flash_data_union_buffer[0].float_type);      // 将缓冲区第 0 个位置的数据以 float  格式输出 数据将不正确
    1d32:	200007b7          	lui	a5,0x20000
    1d36:	2b07a783          	lw	a5,688(a5) # 200002b0 <flash_data_union_buffer>
    1d3a:	853e                	mv	a0,a5
    1d3c:	59f030ef          	jal	ra,5ada <__extendsfdf2>
    1d40:	87aa                	mv	a5,a0
    1d42:	882e                	mv	a6,a1
    1d44:	863e                	mv	a2,a5
    1d46:	86c2                	mv	a3,a6
    1d48:	67a5                	lui	a5,0x9
    1d4a:	e1878513          	addi	a0,a5,-488 # 8e18 <_sbrk+0x66>
    1d4e:	15b040ef          	jal	ra,66a8 <iprintf>
E:/CODE/C/ch32v307/CHV307_Library/Example/8-Flash Demo/user/src/main.c:89
     printf("\r\n int8_type  : %d", flash_data_union_buffer[0].int8_type);       // 将缓冲区第 0 个位置的数据以 int8   格式输出 得到正确写入数据
    1d52:	200007b7          	lui	a5,0x20000
    1d56:	2b078783          	lb	a5,688(a5) # 200002b0 <flash_data_union_buffer>
    1d5a:	85be                	mv	a1,a5
    1d5c:	67a5                	lui	a5,0x9
    1d5e:	e9078513          	addi	a0,a5,-368 # 8e90 <_sbrk+0xde>
    1d62:	147040ef          	jal	ra,66a8 <iprintf>
E:/CODE/C/ch32v307/CHV307_Library/Example/8-Flash Demo/user/src/main.c:91

     printf("\r\n flash_data_union_buffer[0] write float data type:");
    1d66:	67a5                	lui	a5,0x9
    1d68:	ef478513          	addi	a0,a5,-268 # 8ef4 <_sbrk+0x142>
    1d6c:	13d040ef          	jal	ra,66a8 <iprintf>
E:/CODE/C/ch32v307/CHV307_Library/Example/8-Flash Demo/user/src/main.c:92
     flash_data_union_buffer[0].float_type  = 16.625;                            // 向缓冲区第 0 个位置写入     float  数据
    1d70:	200007b7          	lui	a5,0x20000
    1d74:	6725                	lui	a4,0x9
    1d76:	f9872703          	lw	a4,-104(a4) # 8f98 <_sbrk+0x1e6>
    1d7a:	2ae7a823          	sw	a4,688(a5) # 200002b0 <flash_data_union_buffer>
E:/CODE/C/ch32v307/CHV307_Library/Example/8-Flash Demo/user/src/main.c:93
     printf("\r\n float_type : %f", flash_data_union_buffer[0].float_type);      // 将缓冲区第 0 个位置的数据以 float  格式输出 得到正确写入数据
    1d7e:	200007b7          	lui	a5,0x20000
    1d82:	2b07a783          	lw	a5,688(a5) # 200002b0 <flash_data_union_buffer>
    1d86:	853e                	mv	a0,a5
    1d88:	553030ef          	jal	ra,5ada <__extendsfdf2>
    1d8c:	87aa                	mv	a5,a0
    1d8e:	882e                	mv	a6,a1
    1d90:	863e                	mv	a2,a5
    1d92:	86c2                	mv	a3,a6
    1d94:	67a5                	lui	a5,0x9
    1d96:	e1878513          	addi	a0,a5,-488 # 8e18 <_sbrk+0x66>
    1d9a:	10f040ef          	jal	ra,66a8 <iprintf>
E:/CODE/C/ch32v307/CHV307_Library/Example/8-Flash Demo/user/src/main.c:94
     printf("\r\n int8_type  : %d", flash_data_union_buffer[0].int8_type);       // 将缓冲区第 0 个位置的数据以 int8   格式输出 数据将不正确
    1d9e:	200007b7          	lui	a5,0x20000
    1da2:	2b078783          	lb	a5,688(a5) # 200002b0 <flash_data_union_buffer>
    1da6:	85be                	mv	a1,a5
    1da8:	67a5                	lui	a5,0x9
    1daa:	e9078513          	addi	a0,a5,-368 # 8e90 <_sbrk+0xde>
    1dae:	0fb040ef          	jal	ra,66a8 <iprintf>
E:/CODE/C/ch32v307/CHV307_Library/Example/8-Flash Demo/user/src/main.c:100

     // 请注意 数据缓冲区的每个位置只能存储一种类型的数据
     // 请注意 数据缓冲区的每个位置只能存储一种类型的数据
     // 请注意 数据缓冲区的每个位置只能存储一种类型的数据

     flash_data_buffer_clear();                                                  // 清空缓冲区
    1db2:	efefe0ef          	jal	ra,4b0 <flash_data_buffer_clear>
E:/CODE/C/ch32v307/CHV307_Library/Example/8-Flash Demo/user/src/main.c:101
     flash_data_union_buffer[0].float_type  = 3.1415926;                         // 向缓冲区第 0 个位置写入 float  数据
    1db6:	200007b7          	lui	a5,0x20000
    1dba:	6725                	lui	a4,0x9
    1dbc:	f9c72703          	lw	a4,-100(a4) # 8f9c <_sbrk+0x1ea>
    1dc0:	2ae7a823          	sw	a4,688(a5) # 200002b0 <flash_data_union_buffer>
E:/CODE/C/ch32v307/CHV307_Library/Example/8-Flash Demo/user/src/main.c:102
     flash_data_union_buffer[1].uint32_type = 4294967295;                        // 向缓冲区第 1 个位置写入 uint32 数据
    1dc4:	200007b7          	lui	a5,0x20000
    1dc8:	2b078793          	addi	a5,a5,688 # 200002b0 <flash_data_union_buffer>
    1dcc:	577d                	li	a4,-1
    1dce:	c3d8                	sw	a4,4(a5)
E:/CODE/C/ch32v307/CHV307_Library/Example/8-Flash Demo/user/src/main.c:103
     flash_data_union_buffer[2].int32_type  = -2147483648;                       // 向缓冲区第 2 个位置写入 int32  数据
    1dd0:	200007b7          	lui	a5,0x20000
    1dd4:	2b078793          	addi	a5,a5,688 # 200002b0 <flash_data_union_buffer>
    1dd8:	80000737          	lui	a4,0x80000
    1ddc:	c798                	sw	a4,8(a5)
E:/CODE/C/ch32v307/CHV307_Library/Example/8-Flash Demo/user/src/main.c:104
     flash_data_union_buffer[3].uint16_type = 65535;                             // 向缓冲区第 3 个位置写入 uint16 数据
    1dde:	200007b7          	lui	a5,0x20000
    1de2:	2b078793          	addi	a5,a5,688 # 200002b0 <flash_data_union_buffer>
    1de6:	577d                	li	a4,-1
    1de8:	00e79623          	sh	a4,12(a5)
E:/CODE/C/ch32v307/CHV307_Library/Example/8-Flash Demo/user/src/main.c:105
     flash_data_union_buffer[4].int16_type  = -32768;                            // 向缓冲区第 4 个位置写入 int16  数据
    1dec:	200007b7          	lui	a5,0x20000
    1df0:	2b078793          	addi	a5,a5,688 # 200002b0 <flash_data_union_buffer>
    1df4:	7761                	lui	a4,0xffff8
    1df6:	00e79823          	sh	a4,16(a5)
E:/CODE/C/ch32v307/CHV307_Library/Example/8-Flash Demo/user/src/main.c:106
     flash_data_union_buffer[5].uint8_type  = 255;                               // 向缓冲区第 5 个位置写入 uint8  数据
    1dfa:	200007b7          	lui	a5,0x20000
    1dfe:	2b078793          	addi	a5,a5,688 # 200002b0 <flash_data_union_buffer>
    1e02:	577d                	li	a4,-1
    1e04:	00e78a23          	sb	a4,20(a5)
E:/CODE/C/ch32v307/CHV307_Library/Example/8-Flash Demo/user/src/main.c:107
     flash_data_union_buffer[6].int8_type   = -127;                              // 向缓冲区第 6 个位置写入 int8   数据
    1e08:	200007b7          	lui	a5,0x20000
    1e0c:	2b078793          	addi	a5,a5,688 # 200002b0 <flash_data_union_buffer>
    1e10:	f8100713          	li	a4,-127
    1e14:	00e78c23          	sb	a4,24(a5)
E:/CODE/C/ch32v307/CHV307_Library/Example/8-Flash Demo/user/src/main.c:108
     flash_write_page_to_data_buffer(FLASH_SECTION_INDEX, FLASH_PAGE_INDEX);     // 向指定 Flash 扇区的页码写入缓冲区数据
    1e18:	458d                	li	a1,3
    1e1a:	03e00513          	li	a0,62
    1e1e:	ddcfe0ef          	jal	ra,3fa <flash_write_page_to_data_buffer>
E:/CODE/C/ch32v307/CHV307_Library/Example/8-Flash Demo/user/src/main.c:111


     flash_data_buffer_clear();                                                  // 清空缓冲区
    1e22:	e8efe0ef          	jal	ra,4b0 <flash_data_buffer_clear>
E:/CODE/C/ch32v307/CHV307_Library/Example/8-Flash Demo/user/src/main.c:112
     printf("\r\n Flash data buffer default data is :");
    1e26:	67a5                	lui	a5,0x9
    1e28:	f2c78513          	addi	a0,a5,-212 # 8f2c <_sbrk+0x17a>
    1e2c:	07d040ef          	jal	ra,66a8 <iprintf>
E:/CODE/C/ch32v307/CHV307_Library/Example/8-Flash Demo/user/src/main.c:113
     printf("\r\n float_type : %f", flash_data_union_buffer[0].float_type);      // 将缓冲区第 0 个位置的数据以 float  格式输出
    1e30:	200007b7          	lui	a5,0x20000
    1e34:	2b07a783          	lw	a5,688(a5) # 200002b0 <flash_data_union_buffer>
    1e38:	853e                	mv	a0,a5
    1e3a:	4a1030ef          	jal	ra,5ada <__extendsfdf2>
    1e3e:	87aa                	mv	a5,a0
    1e40:	882e                	mv	a6,a1
    1e42:	863e                	mv	a2,a5
    1e44:	86c2                	mv	a3,a6
    1e46:	67a5                	lui	a5,0x9
    1e48:	e1878513          	addi	a0,a5,-488 # 8e18 <_sbrk+0x66>
    1e4c:	05d040ef          	jal	ra,66a8 <iprintf>
E:/CODE/C/ch32v307/CHV307_Library/Example/8-Flash Demo/user/src/main.c:114
     printf("\r\n uint32_type: %u", flash_data_union_buffer[1].uint32_type);     // 将缓冲区第 1 个位置的数据以 uint32 格式输出
    1e50:	200007b7          	lui	a5,0x20000
    1e54:	2b078793          	addi	a5,a5,688 # 200002b0 <flash_data_union_buffer>
    1e58:	43dc                	lw	a5,4(a5)
    1e5a:	85be                	mv	a1,a5
    1e5c:	67a5                	lui	a5,0x9
    1e5e:	e2c78513          	addi	a0,a5,-468 # 8e2c <_sbrk+0x7a>
    1e62:	047040ef          	jal	ra,66a8 <iprintf>
E:/CODE/C/ch32v307/CHV307_Library/Example/8-Flash Demo/user/src/main.c:115
     printf("\r\n int32_type : %d", flash_data_union_buffer[2].int32_type);      // 将缓冲区第 2 个位置的数据以 int32  格式输出
    1e66:	200007b7          	lui	a5,0x20000
    1e6a:	2b078793          	addi	a5,a5,688 # 200002b0 <flash_data_union_buffer>
    1e6e:	479c                	lw	a5,8(a5)
    1e70:	85be                	mv	a1,a5
    1e72:	67a5                	lui	a5,0x9
    1e74:	e4078513          	addi	a0,a5,-448 # 8e40 <_sbrk+0x8e>
    1e78:	031040ef          	jal	ra,66a8 <iprintf>
E:/CODE/C/ch32v307/CHV307_Library/Example/8-Flash Demo/user/src/main.c:116
     printf("\r\n uint16_type: %u", flash_data_union_buffer[3].uint16_type);     // 将缓冲区第 3 个位置的数据以 uint16 格式输出
    1e7c:	200007b7          	lui	a5,0x20000
    1e80:	2b078793          	addi	a5,a5,688 # 200002b0 <flash_data_union_buffer>
    1e84:	00c7d783          	lhu	a5,12(a5)
    1e88:	85be                	mv	a1,a5
    1e8a:	67a5                	lui	a5,0x9
    1e8c:	e5478513          	addi	a0,a5,-428 # 8e54 <_sbrk+0xa2>
    1e90:	019040ef          	jal	ra,66a8 <iprintf>
E:/CODE/C/ch32v307/CHV307_Library/Example/8-Flash Demo/user/src/main.c:117
     printf("\r\n int16_type : %d", flash_data_union_buffer[4].int16_type);      // 将缓冲区第 4 个位置的数据以 int16  格式输出
    1e94:	200007b7          	lui	a5,0x20000
    1e98:	2b078793          	addi	a5,a5,688 # 200002b0 <flash_data_union_buffer>
    1e9c:	01079783          	lh	a5,16(a5)
    1ea0:	85be                	mv	a1,a5
    1ea2:	67a5                	lui	a5,0x9
    1ea4:	e6878513          	addi	a0,a5,-408 # 8e68 <_sbrk+0xb6>
    1ea8:	001040ef          	jal	ra,66a8 <iprintf>
E:/CODE/C/ch32v307/CHV307_Library/Example/8-Flash Demo/user/src/main.c:118
     printf("\r\n uint8_type : %u", flash_data_union_buffer[5].uint8_type);      // 将缓冲区第 5 个位置的数据以 uint8  格式输出
    1eac:	200007b7          	lui	a5,0x20000
    1eb0:	2b078793          	addi	a5,a5,688 # 200002b0 <flash_data_union_buffer>
    1eb4:	0147c783          	lbu	a5,20(a5)
    1eb8:	85be                	mv	a1,a5
    1eba:	67a5                	lui	a5,0x9
    1ebc:	e7c78513          	addi	a0,a5,-388 # 8e7c <_sbrk+0xca>
    1ec0:	7e8040ef          	jal	ra,66a8 <iprintf>
E:/CODE/C/ch32v307/CHV307_Library/Example/8-Flash Demo/user/src/main.c:119
     printf("\r\n int8_type  : %d", flash_data_union_buffer[6].int8_type);       // 将缓冲区第 6 个位置的数据以 int8   格式输出
    1ec4:	200007b7          	lui	a5,0x20000
    1ec8:	2b078793          	addi	a5,a5,688 # 200002b0 <flash_data_union_buffer>
    1ecc:	01878783          	lb	a5,24(a5)
    1ed0:	85be                	mv	a1,a5
    1ed2:	67a5                	lui	a5,0x9
    1ed4:	e9078513          	addi	a0,a5,-368 # 8e90 <_sbrk+0xde>
    1ed8:	7d0040ef          	jal	ra,66a8 <iprintf>
E:/CODE/C/ch32v307/CHV307_Library/Example/8-Flash Demo/user/src/main.c:122


     flash_read_page_to_data_buffer(FLASH_SECTION_INDEX, FLASH_PAGE_INDEX);      // 将数据从 flash 读取到缓冲区
    1edc:	458d                	li	a1,3
    1ede:	03e00513          	li	a0,62
    1ee2:	cacfe0ef          	jal	ra,38e <flash_read_page_to_data_buffer>
E:/CODE/C/ch32v307/CHV307_Library/Example/8-Flash Demo/user/src/main.c:123
     printf("\r\n FLASH_SECTION_INDEX: %d, FLASH_PAGE_INDEX: %d, new data is :", FLASH_SECTION_INDEX, FLASH_PAGE_INDEX);
    1ee6:	460d                	li	a2,3
    1ee8:	03e00593          	li	a1,62
    1eec:	67a5                	lui	a5,0x9
    1eee:	f5478513          	addi	a0,a5,-172 # 8f54 <_sbrk+0x1a2>
    1ef2:	7b6040ef          	jal	ra,66a8 <iprintf>
E:/CODE/C/ch32v307/CHV307_Library/Example/8-Flash Demo/user/src/main.c:124
     printf("\r\n float_type : %f", flash_data_union_buffer[0].float_type);      // 将缓冲区第 0 个位置的数据以 float  格式输出
    1ef6:	200007b7          	lui	a5,0x20000
    1efa:	2b07a783          	lw	a5,688(a5) # 200002b0 <flash_data_union_buffer>
    1efe:	853e                	mv	a0,a5
    1f00:	3db030ef          	jal	ra,5ada <__extendsfdf2>
    1f04:	87aa                	mv	a5,a0
    1f06:	882e                	mv	a6,a1
    1f08:	863e                	mv	a2,a5
    1f0a:	86c2                	mv	a3,a6
    1f0c:	67a5                	lui	a5,0x9
    1f0e:	e1878513          	addi	a0,a5,-488 # 8e18 <_sbrk+0x66>
    1f12:	796040ef          	jal	ra,66a8 <iprintf>
E:/CODE/C/ch32v307/CHV307_Library/Example/8-Flash Demo/user/src/main.c:125
     printf("\r\n uint32_type: %u", flash_data_union_buffer[1].uint32_type);     // 将缓冲区第 1 个位置的数据以 uint32 格式输出
    1f16:	200007b7          	lui	a5,0x20000
    1f1a:	2b078793          	addi	a5,a5,688 # 200002b0 <flash_data_union_buffer>
    1f1e:	43dc                	lw	a5,4(a5)
    1f20:	85be                	mv	a1,a5
    1f22:	67a5                	lui	a5,0x9
    1f24:	e2c78513          	addi	a0,a5,-468 # 8e2c <_sbrk+0x7a>
    1f28:	780040ef          	jal	ra,66a8 <iprintf>
E:/CODE/C/ch32v307/CHV307_Library/Example/8-Flash Demo/user/src/main.c:126
     printf("\r\n int32_type : %d", flash_data_union_buffer[2].int32_type);      // 将缓冲区第 2 个位置的数据以 int32  格式输出
    1f2c:	200007b7          	lui	a5,0x20000
    1f30:	2b078793          	addi	a5,a5,688 # 200002b0 <flash_data_union_buffer>
    1f34:	479c                	lw	a5,8(a5)
    1f36:	85be                	mv	a1,a5
    1f38:	67a5                	lui	a5,0x9
    1f3a:	e4078513          	addi	a0,a5,-448 # 8e40 <_sbrk+0x8e>
    1f3e:	76a040ef          	jal	ra,66a8 <iprintf>
E:/CODE/C/ch32v307/CHV307_Library/Example/8-Flash Demo/user/src/main.c:127
     printf("\r\n uint16_type: %u", flash_data_union_buffer[3].uint16_type);     // 将缓冲区第 3 个位置的数据以 uint16 格式输出
    1f42:	200007b7          	lui	a5,0x20000
    1f46:	2b078793          	addi	a5,a5,688 # 200002b0 <flash_data_union_buffer>
    1f4a:	00c7d783          	lhu	a5,12(a5)
    1f4e:	85be                	mv	a1,a5
    1f50:	67a5                	lui	a5,0x9
    1f52:	e5478513          	addi	a0,a5,-428 # 8e54 <_sbrk+0xa2>
    1f56:	752040ef          	jal	ra,66a8 <iprintf>
E:/CODE/C/ch32v307/CHV307_Library/Example/8-Flash Demo/user/src/main.c:128
     printf("\r\n int16_type : %d", flash_data_union_buffer[4].int16_type);      // 将缓冲区第 4 个位置的数据以 int16  格式输出
    1f5a:	200007b7          	lui	a5,0x20000
    1f5e:	2b078793          	addi	a5,a5,688 # 200002b0 <flash_data_union_buffer>
    1f62:	01079783          	lh	a5,16(a5)
    1f66:	85be                	mv	a1,a5
    1f68:	67a5                	lui	a5,0x9
    1f6a:	e6878513          	addi	a0,a5,-408 # 8e68 <_sbrk+0xb6>
    1f6e:	73a040ef          	jal	ra,66a8 <iprintf>
E:/CODE/C/ch32v307/CHV307_Library/Example/8-Flash Demo/user/src/main.c:129
     printf("\r\n uint8_type : %u", flash_data_union_buffer[5].uint8_type);      // 将缓冲区第 5 个位置的数据以 uint8  格式输出
    1f72:	200007b7          	lui	a5,0x20000
    1f76:	2b078793          	addi	a5,a5,688 # 200002b0 <flash_data_union_buffer>
    1f7a:	0147c783          	lbu	a5,20(a5)
    1f7e:	85be                	mv	a1,a5
    1f80:	67a5                	lui	a5,0x9
    1f82:	e7c78513          	addi	a0,a5,-388 # 8e7c <_sbrk+0xca>
    1f86:	722040ef          	jal	ra,66a8 <iprintf>
E:/CODE/C/ch32v307/CHV307_Library/Example/8-Flash Demo/user/src/main.c:130
     printf("\r\n int8_type  : %d", flash_data_union_buffer[6].int8_type);       // 将缓冲区第 6 个位置的数据以 int8   格式输出
    1f8a:	200007b7          	lui	a5,0x20000
    1f8e:	2b078793          	addi	a5,a5,688 # 200002b0 <flash_data_union_buffer>
    1f92:	01878783          	lb	a5,24(a5)
    1f96:	85be                	mv	a1,a5
    1f98:	67a5                	lui	a5,0x9
    1f9a:	e9078513          	addi	a0,a5,-368 # 8e90 <_sbrk+0xde>
    1f9e:	70a040ef          	jal	ra,66a8 <iprintf>
E:/CODE/C/ch32v307/CHV307_Library/Example/8-Flash Demo/user/src/main.c:131
     printf("\r\n");
    1fa2:	67a5                	lui	a5,0x9
    1fa4:	f9478513          	addi	a0,a5,-108 # 8f94 <_sbrk+0x1e2>
    1fa8:	021040ef          	jal	ra,67c8 <puts>
E:/CODE/C/ch32v307/CHV307_Library/Example/8-Flash Demo/user/src/main.c:133
     // 此处编写用户代码 例如外设初始化代码等
    interrupt_global_enable();            // 总中断最后开启
    1fac:	df0ff0ef          	jal	ra,159c <interrupt_global_enable>
E:/CODE/C/ch32v307/CHV307_Library/Example/8-Flash Demo/user/src/main.c:134 (discriminator 1)
    while(1)
    1fb0:	a001                	j	1fb0 <main+0x3f6>
E:/CODE/C/ch32v307/CHV307_Library/Example/libraries/sdk/Startup/startup_ch32v30x.S:236
    .weak   DMA2_Channel8_IRQHandler   /* DMA2 Channel 8 */
    .weak   DMA2_Channel9_IRQHandler   /* DMA2 Channel 9 */
    .weak   DMA2_Channel10_IRQHandler  /* DMA2 Channel 10 */
    .weak   DMA2_Channel11_IRQHandler  /* DMA2 Channel 11 */

NMI_Handler:  1:  j 1b
    1fb2:	a001                	j	1fb2 <main+0x3f8>
E:/CODE/C/ch32v307/CHV307_Library/Example/libraries/sdk/Startup/startup_ch32v30x.S:237
HardFault_Handler:  1:  j 1b
    1fb4:	a001                	j	1fb4 <main+0x3fa>

00001fb6 <Ecall_M_Mode_Handler>:
Ecall_M_Mode_Handler():
E:/CODE/C/ch32v307/CHV307_Library/Example/libraries/sdk/Startup/startup_ch32v30x.S:238
Ecall_M_Mode_Handler:  1:  j 1b
    1fb6:	a001                	j	1fb6 <Ecall_M_Mode_Handler>

00001fb8 <Ecall_U_Mode_Handler>:
Ecall_U_Mode_Handler():
E:/CODE/C/ch32v307/CHV307_Library/Example/libraries/sdk/Startup/startup_ch32v30x.S:239
Ecall_U_Mode_Handler:  1:  j 1b
    1fb8:	a001                	j	1fb8 <Ecall_U_Mode_Handler>

00001fba <Break_Point_Handler>:
Break_Point_Handler():
E:/CODE/C/ch32v307/CHV307_Library/Example/libraries/sdk/Startup/startup_ch32v30x.S:240
Break_Point_Handler:  1:  j 1b
    1fba:	a001                	j	1fba <Break_Point_Handler>

00001fbc <SysTick_Handler>:
SysTick_Handler():
E:/CODE/C/ch32v307/CHV307_Library/Example/libraries/sdk/Startup/startup_ch32v30x.S:241
SysTick_Handler:  1:  j 1b
    1fbc:	a001                	j	1fbc <SysTick_Handler>

00001fbe <SW_handler>:
SW_handler():
E:/CODE/C/ch32v307/CHV307_Library/Example/libraries/sdk/Startup/startup_ch32v30x.S:242
SW_handler:  1:  j 1b
    1fbe:	a001                	j	1fbe <SW_handler>

00001fc0 <WWDG_IRQHandler>:
WWDG_IRQHandler():
E:/CODE/C/ch32v307/CHV307_Library/Example/libraries/sdk/Startup/startup_ch32v30x.S:243
WWDG_IRQHandler:  1:  j 1b
    1fc0:	a001                	j	1fc0 <WWDG_IRQHandler>

00001fc2 <PVD_IRQHandler>:
PVD_IRQHandler():
E:/CODE/C/ch32v307/CHV307_Library/Example/libraries/sdk/Startup/startup_ch32v30x.S:244
PVD_IRQHandler:  1:  j 1b
    1fc2:	a001                	j	1fc2 <PVD_IRQHandler>

00001fc4 <TAMPER_IRQHandler>:
TAMPER_IRQHandler():
E:/CODE/C/ch32v307/CHV307_Library/Example/libraries/sdk/Startup/startup_ch32v30x.S:245
TAMPER_IRQHandler:  1:  j 1b
    1fc4:	a001                	j	1fc4 <TAMPER_IRQHandler>

00001fc6 <RTC_IRQHandler>:
RTC_IRQHandler():
E:/CODE/C/ch32v307/CHV307_Library/Example/libraries/sdk/Startup/startup_ch32v30x.S:246
RTC_IRQHandler:  1:  j 1b
    1fc6:	a001                	j	1fc6 <RTC_IRQHandler>

00001fc8 <FLASH_IRQHandler>:
FLASH_IRQHandler():
E:/CODE/C/ch32v307/CHV307_Library/Example/libraries/sdk/Startup/startup_ch32v30x.S:247
FLASH_IRQHandler:  1:  j 1b
    1fc8:	a001                	j	1fc8 <FLASH_IRQHandler>

00001fca <RCC_IRQHandler>:
RCC_IRQHandler():
E:/CODE/C/ch32v307/CHV307_Library/Example/libraries/sdk/Startup/startup_ch32v30x.S:248
RCC_IRQHandler:  1:  j 1b
    1fca:	a001                	j	1fca <RCC_IRQHandler>
E:/CODE/C/ch32v307/CHV307_Library/Example/libraries/sdk/Startup/startup_ch32v30x.S:249
EXTI0_IRQHandler:  1:  j 1b
    1fcc:	a001                	j	1fcc <RCC_IRQHandler+0x2>
E:/CODE/C/ch32v307/CHV307_Library/Example/libraries/sdk/Startup/startup_ch32v30x.S:250
EXTI1_IRQHandler:  1:  j 1b
    1fce:	a001                	j	1fce <RCC_IRQHandler+0x4>
E:/CODE/C/ch32v307/CHV307_Library/Example/libraries/sdk/Startup/startup_ch32v30x.S:251
EXTI2_IRQHandler:  1:  j 1b
    1fd0:	a001                	j	1fd0 <RCC_IRQHandler+0x6>
E:/CODE/C/ch32v307/CHV307_Library/Example/libraries/sdk/Startup/startup_ch32v30x.S:252
EXTI3_IRQHandler:  1:  j 1b
    1fd2:	a001                	j	1fd2 <RCC_IRQHandler+0x8>
E:/CODE/C/ch32v307/CHV307_Library/Example/libraries/sdk/Startup/startup_ch32v30x.S:253
EXTI4_IRQHandler:  1:  j 1b
    1fd4:	a001                	j	1fd4 <RCC_IRQHandler+0xa>

00001fd6 <DMA1_Channel1_IRQHandler>:
DMA1_Channel1_IRQHandler():
E:/CODE/C/ch32v307/CHV307_Library/Example/libraries/sdk/Startup/startup_ch32v30x.S:254
DMA1_Channel1_IRQHandler:  1:  j 1b
    1fd6:	a001                	j	1fd6 <DMA1_Channel1_IRQHandler>

00001fd8 <DMA1_Channel2_IRQHandler>:
DMA1_Channel2_IRQHandler():
E:/CODE/C/ch32v307/CHV307_Library/Example/libraries/sdk/Startup/startup_ch32v30x.S:255
DMA1_Channel2_IRQHandler:  1:  j 1b
    1fd8:	a001                	j	1fd8 <DMA1_Channel2_IRQHandler>

00001fda <DMA1_Channel3_IRQHandler>:
DMA1_Channel3_IRQHandler():
E:/CODE/C/ch32v307/CHV307_Library/Example/libraries/sdk/Startup/startup_ch32v30x.S:256
DMA1_Channel3_IRQHandler:  1:  j 1b
    1fda:	a001                	j	1fda <DMA1_Channel3_IRQHandler>

00001fdc <DMA1_Channel4_IRQHandler>:
DMA1_Channel4_IRQHandler():
E:/CODE/C/ch32v307/CHV307_Library/Example/libraries/sdk/Startup/startup_ch32v30x.S:257
DMA1_Channel4_IRQHandler:  1:  j 1b
    1fdc:	a001                	j	1fdc <DMA1_Channel4_IRQHandler>

00001fde <DMA1_Channel5_IRQHandler>:
DMA1_Channel5_IRQHandler():
E:/CODE/C/ch32v307/CHV307_Library/Example/libraries/sdk/Startup/startup_ch32v30x.S:258
DMA1_Channel5_IRQHandler:  1:  j 1b
    1fde:	a001                	j	1fde <DMA1_Channel5_IRQHandler>

00001fe0 <DMA1_Channel6_IRQHandler>:
DMA1_Channel6_IRQHandler():
E:/CODE/C/ch32v307/CHV307_Library/Example/libraries/sdk/Startup/startup_ch32v30x.S:259
DMA1_Channel6_IRQHandler:  1:  j 1b
    1fe0:	a001                	j	1fe0 <DMA1_Channel6_IRQHandler>

00001fe2 <DMA1_Channel7_IRQHandler>:
DMA1_Channel7_IRQHandler():
E:/CODE/C/ch32v307/CHV307_Library/Example/libraries/sdk/Startup/startup_ch32v30x.S:260
DMA1_Channel7_IRQHandler:  1:  j 1b
    1fe2:	a001                	j	1fe2 <DMA1_Channel7_IRQHandler>

00001fe4 <ADC1_2_IRQHandler>:
ADC1_2_IRQHandler():
E:/CODE/C/ch32v307/CHV307_Library/Example/libraries/sdk/Startup/startup_ch32v30x.S:261
ADC1_2_IRQHandler:  1:  j 1b
    1fe4:	a001                	j	1fe4 <ADC1_2_IRQHandler>

00001fe6 <USB_HP_CAN1_TX_IRQHandler>:
USB_HP_CAN1_TX_IRQHandler():
E:/CODE/C/ch32v307/CHV307_Library/Example/libraries/sdk/Startup/startup_ch32v30x.S:262
USB_HP_CAN1_TX_IRQHandler:  1:  j 1b
    1fe6:	a001                	j	1fe6 <USB_HP_CAN1_TX_IRQHandler>

00001fe8 <USB_LP_CAN1_RX0_IRQHandler>:
USB_LP_CAN1_RX0_IRQHandler():
E:/CODE/C/ch32v307/CHV307_Library/Example/libraries/sdk/Startup/startup_ch32v30x.S:263
USB_LP_CAN1_RX0_IRQHandler:  1:  j 1b
    1fe8:	a001                	j	1fe8 <USB_LP_CAN1_RX0_IRQHandler>

00001fea <CAN1_RX1_IRQHandler>:
CAN1_RX1_IRQHandler():
E:/CODE/C/ch32v307/CHV307_Library/Example/libraries/sdk/Startup/startup_ch32v30x.S:264
CAN1_RX1_IRQHandler:  1:  j 1b
    1fea:	a001                	j	1fea <CAN1_RX1_IRQHandler>

00001fec <CAN1_SCE_IRQHandler>:
CAN1_SCE_IRQHandler():
E:/CODE/C/ch32v307/CHV307_Library/Example/libraries/sdk/Startup/startup_ch32v30x.S:265
CAN1_SCE_IRQHandler:  1:  j 1b
    1fec:	a001                	j	1fec <CAN1_SCE_IRQHandler>
E:/CODE/C/ch32v307/CHV307_Library/Example/libraries/sdk/Startup/startup_ch32v30x.S:266
EXTI9_5_IRQHandler:  1:  j 1b
    1fee:	a001                	j	1fee <CAN1_SCE_IRQHandler+0x2>

00001ff0 <TIM1_BRK_IRQHandler>:
TIM1_BRK_IRQHandler():
E:/CODE/C/ch32v307/CHV307_Library/Example/libraries/sdk/Startup/startup_ch32v30x.S:267
TIM1_BRK_IRQHandler:  1:  j 1b
    1ff0:	a001                	j	1ff0 <TIM1_BRK_IRQHandler>
E:/CODE/C/ch32v307/CHV307_Library/Example/libraries/sdk/Startup/startup_ch32v30x.S:268
TIM1_UP_IRQHandler:  1:  j 1b
    1ff2:	a001                	j	1ff2 <TIM1_BRK_IRQHandler+0x2>

00001ff4 <TIM1_TRG_COM_IRQHandler>:
TIM1_TRG_COM_IRQHandler():
E:/CODE/C/ch32v307/CHV307_Library/Example/libraries/sdk/Startup/startup_ch32v30x.S:269
TIM1_TRG_COM_IRQHandler:  1:  j 1b
    1ff4:	a001                	j	1ff4 <TIM1_TRG_COM_IRQHandler>

00001ff6 <TIM1_CC_IRQHandler>:
TIM1_CC_IRQHandler():
E:/CODE/C/ch32v307/CHV307_Library/Example/libraries/sdk/Startup/startup_ch32v30x.S:270
TIM1_CC_IRQHandler:  1:  j 1b
    1ff6:	a001                	j	1ff6 <TIM1_CC_IRQHandler>
E:/CODE/C/ch32v307/CHV307_Library/Example/libraries/sdk/Startup/startup_ch32v30x.S:271
TIM2_IRQHandler:  1:  j 1b
    1ff8:	a001                	j	1ff8 <TIM1_CC_IRQHandler+0x2>
E:/CODE/C/ch32v307/CHV307_Library/Example/libraries/sdk/Startup/startup_ch32v30x.S:272
TIM3_IRQHandler:  1:  j 1b
    1ffa:	a001                	j	1ffa <TIM1_CC_IRQHandler+0x4>
E:/CODE/C/ch32v307/CHV307_Library/Example/libraries/sdk/Startup/startup_ch32v30x.S:273
TIM4_IRQHandler:  1:  j 1b
    1ffc:	a001                	j	1ffc <TIM1_CC_IRQHandler+0x6>

00001ffe <I2C1_EV_IRQHandler>:
I2C1_EV_IRQHandler():
E:/CODE/C/ch32v307/CHV307_Library/Example/libraries/sdk/Startup/startup_ch32v30x.S:274
I2C1_EV_IRQHandler:  1:  j 1b
    1ffe:	a001                	j	1ffe <I2C1_EV_IRQHandler>

00002000 <I2C1_ER_IRQHandler>:
I2C1_ER_IRQHandler():
E:/CODE/C/ch32v307/CHV307_Library/Example/libraries/sdk/Startup/startup_ch32v30x.S:275
I2C1_ER_IRQHandler:  1:  j 1b
    2000:	a001                	j	2000 <I2C1_ER_IRQHandler>

00002002 <I2C2_EV_IRQHandler>:
I2C2_EV_IRQHandler():
E:/CODE/C/ch32v307/CHV307_Library/Example/libraries/sdk/Startup/startup_ch32v30x.S:276
I2C2_EV_IRQHandler:  1:  j 1b
    2002:	a001                	j	2002 <I2C2_EV_IRQHandler>

00002004 <I2C2_ER_IRQHandler>:
I2C2_ER_IRQHandler():
E:/CODE/C/ch32v307/CHV307_Library/Example/libraries/sdk/Startup/startup_ch32v30x.S:277
I2C2_ER_IRQHandler:  1:  j 1b
    2004:	a001                	j	2004 <I2C2_ER_IRQHandler>

00002006 <SPI1_IRQHandler>:
SPI1_IRQHandler():
E:/CODE/C/ch32v307/CHV307_Library/Example/libraries/sdk/Startup/startup_ch32v30x.S:278
SPI1_IRQHandler:  1:  j 1b
    2006:	a001                	j	2006 <SPI1_IRQHandler>

00002008 <SPI2_IRQHandler>:
SPI2_IRQHandler():
E:/CODE/C/ch32v307/CHV307_Library/Example/libraries/sdk/Startup/startup_ch32v30x.S:279
SPI2_IRQHandler:  1:  j 1b
    2008:	a001                	j	2008 <SPI2_IRQHandler>
E:/CODE/C/ch32v307/CHV307_Library/Example/libraries/sdk/Startup/startup_ch32v30x.S:280
USART1_IRQHandler:  1:  j 1b
    200a:	a001                	j	200a <SPI2_IRQHandler+0x2>
E:/CODE/C/ch32v307/CHV307_Library/Example/libraries/sdk/Startup/startup_ch32v30x.S:281
USART2_IRQHandler:  1:  j 1b
    200c:	a001                	j	200c <SPI2_IRQHandler+0x4>
E:/CODE/C/ch32v307/CHV307_Library/Example/libraries/sdk/Startup/startup_ch32v30x.S:282
USART3_IRQHandler:  1:  j 1b
    200e:	a001                	j	200e <SPI2_IRQHandler+0x6>
E:/CODE/C/ch32v307/CHV307_Library/Example/libraries/sdk/Startup/startup_ch32v30x.S:283
EXTI15_10_IRQHandler:  1:  j 1b
    2010:	a001                	j	2010 <SPI2_IRQHandler+0x8>

00002012 <RTCAlarm_IRQHandler>:
RTCAlarm_IRQHandler():
E:/CODE/C/ch32v307/CHV307_Library/Example/libraries/sdk/Startup/startup_ch32v30x.S:284
RTCAlarm_IRQHandler:  1:  j 1b
    2012:	a001                	j	2012 <RTCAlarm_IRQHandler>

00002014 <USBWakeUp_IRQHandler>:
USBWakeUp_IRQHandler():
E:/CODE/C/ch32v307/CHV307_Library/Example/libraries/sdk/Startup/startup_ch32v30x.S:285
USBWakeUp_IRQHandler:  1:  j 1b
    2014:	a001                	j	2014 <USBWakeUp_IRQHandler>

00002016 <TIM8_BRK_IRQHandler>:
TIM8_BRK_IRQHandler():
E:/CODE/C/ch32v307/CHV307_Library/Example/libraries/sdk/Startup/startup_ch32v30x.S:286
TIM8_BRK_IRQHandler:  1:  j 1b
    2016:	a001                	j	2016 <TIM8_BRK_IRQHandler>
E:/CODE/C/ch32v307/CHV307_Library/Example/libraries/sdk/Startup/startup_ch32v30x.S:287
TIM8_UP_IRQHandler:  1:  j 1b
    2018:	a001                	j	2018 <TIM8_BRK_IRQHandler+0x2>

0000201a <TIM8_TRG_COM_IRQHandler>:
TIM8_TRG_COM_IRQHandler():
E:/CODE/C/ch32v307/CHV307_Library/Example/libraries/sdk/Startup/startup_ch32v30x.S:288
TIM8_TRG_COM_IRQHandler:  1:  j 1b
    201a:	a001                	j	201a <TIM8_TRG_COM_IRQHandler>

0000201c <TIM8_CC_IRQHandler>:
TIM8_CC_IRQHandler():
E:/CODE/C/ch32v307/CHV307_Library/Example/libraries/sdk/Startup/startup_ch32v30x.S:289
TIM8_CC_IRQHandler:  1:  j 1b
    201c:	a001                	j	201c <TIM8_CC_IRQHandler>

0000201e <RNG_IRQHandler>:
RNG_IRQHandler():
E:/CODE/C/ch32v307/CHV307_Library/Example/libraries/sdk/Startup/startup_ch32v30x.S:290
RNG_IRQHandler:  1:  j 1b
    201e:	a001                	j	201e <RNG_IRQHandler>

00002020 <FSMC_IRQHandler>:
FSMC_IRQHandler():
E:/CODE/C/ch32v307/CHV307_Library/Example/libraries/sdk/Startup/startup_ch32v30x.S:291
FSMC_IRQHandler:  1:  j 1b
    2020:	a001                	j	2020 <FSMC_IRQHandler>

00002022 <SDIO_IRQHandler>:
SDIO_IRQHandler():
E:/CODE/C/ch32v307/CHV307_Library/Example/libraries/sdk/Startup/startup_ch32v30x.S:292
SDIO_IRQHandler:  1:  j 1b
    2022:	a001                	j	2022 <SDIO_IRQHandler>
E:/CODE/C/ch32v307/CHV307_Library/Example/libraries/sdk/Startup/startup_ch32v30x.S:293
TIM5_IRQHandler:  1:  j 1b
    2024:	a001                	j	2024 <SDIO_IRQHandler+0x2>

00002026 <SPI3_IRQHandler>:
SPI3_IRQHandler():
E:/CODE/C/ch32v307/CHV307_Library/Example/libraries/sdk/Startup/startup_ch32v30x.S:294
SPI3_IRQHandler:  1:  j 1b
    2026:	a001                	j	2026 <SPI3_IRQHandler>
E:/CODE/C/ch32v307/CHV307_Library/Example/libraries/sdk/Startup/startup_ch32v30x.S:295
UART4_IRQHandler:  1:  j 1b
    2028:	a001                	j	2028 <SPI3_IRQHandler+0x2>
E:/CODE/C/ch32v307/CHV307_Library/Example/libraries/sdk/Startup/startup_ch32v30x.S:296
UART5_IRQHandler:  1:  j 1b
    202a:	a001                	j	202a <SPI3_IRQHandler+0x4>
E:/CODE/C/ch32v307/CHV307_Library/Example/libraries/sdk/Startup/startup_ch32v30x.S:297
TIM6_IRQHandler:  1:  j 1b
    202c:	a001                	j	202c <SPI3_IRQHandler+0x6>
E:/CODE/C/ch32v307/CHV307_Library/Example/libraries/sdk/Startup/startup_ch32v30x.S:298
TIM7_IRQHandler:  1:  j 1b
    202e:	a001                	j	202e <SPI3_IRQHandler+0x8>

00002030 <DMA2_Channel1_IRQHandler>:
DMA2_Channel1_IRQHandler():
E:/CODE/C/ch32v307/CHV307_Library/Example/libraries/sdk/Startup/startup_ch32v30x.S:299
DMA2_Channel1_IRQHandler:  1:  j 1b
    2030:	a001                	j	2030 <DMA2_Channel1_IRQHandler>

00002032 <DMA2_Channel2_IRQHandler>:
DMA2_Channel2_IRQHandler():
E:/CODE/C/ch32v307/CHV307_Library/Example/libraries/sdk/Startup/startup_ch32v30x.S:300
DMA2_Channel2_IRQHandler:  1:  j 1b
    2032:	a001                	j	2032 <DMA2_Channel2_IRQHandler>

00002034 <DMA2_Channel3_IRQHandler>:
DMA2_Channel3_IRQHandler():
E:/CODE/C/ch32v307/CHV307_Library/Example/libraries/sdk/Startup/startup_ch32v30x.S:301
DMA2_Channel3_IRQHandler:  1:  j 1b
    2034:	a001                	j	2034 <DMA2_Channel3_IRQHandler>

00002036 <DMA2_Channel4_IRQHandler>:
DMA2_Channel4_IRQHandler():
E:/CODE/C/ch32v307/CHV307_Library/Example/libraries/sdk/Startup/startup_ch32v30x.S:302
DMA2_Channel4_IRQHandler:  1:  j 1b
    2036:	a001                	j	2036 <DMA2_Channel4_IRQHandler>

00002038 <DMA2_Channel5_IRQHandler>:
DMA2_Channel5_IRQHandler():
E:/CODE/C/ch32v307/CHV307_Library/Example/libraries/sdk/Startup/startup_ch32v30x.S:303
DMA2_Channel5_IRQHandler:  1:  j 1b
    2038:	a001                	j	2038 <DMA2_Channel5_IRQHandler>

0000203a <ETH_IRQHandler>:
ETH_IRQHandler():
E:/CODE/C/ch32v307/CHV307_Library/Example/libraries/sdk/Startup/startup_ch32v30x.S:304
ETH_IRQHandler:  1:  j 1b
    203a:	a001                	j	203a <ETH_IRQHandler>

0000203c <ETH_WKUP_IRQHandler>:
ETH_WKUP_IRQHandler():
E:/CODE/C/ch32v307/CHV307_Library/Example/libraries/sdk/Startup/startup_ch32v30x.S:305
ETH_WKUP_IRQHandler:  1:  j 1b
    203c:	a001                	j	203c <ETH_WKUP_IRQHandler>

0000203e <CAN2_TX_IRQHandler>:
CAN2_TX_IRQHandler():
E:/CODE/C/ch32v307/CHV307_Library/Example/libraries/sdk/Startup/startup_ch32v30x.S:306
CAN2_TX_IRQHandler:  1:  j 1b
    203e:	a001                	j	203e <CAN2_TX_IRQHandler>

00002040 <CAN2_RX0_IRQHandler>:
CAN2_RX0_IRQHandler():
E:/CODE/C/ch32v307/CHV307_Library/Example/libraries/sdk/Startup/startup_ch32v30x.S:307
CAN2_RX0_IRQHandler:  1:  j 1b
    2040:	a001                	j	2040 <CAN2_RX0_IRQHandler>

00002042 <CAN2_RX1_IRQHandler>:
CAN2_RX1_IRQHandler():
E:/CODE/C/ch32v307/CHV307_Library/Example/libraries/sdk/Startup/startup_ch32v30x.S:308
CAN2_RX1_IRQHandler:  1:  j 1b
    2042:	a001                	j	2042 <CAN2_RX1_IRQHandler>

00002044 <CAN2_SCE_IRQHandler>:
CAN2_SCE_IRQHandler():
E:/CODE/C/ch32v307/CHV307_Library/Example/libraries/sdk/Startup/startup_ch32v30x.S:309
CAN2_SCE_IRQHandler:  1:  j 1b
    2044:	a001                	j	2044 <CAN2_SCE_IRQHandler>
E:/CODE/C/ch32v307/CHV307_Library/Example/libraries/sdk/Startup/startup_ch32v30x.S:310
OTG_FS_IRQHandler:  1:  j 1b
    2046:	a001                	j	2046 <CAN2_SCE_IRQHandler+0x2>

00002048 <USBHSWakeup_IRQHandler>:
USBHSWakeup_IRQHandler():
E:/CODE/C/ch32v307/CHV307_Library/Example/libraries/sdk/Startup/startup_ch32v30x.S:311
USBHSWakeup_IRQHandler:  1:  j 1b
    2048:	a001                	j	2048 <USBHSWakeup_IRQHandler>

0000204a <USBHS_IRQHandler>:
USBHS_IRQHandler():
E:/CODE/C/ch32v307/CHV307_Library/Example/libraries/sdk/Startup/startup_ch32v30x.S:312
USBHS_IRQHandler:  1:  j 1b
    204a:	a001                	j	204a <USBHS_IRQHandler>
E:/CODE/C/ch32v307/CHV307_Library/Example/libraries/sdk/Startup/startup_ch32v30x.S:313
DVP_IRQHandler:  1:  j 1b
    204c:	a001                	j	204c <USBHS_IRQHandler+0x2>
E:/CODE/C/ch32v307/CHV307_Library/Example/libraries/sdk/Startup/startup_ch32v30x.S:314
UART6_IRQHandler:  1:  j 1b
    204e:	a001                	j	204e <USBHS_IRQHandler+0x4>
E:/CODE/C/ch32v307/CHV307_Library/Example/libraries/sdk/Startup/startup_ch32v30x.S:315
UART7_IRQHandler:  1:  j 1b
    2050:	a001                	j	2050 <USBHS_IRQHandler+0x6>
E:/CODE/C/ch32v307/CHV307_Library/Example/libraries/sdk/Startup/startup_ch32v30x.S:316
UART8_IRQHandler:  1:  j 1b
    2052:	a001                	j	2052 <USBHS_IRQHandler+0x8>

00002054 <TIM9_BRK_IRQHandler>:
TIM9_BRK_IRQHandler():
E:/CODE/C/ch32v307/CHV307_Library/Example/libraries/sdk/Startup/startup_ch32v30x.S:317
TIM9_BRK_IRQHandler:  1:  j 1b
    2054:	a001                	j	2054 <TIM9_BRK_IRQHandler>
E:/CODE/C/ch32v307/CHV307_Library/Example/libraries/sdk/Startup/startup_ch32v30x.S:318
TIM9_UP_IRQHandler:  1:  j 1b
    2056:	a001                	j	2056 <TIM9_BRK_IRQHandler+0x2>

00002058 <TIM9_TRG_COM_IRQHandler>:
TIM9_TRG_COM_IRQHandler():
E:/CODE/C/ch32v307/CHV307_Library/Example/libraries/sdk/Startup/startup_ch32v30x.S:319
TIM9_TRG_COM_IRQHandler:  1:  j 1b
    2058:	a001                	j	2058 <TIM9_TRG_COM_IRQHandler>

0000205a <TIM9_CC_IRQHandler>:
TIM9_CC_IRQHandler():
E:/CODE/C/ch32v307/CHV307_Library/Example/libraries/sdk/Startup/startup_ch32v30x.S:320
TIM9_CC_IRQHandler:  1:  j 1b
    205a:	a001                	j	205a <TIM9_CC_IRQHandler>

0000205c <TIM10_BRK_IRQHandler>:
TIM10_BRK_IRQHandler():
E:/CODE/C/ch32v307/CHV307_Library/Example/libraries/sdk/Startup/startup_ch32v30x.S:321
TIM10_BRK_IRQHandler:  1:  j 1b
    205c:	a001                	j	205c <TIM10_BRK_IRQHandler>
E:/CODE/C/ch32v307/CHV307_Library/Example/libraries/sdk/Startup/startup_ch32v30x.S:322
TIM10_UP_IRQHandler:  1:  j 1b
    205e:	a001                	j	205e <TIM10_BRK_IRQHandler+0x2>

00002060 <TIM10_TRG_COM_IRQHandler>:
TIM10_TRG_COM_IRQHandler():
E:/CODE/C/ch32v307/CHV307_Library/Example/libraries/sdk/Startup/startup_ch32v30x.S:323
TIM10_TRG_COM_IRQHandler:  1:  j 1b
    2060:	a001                	j	2060 <TIM10_TRG_COM_IRQHandler>

00002062 <TIM10_CC_IRQHandler>:
TIM10_CC_IRQHandler():
E:/CODE/C/ch32v307/CHV307_Library/Example/libraries/sdk/Startup/startup_ch32v30x.S:324
TIM10_CC_IRQHandler:  1:  j 1b
    2062:	a001                	j	2062 <TIM10_CC_IRQHandler>

00002064 <DMA2_Channel6_IRQHandler>:
DMA2_Channel6_IRQHandler():
E:/CODE/C/ch32v307/CHV307_Library/Example/libraries/sdk/Startup/startup_ch32v30x.S:325
DMA2_Channel6_IRQHandler:  1:  j 1b
    2064:	a001                	j	2064 <DMA2_Channel6_IRQHandler>

00002066 <DMA2_Channel7_IRQHandler>:
DMA2_Channel7_IRQHandler():
E:/CODE/C/ch32v307/CHV307_Library/Example/libraries/sdk/Startup/startup_ch32v30x.S:326
DMA2_Channel7_IRQHandler:  1:  j 1b
    2066:	a001                	j	2066 <DMA2_Channel7_IRQHandler>

00002068 <DMA2_Channel8_IRQHandler>:
DMA2_Channel8_IRQHandler():
E:/CODE/C/ch32v307/CHV307_Library/Example/libraries/sdk/Startup/startup_ch32v30x.S:327
DMA2_Channel8_IRQHandler:  1:  j 1b
    2068:	a001                	j	2068 <DMA2_Channel8_IRQHandler>

0000206a <DMA2_Channel9_IRQHandler>:
DMA2_Channel9_IRQHandler():
E:/CODE/C/ch32v307/CHV307_Library/Example/libraries/sdk/Startup/startup_ch32v30x.S:328
DMA2_Channel9_IRQHandler:  1:  j 1b
    206a:	a001                	j	206a <DMA2_Channel9_IRQHandler>

0000206c <DMA2_Channel10_IRQHandler>:
DMA2_Channel10_IRQHandler():
E:/CODE/C/ch32v307/CHV307_Library/Example/libraries/sdk/Startup/startup_ch32v30x.S:329
DMA2_Channel10_IRQHandler:  1:  j 1b
    206c:	a001                	j	206c <DMA2_Channel10_IRQHandler>

0000206e <DMA2_Channel11_IRQHandler>:
DMA2_Channel11_IRQHandler():
E:/CODE/C/ch32v307/CHV307_Library/Example/libraries/sdk/Startup/startup_ch32v30x.S:330
DMA2_Channel11_IRQHandler:  1:  j 1b
    206e:	a001                	j	206e <DMA2_Channel11_IRQHandler>

00002070 <handle_reset>:
handle_reset():
E:/CODE/C/ch32v307/CHV307_Library/Example/libraries/sdk/Startup/startup_ch32v30x.S:340
	.align	1
handle_reset:
.option push 
.option	norelax 

    csrw mepc, t0
    2070:	34129073          	csrw	mepc,t0
E:/CODE/C/ch32v307/CHV307_Library/Example/libraries/sdk/Startup/startup_ch32v30x.S:341
	la gp, __global_pointer$
    2074:	1ffff197          	auipc	gp,0x1ffff
    2078:	9ac18193          	addi	gp,gp,-1620 # 20000a20 <__global_pointer$>
E:/CODE/C/ch32v307/CHV307_Library/Example/libraries/sdk/Startup/startup_ch32v30x.S:344
.option	pop 
1:
	la sp, _eusrstack 
    207c:	2000e117          	auipc	sp,0x2000e
    2080:	f8410113          	addi	sp,sp,-124 # 20010000 <_eusrstack>
E:/CODE/C/ch32v307/CHV307_Library/Example/libraries/sdk/Startup/startup_ch32v30x.S:347
2:
	/* Load data section from flash to RAM */
	la a0, _data_lma
    2084:	00007517          	auipc	a0,0x7
    2088:	5a050513          	addi	a0,a0,1440 # 9624 <_data_lma>
E:/CODE/C/ch32v307/CHV307_Library/Example/libraries/sdk/Startup/startup_ch32v30x.S:348
	la a1, _data_vma
    208c:	1fffe597          	auipc	a1,0x1fffe
    2090:	f7458593          	addi	a1,a1,-140 # 20000000 <_data_vma>
E:/CODE/C/ch32v307/CHV307_Library/Example/libraries/sdk/Startup/startup_ch32v30x.S:349
	la a2, _edata
    2094:	83018613          	addi	a2,gp,-2000 # 20000250 <_edata>
E:/CODE/C/ch32v307/CHV307_Library/Example/libraries/sdk/Startup/startup_ch32v30x.S:350
	bgeu a1, a2, 2f
    2098:	00c5fa63          	bgeu	a1,a2,20ac <handle_reset+0x3c>
E:/CODE/C/ch32v307/CHV307_Library/Example/libraries/sdk/Startup/startup_ch32v30x.S:352
1:
	lw t0, (a0)
    209c:	00052283          	lw	t0,0(a0)
E:/CODE/C/ch32v307/CHV307_Library/Example/libraries/sdk/Startup/startup_ch32v30x.S:353
	sw t0, (a1)
    20a0:	0055a023          	sw	t0,0(a1)
E:/CODE/C/ch32v307/CHV307_Library/Example/libraries/sdk/Startup/startup_ch32v30x.S:354
	addi a0, a0, 4
    20a4:	0511                	addi	a0,a0,4
E:/CODE/C/ch32v307/CHV307_Library/Example/libraries/sdk/Startup/startup_ch32v30x.S:355
	addi a1, a1, 4
    20a6:	0591                	addi	a1,a1,4
E:/CODE/C/ch32v307/CHV307_Library/Example/libraries/sdk/Startup/startup_ch32v30x.S:356
	bltu a1, a2, 1b
    20a8:	fec5eae3          	bltu	a1,a2,209c <handle_reset+0x2c>
E:/CODE/C/ch32v307/CHV307_Library/Example/libraries/sdk/Startup/startup_ch32v30x.S:359
2:
	/* Clear bss section */
	la a0, _sbss
    20ac:	83018513          	addi	a0,gp,-2000 # 20000250 <_edata>
E:/CODE/C/ch32v307/CHV307_Library/Example/libraries/sdk/Startup/startup_ch32v30x.S:360
	la a1, _ebss
    20b0:	ce418593          	addi	a1,gp,-796 # 20000704 <_ebss>
E:/CODE/C/ch32v307/CHV307_Library/Example/libraries/sdk/Startup/startup_ch32v30x.S:361
	bgeu a0, a1, 2f
    20b4:	00b57763          	bgeu	a0,a1,20c2 <handle_reset+0x52>
E:/CODE/C/ch32v307/CHV307_Library/Example/libraries/sdk/Startup/startup_ch32v30x.S:363
1:
	sw zero, (a0)
    20b8:	00052023          	sw	zero,0(a0)
E:/CODE/C/ch32v307/CHV307_Library/Example/libraries/sdk/Startup/startup_ch32v30x.S:364
	addi a0, a0, 4
    20bc:	0511                	addi	a0,a0,4
E:/CODE/C/ch32v307/CHV307_Library/Example/libraries/sdk/Startup/startup_ch32v30x.S:365
	bltu a0, a1, 1b
    20be:	feb56de3          	bltu	a0,a1,20b8 <handle_reset+0x48>
E:/CODE/C/ch32v307/CHV307_Library/Example/libraries/sdk/Startup/startup_ch32v30x.S:367
2:
    li t0, 0x1f
    20c2:	42fd                	li	t0,31
E:/CODE/C/ch32v307/CHV307_Library/Example/libraries/sdk/Startup/startup_ch32v30x.S:368
    csrw 0xbc0, t0
    20c4:	bc029073          	csrw	0xbc0,t0
E:/CODE/C/ch32v307/CHV307_Library/Example/libraries/sdk/Startup/startup_ch32v30x.S:371

    /* Enable nested and hardware stack */
	li t0, 0x1f
    20c8:	42fd                	li	t0,31
E:/CODE/C/ch32v307/CHV307_Library/Example/libraries/sdk/Startup/startup_ch32v30x.S:372
	csrw 0x804, t0
    20ca:	80429073          	csrw	0x804,t0
E:/CODE/C/ch32v307/CHV307_Library/Example/libraries/sdk/Startup/startup_ch32v30x.S:376

    /* Enable floating point and interrupt */

   	li t0, 0x7888
    20ce:	000082b7          	lui	t0,0x8
    20d2:	88828293          	addi	t0,t0,-1912 # 7888 <_fflush_r+0x34>
E:/CODE/C/ch32v307/CHV307_Library/Example/libraries/sdk/Startup/startup_ch32v30x.S:377
   	csrs mstatus, t0
    20d6:	3002a073          	csrs	mstatus,t0
E:/CODE/C/ch32v307/CHV307_Library/Example/libraries/sdk/Startup/startup_ch32v30x.S:379

 	la t0, _vector_base
    20da:	ffffe297          	auipc	t0,0xffffe
    20de:	f5e28293          	addi	t0,t0,-162 # 38 <_einit>
E:/CODE/C/ch32v307/CHV307_Library/Example/libraries/sdk/Startup/startup_ch32v30x.S:380
    ori t0, t0, 3           
    20e2:	0032e293          	ori	t0,t0,3
E:/CODE/C/ch32v307/CHV307_Library/Example/libraries/sdk/Startup/startup_ch32v30x.S:381
	csrw mtvec, t0
    20e6:	30529073          	csrw	mtvec,t0
E:/CODE/C/ch32v307/CHV307_Library/Example/libraries/sdk/Startup/startup_ch32v30x.S:383

    jal  SystemInit
    20ea:	014000ef          	jal	ra,20fe <SystemInit>
E:/CODE/C/ch32v307/CHV307_Library/Example/libraries/sdk/Startup/startup_ch32v30x.S:384
	la t0, main
    20ee:	00000297          	auipc	t0,0x0
    20f2:	acc28293          	addi	t0,t0,-1332 # 1bba <main>
E:/CODE/C/ch32v307/CHV307_Library/Example/libraries/sdk/Startup/startup_ch32v30x.S:385
	csrw mepc, t0
    20f6:	34129073          	csrw	mepc,t0
E:/CODE/C/ch32v307/CHV307_Library/Example/libraries/sdk/Startup/startup_ch32v30x.S:386
	mret
    20fa:	30200073          	mret

000020fe <SystemInit>:
SystemInit():
E:/CODE/C/ch32v307/CHV307_Library/Example/libraries/sdk/Startup/system_ch32v30x.c:83
*                  the PLL and update the SystemCoreClock variable.
* Input          : None
* Return         : None
*******************************************************************************************/
void SystemInit (void)
{
    20fe:	1141                	addi	sp,sp,-16
    2100:	c606                	sw	ra,12(sp)
    2102:	c422                	sw	s0,8(sp)
    2104:	0800                	addi	s0,sp,16
E:/CODE/C/ch32v307/CHV307_Library/Example/libraries/sdk/Startup/system_ch32v30x.c:84
  RCC->CTLR |= (uint32_t)0x00000001;
    2106:	400217b7          	lui	a5,0x40021
    210a:	4398                	lw	a4,0(a5)
    210c:	400217b7          	lui	a5,0x40021
    2110:	00176713          	ori	a4,a4,1
    2114:	c398                	sw	a4,0(a5)
E:/CODE/C/ch32v307/CHV307_Library/Example/libraries/sdk/Startup/system_ch32v30x.c:85
  RCC->CFGR0 &= (uint32_t)0xF8FF0000;
    2116:	400217b7          	lui	a5,0x40021
    211a:	43d4                	lw	a3,4(a5)
    211c:	400217b7          	lui	a5,0x40021
    2120:	f8ff0737          	lui	a4,0xf8ff0
    2124:	8f75                	and	a4,a4,a3
    2126:	c3d8                	sw	a4,4(a5)
E:/CODE/C/ch32v307/CHV307_Library/Example/libraries/sdk/Startup/system_ch32v30x.c:86
  RCC->CTLR &= (uint32_t)0xFEF6FFFF;
    2128:	400217b7          	lui	a5,0x40021
    212c:	4394                	lw	a3,0(a5)
    212e:	400217b7          	lui	a5,0x40021
    2132:	fef70737          	lui	a4,0xfef70
    2136:	177d                	addi	a4,a4,-1
    2138:	8f75                	and	a4,a4,a3
    213a:	c398                	sw	a4,0(a5)
E:/CODE/C/ch32v307/CHV307_Library/Example/libraries/sdk/Startup/system_ch32v30x.c:87
  RCC->CTLR &= (uint32_t)0xFFFBFFFF;
    213c:	400217b7          	lui	a5,0x40021
    2140:	4394                	lw	a3,0(a5)
    2142:	400217b7          	lui	a5,0x40021
    2146:	fffc0737          	lui	a4,0xfffc0
    214a:	177d                	addi	a4,a4,-1
    214c:	8f75                	and	a4,a4,a3
    214e:	c398                	sw	a4,0(a5)
E:/CODE/C/ch32v307/CHV307_Library/Example/libraries/sdk/Startup/system_ch32v30x.c:88
  RCC->CFGR0 &= (uint32_t)0xFF80FFFF;
    2150:	400217b7          	lui	a5,0x40021
    2154:	43d4                	lw	a3,4(a5)
    2156:	400217b7          	lui	a5,0x40021
    215a:	ff810737          	lui	a4,0xff810
    215e:	177d                	addi	a4,a4,-1
    2160:	8f75                	and	a4,a4,a3
    2162:	c3d8                	sw	a4,4(a5)
E:/CODE/C/ch32v307/CHV307_Library/Example/libraries/sdk/Startup/system_ch32v30x.c:89
  RCC->INTR = 0x009F0000;    
    2164:	400217b7          	lui	a5,0x40021
    2168:	009f0737          	lui	a4,0x9f0
    216c:	c798                	sw	a4,8(a5)
E:/CODE/C/ch32v307/CHV307_Library/Example/libraries/sdk/Startup/system_ch32v30x.c:90
  SetSysClock();
    216e:	2031                	jal	217a <SetSysClock>
E:/CODE/C/ch32v307/CHV307_Library/Example/libraries/sdk/Startup/system_ch32v30x.c:91
}
    2170:	0001                	nop
    2172:	40b2                	lw	ra,12(sp)
    2174:	4422                	lw	s0,8(sp)
    2176:	0141                	addi	sp,sp,16
    2178:	8082                	ret

0000217a <SetSysClock>:
SetSysClock():
E:/CODE/C/ch32v307/CHV307_Library/Example/libraries/sdk/Startup/system_ch32v30x.c:168
* Description    : Configures the System clock frequency, HCLK, PCLK2 and PCLK1 prescalers. 
* Input          : None
* Return         : None
*******************************************************************************************/
static void SetSysClock(void)
{
    217a:	1141                	addi	sp,sp,-16
    217c:	c606                	sw	ra,12(sp)
    217e:	c422                	sw	s0,8(sp)
    2180:	0800                	addi	s0,sp,16
E:/CODE/C/ch32v307/CHV307_Library/Example/libraries/sdk/Startup/system_ch32v30x.c:185
#elif defined SYSCLK_FREQ_96MHz
  SetSysClockTo96();
#elif defined SYSCLK_FREQ_120MHz
  SetSysClockTo120();
#elif defined SYSCLK_FREQ_144MHz
  SetSysClockTo144();
    2182:	2031                	jal	218e <SetSysClockTo144>
E:/CODE/C/ch32v307/CHV307_Library/Example/libraries/sdk/Startup/system_ch32v30x.c:193
#endif
 
 /* If none of the define above is enabled, the HSI is used as System clock
  * source (default after reset) 
	*/ 
}
    2184:	0001                	nop
    2186:	40b2                	lw	ra,12(sp)
    2188:	4422                	lw	s0,8(sp)
    218a:	0141                	addi	sp,sp,16
    218c:	8082                	ret

0000218e <SetSysClockTo144>:
SetSysClockTo144():
E:/CODE/C/ch32v307/CHV307_Library/Example/libraries/sdk/Startup/system_ch32v30x.c:745
* Description    : Sets System clock frequency to 144MHz and configure HCLK, PCLK2 and PCLK1 prescalers.
* Input          : None
* Return         : None
*******************************************************************************************/
static void SetSysClockTo144(void)
{
    218e:	1101                	addi	sp,sp,-32
    2190:	ce22                	sw	s0,28(sp)
    2192:	1000                	addi	s0,sp,32
E:/CODE/C/ch32v307/CHV307_Library/Example/libraries/sdk/Startup/system_ch32v30x.c:746
  __IO uint32_t StartUpCounter = 0, HSEStatus = 0;
    2194:	fe042623          	sw	zero,-20(s0)
    2198:	fe042423          	sw	zero,-24(s0)
E:/CODE/C/ch32v307/CHV307_Library/Example/libraries/sdk/Startup/system_ch32v30x.c:748

  RCC->CTLR |= ((uint32_t)RCC_HSEON);
    219c:	400217b7          	lui	a5,0x40021
    21a0:	4394                	lw	a3,0(a5)
    21a2:	400217b7          	lui	a5,0x40021
    21a6:	6741                	lui	a4,0x10
    21a8:	8f55                	or	a4,a4,a3
    21aa:	c398                	sw	a4,0(a5)
E:/CODE/C/ch32v307/CHV307_Library/Example/libraries/sdk/Startup/system_ch32v30x.c:753 (discriminator 2)

  /* Wait till HSE is ready and if Time out is reached exit */
  do
  {
    HSEStatus = RCC->CTLR & RCC_HSERDY;
    21ac:	400217b7          	lui	a5,0x40021
    21b0:	4398                	lw	a4,0(a5)
    21b2:	000207b7          	lui	a5,0x20
    21b6:	8ff9                	and	a5,a5,a4
    21b8:	fef42423          	sw	a5,-24(s0)
E:/CODE/C/ch32v307/CHV307_Library/Example/libraries/sdk/Startup/system_ch32v30x.c:754 (discriminator 2)
    StartUpCounter++;
    21bc:	fec42783          	lw	a5,-20(s0)
    21c0:	0785                	addi	a5,a5,1
    21c2:	fef42623          	sw	a5,-20(s0)
E:/CODE/C/ch32v307/CHV307_Library/Example/libraries/sdk/Startup/system_ch32v30x.c:755 (discriminator 2)
  } while((HSEStatus == 0) && (StartUpCounter != HSE_STARTUP_TIMEOUT));
    21c6:	fe842783          	lw	a5,-24(s0)
    21ca:	e799                	bnez	a5,21d8 <SetSysClockTo144+0x4a>
E:/CODE/C/ch32v307/CHV307_Library/Example/libraries/sdk/Startup/system_ch32v30x.c:755 (discriminator 1)
    21cc:	fec42703          	lw	a4,-20(s0)
    21d0:	50000793          	li	a5,1280
    21d4:	fcf71ce3          	bne	a4,a5,21ac <SetSysClockTo144+0x1e>
E:/CODE/C/ch32v307/CHV307_Library/Example/libraries/sdk/Startup/system_ch32v30x.c:757

  if ((RCC->CTLR & RCC_HSERDY) != RESET)
    21d8:	400217b7          	lui	a5,0x40021
    21dc:	4398                	lw	a4,0(a5)
    21de:	000207b7          	lui	a5,0x20
    21e2:	8ff9                	and	a5,a5,a4
    21e4:	c789                	beqz	a5,21ee <SetSysClockTo144+0x60>
E:/CODE/C/ch32v307/CHV307_Library/Example/libraries/sdk/Startup/system_ch32v30x.c:759
  {
    HSEStatus = (uint32_t)0x01;
    21e6:	4785                	li	a5,1
    21e8:	fef42423          	sw	a5,-24(s0)
    21ec:	a019                	j	21f2 <SetSysClockTo144+0x64>
E:/CODE/C/ch32v307/CHV307_Library/Example/libraries/sdk/Startup/system_ch32v30x.c:763
  }
  else
  {
    HSEStatus = (uint32_t)0x00;
    21ee:	fe042423          	sw	zero,-24(s0)
E:/CODE/C/ch32v307/CHV307_Library/Example/libraries/sdk/Startup/system_ch32v30x.c:766
  }

  if (HSEStatus == (uint32_t)0x01)
    21f2:	fe842703          	lw	a4,-24(s0)
    21f6:	4785                	li	a5,1
    21f8:	0ef71863          	bne	a4,a5,22e8 <SetSysClockTo144+0x15a>
E:/CODE/C/ch32v307/CHV307_Library/Example/libraries/sdk/Startup/system_ch32v30x.c:769
  {
    /* Enable Prefetch Buffer */
    FLASH->ACTLR |= FLASH_ACTLR_PRFTBE;
    21fc:	400227b7          	lui	a5,0x40022
    2200:	4398                	lw	a4,0(a5)
    2202:	400227b7          	lui	a5,0x40022
    2206:	01076713          	ori	a4,a4,16
    220a:	c398                	sw	a4,0(a5)
E:/CODE/C/ch32v307/CHV307_Library/Example/libraries/sdk/Startup/system_ch32v30x.c:772

    /* Flash 2 wait state */
    FLASH->ACTLR &= (uint32_t)((uint32_t)~FLASH_ACTLR_LATENCY);
    220c:	400227b7          	lui	a5,0x40022
    2210:	4398                	lw	a4,0(a5)
    2212:	400227b7          	lui	a5,0x40022
    2216:	9b71                	andi	a4,a4,-4
    2218:	c398                	sw	a4,0(a5)
E:/CODE/C/ch32v307/CHV307_Library/Example/libraries/sdk/Startup/system_ch32v30x.c:773
    FLASH->ACTLR |= (uint32_t)FLASH_ACTLR_LATENCY_2;
    221a:	400227b7          	lui	a5,0x40022
    221e:	4398                	lw	a4,0(a5)
    2220:	400227b7          	lui	a5,0x40022
    2224:	00276713          	ori	a4,a4,2
    2228:	c398                	sw	a4,0(a5)
E:/CODE/C/ch32v307/CHV307_Library/Example/libraries/sdk/Startup/system_ch32v30x.c:776

    /* HCLK = SYSCLK */
    RCC->CFGR0 |= (uint32_t)RCC_HPRE_DIV1;
    222a:	40021737          	lui	a4,0x40021
    222e:	400217b7          	lui	a5,0x40021
    2232:	4358                	lw	a4,4(a4)
    2234:	c3d8                	sw	a4,4(a5)
E:/CODE/C/ch32v307/CHV307_Library/Example/libraries/sdk/Startup/system_ch32v30x.c:778
    /* PCLK2 = HCLK */
    RCC->CFGR0 |= (uint32_t)RCC_PPRE2_DIV1;
    2236:	40021737          	lui	a4,0x40021
    223a:	400217b7          	lui	a5,0x40021
    223e:	4358                	lw	a4,4(a4)
    2240:	c3d8                	sw	a4,4(a5)
E:/CODE/C/ch32v307/CHV307_Library/Example/libraries/sdk/Startup/system_ch32v30x.c:780
    /* PCLK1 = HCLK */
    RCC->CFGR0 |= (uint32_t)RCC_PPRE1_DIV1;
    2242:	40021737          	lui	a4,0x40021
    2246:	400217b7          	lui	a5,0x40021
    224a:	4358                	lw	a4,4(a4)
    224c:	c3d8                	sw	a4,4(a5)
E:/CODE/C/ch32v307/CHV307_Library/Example/libraries/sdk/Startup/system_ch32v30x.c:783

    /*  PLL configuration: PLLCLK = HSE * 18 = 144 MHz */
    RCC->CFGR0 &= (uint32_t)((uint32_t)~(RCC_PLLSRC | RCC_PLLXTPRE |
    224e:	400217b7          	lui	a5,0x40021
    2252:	43d4                	lw	a3,4(a5)
    2254:	400217b7          	lui	a5,0x40021
    2258:	ffc10737          	lui	a4,0xffc10
    225c:	177d                	addi	a4,a4,-1
    225e:	8f75                	and	a4,a4,a3
    2260:	c3d8                	sw	a4,4(a5)
E:/CODE/C/ch32v307/CHV307_Library/Example/libraries/sdk/Startup/system_ch32v30x.c:786
                                        RCC_PLLMULL));

    if(((*(uint32_t*)0x1FFFF70C) & (1<<14)) != (1<<14)){
    2262:	1ffff7b7          	lui	a5,0x1ffff
    2266:	70c78793          	addi	a5,a5,1804 # 1ffff70c <_data_lma+0x1fff60e8>
    226a:	4398                	lw	a4,0(a5)
    226c:	6791                	lui	a5,0x4
    226e:	8ff9                	and	a5,a5,a4
    2270:	eb99                	bnez	a5,2286 <SetSysClockTo144+0xf8>
E:/CODE/C/ch32v307/CHV307_Library/Example/libraries/sdk/Startup/system_ch32v30x.c:787
        RCC->CFGR0 |= (uint32_t)(RCC_PLLSRC_HSE | RCC_PLLXTPRE_HSE | RCC_PLLMULL18);
    2272:	400217b7          	lui	a5,0x40021
    2276:	43d4                	lw	a3,4(a5)
    2278:	400217b7          	lui	a5,0x40021
    227c:	003d0737          	lui	a4,0x3d0
    2280:	8f55                	or	a4,a4,a3
    2282:	c3d8                	sw	a4,4(a5)
    2284:	a809                	j	2296 <SetSysClockTo144+0x108>
E:/CODE/C/ch32v307/CHV307_Library/Example/libraries/sdk/Startup/system_ch32v30x.c:790
    }
    else{
        RCC->CFGR0 |= (uint32_t)(RCC_PLLSRC_HSE | RCC_PLLXTPRE_HSE | RCC_PLLMULL18_EXTEN);
    2286:	400217b7          	lui	a5,0x40021
    228a:	43d4                	lw	a3,4(a5)
    228c:	400217b7          	lui	a5,0x40021
    2290:	6741                	lui	a4,0x10
    2292:	8f55                	or	a4,a4,a3
    2294:	c3d8                	sw	a4,4(a5)
E:/CODE/C/ch32v307/CHV307_Library/Example/libraries/sdk/Startup/system_ch32v30x.c:794
    }

    /* Enable PLL */
    RCC->CTLR |= RCC_PLLON;
    2296:	400217b7          	lui	a5,0x40021
    229a:	4394                	lw	a3,0(a5)
    229c:	400217b7          	lui	a5,0x40021
    22a0:	01000737          	lui	a4,0x1000
    22a4:	8f55                	or	a4,a4,a3
    22a6:	c398                	sw	a4,0(a5)
E:/CODE/C/ch32v307/CHV307_Library/Example/libraries/sdk/Startup/system_ch32v30x.c:796
    /* Wait till PLL is ready */
    while((RCC->CTLR & RCC_PLLRDY) == 0)
    22a8:	0001                	nop
E:/CODE/C/ch32v307/CHV307_Library/Example/libraries/sdk/Startup/system_ch32v30x.c:796 (discriminator 1)
    22aa:	400217b7          	lui	a5,0x40021
    22ae:	4398                	lw	a4,0(a5)
    22b0:	020007b7          	lui	a5,0x2000
    22b4:	8ff9                	and	a5,a5,a4
    22b6:	dbf5                	beqz	a5,22aa <SetSysClockTo144+0x11c>
E:/CODE/C/ch32v307/CHV307_Library/Example/libraries/sdk/Startup/system_ch32v30x.c:800
    {
    }
    /* Select PLL as system clock source */
    RCC->CFGR0 &= (uint32_t)((uint32_t)~(RCC_SW));
    22b8:	400217b7          	lui	a5,0x40021
    22bc:	43d8                	lw	a4,4(a5)
    22be:	400217b7          	lui	a5,0x40021
    22c2:	9b71                	andi	a4,a4,-4
    22c4:	c3d8                	sw	a4,4(a5)
E:/CODE/C/ch32v307/CHV307_Library/Example/libraries/sdk/Startup/system_ch32v30x.c:801
    RCC->CFGR0 |= (uint32_t)RCC_SW_PLL;
    22c6:	400217b7          	lui	a5,0x40021
    22ca:	43d8                	lw	a4,4(a5)
    22cc:	400217b7          	lui	a5,0x40021
    22d0:	00276713          	ori	a4,a4,2
    22d4:	c3d8                	sw	a4,4(a5)
E:/CODE/C/ch32v307/CHV307_Library/Example/libraries/sdk/Startup/system_ch32v30x.c:803
    /* Wait till PLL is used as system clock source */
    while ((RCC->CFGR0 & (uint32_t)RCC_SWS) != (uint32_t)0x08)
    22d6:	0001                	nop
E:/CODE/C/ch32v307/CHV307_Library/Example/libraries/sdk/Startup/system_ch32v30x.c:803 (discriminator 1)
    22d8:	400217b7          	lui	a5,0x40021
    22dc:	43dc                	lw	a5,4(a5)
    22de:	00c7f713          	andi	a4,a5,12
    22e2:	47a1                	li	a5,8
    22e4:	fef71ae3          	bne	a4,a5,22d8 <SetSysClockTo144+0x14a>
E:/CODE/C/ch32v307/CHV307_Library/Example/libraries/sdk/Startup/system_ch32v30x.c:814
        /*
         * If HSE fails to start-up, the application will have wrong clock
     * configuration. User can add here some code to deal with this error
         */
  }
}
    22e8:	0001                	nop
    22ea:	4472                	lw	s0,28(sp)
    22ec:	6105                	addi	sp,sp,32
    22ee:	8082                	ret

000022f0 <EXTI_GetITStatus>:
EXTI_GetITStatus():
E:/CODE/C/ch32v307/CHV307_Library/Example/libraries/sdk/Peripheral/ch32v30x_exti.c:131
* Description    : Checks whether the specified EXTI line is asserted or not.
* Input          : EXTI_Line: specifies the EXTI lines to be enabled or disabled.
* Return         : The new state of EXTI_Line (SET or RESET).
*********************************************************************************/	
ITStatus EXTI_GetITStatus(uint32_t EXTI_Line)
{
    22f0:	7179                	addi	sp,sp,-48
    22f2:	d622                	sw	s0,44(sp)
    22f4:	1800                	addi	s0,sp,48
    22f6:	fca42e23          	sw	a0,-36(s0)
E:/CODE/C/ch32v307/CHV307_Library/Example/libraries/sdk/Peripheral/ch32v30x_exti.c:132
  ITStatus bitstatus = RESET;
    22fa:	fe042623          	sw	zero,-20(s0)
E:/CODE/C/ch32v307/CHV307_Library/Example/libraries/sdk/Peripheral/ch32v30x_exti.c:133
  uint32_t enablestatus = 0;
    22fe:	fe042423          	sw	zero,-24(s0)
E:/CODE/C/ch32v307/CHV307_Library/Example/libraries/sdk/Peripheral/ch32v30x_exti.c:135
  
  enablestatus =  EXTI->INTENR & EXTI_Line;
    2302:	400107b7          	lui	a5,0x40010
    2306:	40078793          	addi	a5,a5,1024 # 40010400 <_eusrstack+0x20000400>
    230a:	439c                	lw	a5,0(a5)
    230c:	fdc42703          	lw	a4,-36(s0)
    2310:	8ff9                	and	a5,a5,a4
    2312:	fef42423          	sw	a5,-24(s0)
E:/CODE/C/ch32v307/CHV307_Library/Example/libraries/sdk/Peripheral/ch32v30x_exti.c:136
  if (((EXTI->INTFR & EXTI_Line) != (uint32_t)RESET) && (enablestatus != (uint32_t)RESET))
    2316:	400107b7          	lui	a5,0x40010
    231a:	40078793          	addi	a5,a5,1024 # 40010400 <_eusrstack+0x20000400>
    231e:	4bd8                	lw	a4,20(a5)
    2320:	fdc42783          	lw	a5,-36(s0)
    2324:	8ff9                	and	a5,a5,a4
    2326:	cb81                	beqz	a5,2336 <EXTI_GetITStatus+0x46>
E:/CODE/C/ch32v307/CHV307_Library/Example/libraries/sdk/Peripheral/ch32v30x_exti.c:136 (discriminator 1)
    2328:	fe842783          	lw	a5,-24(s0)
    232c:	c789                	beqz	a5,2336 <EXTI_GetITStatus+0x46>
E:/CODE/C/ch32v307/CHV307_Library/Example/libraries/sdk/Peripheral/ch32v30x_exti.c:138
  {
    bitstatus = SET;
    232e:	4785                	li	a5,1
    2330:	fef42623          	sw	a5,-20(s0)
    2334:	a019                	j	233a <EXTI_GetITStatus+0x4a>
E:/CODE/C/ch32v307/CHV307_Library/Example/libraries/sdk/Peripheral/ch32v30x_exti.c:142
  }
  else
  {
    bitstatus = RESET;
    2336:	fe042623          	sw	zero,-20(s0)
E:/CODE/C/ch32v307/CHV307_Library/Example/libraries/sdk/Peripheral/ch32v30x_exti.c:144
  }
  return bitstatus;
    233a:	fec42783          	lw	a5,-20(s0)
E:/CODE/C/ch32v307/CHV307_Library/Example/libraries/sdk/Peripheral/ch32v30x_exti.c:145
}
    233e:	853e                	mv	a0,a5
    2340:	5432                	lw	s0,44(sp)
    2342:	6145                	addi	sp,sp,48
    2344:	8082                	ret

00002346 <EXTI_ClearITPendingBit>:
EXTI_ClearITPendingBit():
E:/CODE/C/ch32v307/CHV307_Library/Example/libraries/sdk/Peripheral/ch32v30x_exti.c:154
* Description    : Clears the EXTI's line pending bits.
* Input          : EXTI_Line: specifies the EXTI lines to be enabled or disabled.
* Return         : None
*********************************************************************************/
void EXTI_ClearITPendingBit(uint32_t EXTI_Line)
{  
    2346:	1101                	addi	sp,sp,-32
    2348:	ce22                	sw	s0,28(sp)
    234a:	1000                	addi	s0,sp,32
    234c:	fea42623          	sw	a0,-20(s0)
E:/CODE/C/ch32v307/CHV307_Library/Example/libraries/sdk/Peripheral/ch32v30x_exti.c:155
  EXTI->INTFR = EXTI_Line;
    2350:	400107b7          	lui	a5,0x40010
    2354:	40078793          	addi	a5,a5,1024 # 40010400 <_eusrstack+0x20000400>
    2358:	fec42703          	lw	a4,-20(s0)
    235c:	cbd8                	sw	a4,20(a5)
E:/CODE/C/ch32v307/CHV307_Library/Example/libraries/sdk/Peripheral/ch32v30x_exti.c:156
}
    235e:	0001                	nop
    2360:	4472                	lw	s0,28(sp)
    2362:	6105                	addi	sp,sp,32
    2364:	8082                	ret

00002366 <FLASH_Unlock>:
FLASH_Unlock():
E:/CODE/C/ch32v307/CHV307_Library/Example/libraries/sdk/Peripheral/ch32v30x_flash.c:120
* Description    : Unlocks the FLASH Program Erase Controller.
* Input          : None
* Return         : None
*********************************************************************************/
void FLASH_Unlock(void)
{
    2366:	1141                	addi	sp,sp,-16
    2368:	c622                	sw	s0,12(sp)
    236a:	0800                	addi	s0,sp,16
E:/CODE/C/ch32v307/CHV307_Library/Example/libraries/sdk/Peripheral/ch32v30x_flash.c:122
  /* Authorize the FPEC of Bank1 Access */
  FLASH->KEYR = FLASH_KEY1;
    236c:	400227b7          	lui	a5,0x40022
    2370:	45670737          	lui	a4,0x45670
    2374:	12370713          	addi	a4,a4,291 # 45670123 <_eusrstack+0x25660123>
    2378:	c3d8                	sw	a4,4(a5)
E:/CODE/C/ch32v307/CHV307_Library/Example/libraries/sdk/Peripheral/ch32v30x_flash.c:123
  FLASH->KEYR = FLASH_KEY2;
    237a:	400227b7          	lui	a5,0x40022
    237e:	cdef9737          	lui	a4,0xcdef9
    2382:	9ab70713          	addi	a4,a4,-1621 # cdef89ab <_eusrstack+0xadee89ab>
    2386:	c3d8                	sw	a4,4(a5)
E:/CODE/C/ch32v307/CHV307_Library/Example/libraries/sdk/Peripheral/ch32v30x_flash.c:124
}
    2388:	0001                	nop
    238a:	4432                	lw	s0,12(sp)
    238c:	0141                	addi	sp,sp,16
    238e:	8082                	ret

00002390 <FLASH_Lock>:
FLASH_Lock():
E:/CODE/C/ch32v307/CHV307_Library/Example/libraries/sdk/Peripheral/ch32v30x_flash.c:147
* Description    : Locks the FLASH Program Erase Controller.
* Input          : None
* Return         : None
*********************************************************************************/
void FLASH_Lock(void)
{
    2390:	1141                	addi	sp,sp,-16
    2392:	c622                	sw	s0,12(sp)
    2394:	0800                	addi	s0,sp,16
E:/CODE/C/ch32v307/CHV307_Library/Example/libraries/sdk/Peripheral/ch32v30x_flash.c:148
  FLASH->CTLR |= CR_LOCK_Set;
    2396:	400227b7          	lui	a5,0x40022
    239a:	4b98                	lw	a4,16(a5)
    239c:	400227b7          	lui	a5,0x40022
    23a0:	08076713          	ori	a4,a4,128
    23a4:	cb98                	sw	a4,16(a5)
E:/CODE/C/ch32v307/CHV307_Library/Example/libraries/sdk/Peripheral/ch32v30x_flash.c:149
}
    23a6:	0001                	nop
    23a8:	4432                	lw	s0,12(sp)
    23aa:	0141                	addi	sp,sp,16
    23ac:	8082                	ret

000023ae <FLASH_ErasePage>:
FLASH_ErasePage():
E:/CODE/C/ch32v307/CHV307_Library/Example/libraries/sdk/Peripheral/ch32v30x_flash.c:171
* Input          : Page_Address: The page address to be erased.
* Return         : FLASH Status: The returned value can be: FLASH_BUSY, FLASH_ERROR_PG,
*                  FLASH_ERROR_WRP, FLASH_COMPLETE or FLASH_TIMEOUT.
*********************************************************************************/
FLASH_Status FLASH_ErasePage(uint32_t Page_Address)
{
    23ae:	7179                	addi	sp,sp,-48
    23b0:	d606                	sw	ra,44(sp)
    23b2:	d422                	sw	s0,40(sp)
    23b4:	1800                	addi	s0,sp,48
    23b6:	fca42e23          	sw	a0,-36(s0)
E:/CODE/C/ch32v307/CHV307_Library/Example/libraries/sdk/Peripheral/ch32v30x_flash.c:172
  FLASH_Status status = FLASH_COMPLETE;
    23ba:	4791                	li	a5,4
    23bc:	fef42623          	sw	a5,-20(s0)
E:/CODE/C/ch32v307/CHV307_Library/Example/libraries/sdk/Peripheral/ch32v30x_flash.c:174

  status = FLASH_WaitForLastOperation(EraseTimeout);
    23c0:	000b0537          	lui	a0,0xb0
    23c4:	2a41                	jal	2554 <FLASH_WaitForLastOperation>
    23c6:	fea42623          	sw	a0,-20(s0)
E:/CODE/C/ch32v307/CHV307_Library/Example/libraries/sdk/Peripheral/ch32v30x_flash.c:176
  
  if(status == FLASH_COMPLETE)
    23ca:	fec42703          	lw	a4,-20(s0)
    23ce:	4791                	li	a5,4
    23d0:	04f71563          	bne	a4,a5,241a <FLASH_ErasePage+0x6c>
E:/CODE/C/ch32v307/CHV307_Library/Example/libraries/sdk/Peripheral/ch32v30x_flash.c:178
  { 
    FLASH->CTLR|= CR_PER_Set;
    23d4:	400227b7          	lui	a5,0x40022
    23d8:	4b98                	lw	a4,16(a5)
    23da:	400227b7          	lui	a5,0x40022
    23de:	00276713          	ori	a4,a4,2
    23e2:	cb98                	sw	a4,16(a5)
E:/CODE/C/ch32v307/CHV307_Library/Example/libraries/sdk/Peripheral/ch32v30x_flash.c:179
    FLASH->ADDR = Page_Address; 
    23e4:	400227b7          	lui	a5,0x40022
    23e8:	fdc42703          	lw	a4,-36(s0)
    23ec:	cbd8                	sw	a4,20(a5)
E:/CODE/C/ch32v307/CHV307_Library/Example/libraries/sdk/Peripheral/ch32v30x_flash.c:180
    FLASH->CTLR|= CR_STRT_Set;
    23ee:	400227b7          	lui	a5,0x40022
    23f2:	4b98                	lw	a4,16(a5)
    23f4:	400227b7          	lui	a5,0x40022
    23f8:	04076713          	ori	a4,a4,64
    23fc:	cb98                	sw	a4,16(a5)
E:/CODE/C/ch32v307/CHV307_Library/Example/libraries/sdk/Peripheral/ch32v30x_flash.c:182
 
	status = FLASH_WaitForLastOperation(EraseTimeout);
    23fe:	000b0537          	lui	a0,0xb0
    2402:	2a89                	jal	2554 <FLASH_WaitForLastOperation>
    2404:	fea42623          	sw	a0,-20(s0)
E:/CODE/C/ch32v307/CHV307_Library/Example/libraries/sdk/Peripheral/ch32v30x_flash.c:184
    
    FLASH->CTLR &= CR_PER_Reset;
    2408:	400227b7          	lui	a5,0x40022
    240c:	4b94                	lw	a3,16(a5)
    240e:	400227b7          	lui	a5,0x40022
    2412:	6709                	lui	a4,0x2
    2414:	1775                	addi	a4,a4,-3
    2416:	8f75                	and	a4,a4,a3
    2418:	cb98                	sw	a4,16(a5)
E:/CODE/C/ch32v307/CHV307_Library/Example/libraries/sdk/Peripheral/ch32v30x_flash.c:187
  }
	
  return status;
    241a:	fec42783          	lw	a5,-20(s0)
E:/CODE/C/ch32v307/CHV307_Library/Example/libraries/sdk/Peripheral/ch32v30x_flash.c:188
}
    241e:	853e                	mv	a0,a5
    2420:	50b2                	lw	ra,44(sp)
    2422:	5422                	lw	s0,40(sp)
    2424:	6145                	addi	sp,sp,48
    2426:	8082                	ret

00002428 <FLASH_ProgramWord>:
FLASH_ProgramWord():
E:/CODE/C/ch32v307/CHV307_Library/Example/libraries/sdk/Peripheral/ch32v30x_flash.c:298
*                  Data: specifies the data to be programmed.
* Return         : FLASH Status: The returned value can be: FLASH_BUSY, FLASH_ERROR_PG,
*                  FLASH_ERROR_WRP, FLASH_COMPLETE or FLASH_TIMEOUT.
*********************************************************************************/
FLASH_Status FLASH_ProgramWord(uint32_t Address, uint32_t Data)
{
    2428:	7179                	addi	sp,sp,-48
    242a:	d606                	sw	ra,44(sp)
    242c:	d422                	sw	s0,40(sp)
    242e:	1800                	addi	s0,sp,48
    2430:	fca42e23          	sw	a0,-36(s0)
    2434:	fcb42c23          	sw	a1,-40(s0)
E:/CODE/C/ch32v307/CHV307_Library/Example/libraries/sdk/Peripheral/ch32v30x_flash.c:299
  FLASH_Status status = FLASH_COMPLETE;
    2438:	4791                	li	a5,4
    243a:	fef42623          	sw	a5,-20(s0)
E:/CODE/C/ch32v307/CHV307_Library/Example/libraries/sdk/Peripheral/ch32v30x_flash.c:300
  __IO uint32_t tmp = 0;
    243e:	fe042423          	sw	zero,-24(s0)
E:/CODE/C/ch32v307/CHV307_Library/Example/libraries/sdk/Peripheral/ch32v30x_flash.c:302

  status = FLASH_WaitForLastOperation(ProgramTimeout);
    2442:	6515                	lui	a0,0x5
    2444:	2a01                	jal	2554 <FLASH_WaitForLastOperation>
    2446:	fea42623          	sw	a0,-20(s0)
E:/CODE/C/ch32v307/CHV307_Library/Example/libraries/sdk/Peripheral/ch32v30x_flash.c:304
  
  if(status == FLASH_COMPLETE)
    244a:	fec42703          	lw	a4,-20(s0)
    244e:	4791                	li	a5,4
    2450:	08f71063          	bne	a4,a5,24d0 <FLASH_ProgramWord+0xa8>
E:/CODE/C/ch32v307/CHV307_Library/Example/libraries/sdk/Peripheral/ch32v30x_flash.c:306
  {
    FLASH->CTLR |= CR_PG_Set;
    2454:	400227b7          	lui	a5,0x40022
    2458:	4b98                	lw	a4,16(a5)
    245a:	400227b7          	lui	a5,0x40022
    245e:	00176713          	ori	a4,a4,1
    2462:	cb98                	sw	a4,16(a5)
E:/CODE/C/ch32v307/CHV307_Library/Example/libraries/sdk/Peripheral/ch32v30x_flash.c:308
  
    *(__IO uint16_t*)Address = (uint16_t)Data;
    2464:	fdc42783          	lw	a5,-36(s0)
    2468:	fd842703          	lw	a4,-40(s0)
    246c:	0742                	slli	a4,a4,0x10
    246e:	8341                	srli	a4,a4,0x10
    2470:	00e79023          	sh	a4,0(a5) # 40022000 <_eusrstack+0x20012000>
E:/CODE/C/ch32v307/CHV307_Library/Example/libraries/sdk/Peripheral/ch32v30x_flash.c:309
    status = FLASH_WaitForLastOperation(ProgramTimeout);
    2474:	6515                	lui	a0,0x5
    2476:	28f9                	jal	2554 <FLASH_WaitForLastOperation>
    2478:	fea42623          	sw	a0,-20(s0)
E:/CODE/C/ch32v307/CHV307_Library/Example/libraries/sdk/Peripheral/ch32v30x_flash.c:311
 
    if(status == FLASH_COMPLETE)
    247c:	fec42703          	lw	a4,-20(s0)
    2480:	4791                	li	a5,4
    2482:	02f71e63          	bne	a4,a5,24be <FLASH_ProgramWord+0x96>
E:/CODE/C/ch32v307/CHV307_Library/Example/libraries/sdk/Peripheral/ch32v30x_flash.c:313
    {
      tmp = Address + 2;
    2486:	fdc42783          	lw	a5,-36(s0)
    248a:	0789                	addi	a5,a5,2
    248c:	fef42423          	sw	a5,-24(s0)
E:/CODE/C/ch32v307/CHV307_Library/Example/libraries/sdk/Peripheral/ch32v30x_flash.c:314
      *(__IO uint16_t*) tmp = Data >> 16;
    2490:	fd842783          	lw	a5,-40(s0)
    2494:	83c1                	srli	a5,a5,0x10
    2496:	fe842703          	lw	a4,-24(s0)
    249a:	07c2                	slli	a5,a5,0x10
    249c:	83c1                	srli	a5,a5,0x10
    249e:	00f71023          	sh	a5,0(a4) # 2000 <I2C1_ER_IRQHandler>
E:/CODE/C/ch32v307/CHV307_Library/Example/libraries/sdk/Peripheral/ch32v30x_flash.c:315
      status = FLASH_WaitForLastOperation(ProgramTimeout);
    24a2:	6515                	lui	a0,0x5
    24a4:	2845                	jal	2554 <FLASH_WaitForLastOperation>
    24a6:	fea42623          	sw	a0,-20(s0)
E:/CODE/C/ch32v307/CHV307_Library/Example/libraries/sdk/Peripheral/ch32v30x_flash.c:316
      FLASH->CTLR &= CR_PG_Reset;
    24aa:	400227b7          	lui	a5,0x40022
    24ae:	4b94                	lw	a3,16(a5)
    24b0:	400227b7          	lui	a5,0x40022
    24b4:	6709                	lui	a4,0x2
    24b6:	1779                	addi	a4,a4,-2
    24b8:	8f75                	and	a4,a4,a3
    24ba:	cb98                	sw	a4,16(a5)
    24bc:	a811                	j	24d0 <FLASH_ProgramWord+0xa8>
E:/CODE/C/ch32v307/CHV307_Library/Example/libraries/sdk/Peripheral/ch32v30x_flash.c:320
    }
    else
    {
      FLASH->CTLR &= CR_PG_Reset;
    24be:	400227b7          	lui	a5,0x40022
    24c2:	4b94                	lw	a3,16(a5)
    24c4:	400227b7          	lui	a5,0x40022
    24c8:	6709                	lui	a4,0x2
    24ca:	1779                	addi	a4,a4,-2
    24cc:	8f75                	and	a4,a4,a3
    24ce:	cb98                	sw	a4,16(a5)
E:/CODE/C/ch32v307/CHV307_Library/Example/libraries/sdk/Peripheral/ch32v30x_flash.c:324
    }
  }   
	
  return status;
    24d0:	fec42783          	lw	a5,-20(s0)
E:/CODE/C/ch32v307/CHV307_Library/Example/libraries/sdk/Peripheral/ch32v30x_flash.c:325
}
    24d4:	853e                	mv	a0,a5
    24d6:	50b2                	lw	ra,44(sp)
    24d8:	5422                	lw	s0,40(sp)
    24da:	6145                	addi	sp,sp,48
    24dc:	8082                	ret

000024de <FLASH_ClearFlag>:
FLASH_ClearFlag():
E:/CODE/C/ch32v307/CHV307_Library/Example/libraries/sdk/Peripheral/ch32v30x_flash.c:660
*                    FLASH_FLAG_WRPRTERR: FLASH Write protected error flag   
*                    FLASH_FLAG_EOP: FLASH End of Operation flag    
* Return         : None
*********************************************************************************/
void FLASH_ClearFlag(uint32_t FLASH_FLAG)
{
    24de:	1101                	addi	sp,sp,-32
    24e0:	ce22                	sw	s0,28(sp)
    24e2:	1000                	addi	s0,sp,32
    24e4:	fea42623          	sw	a0,-20(s0)
E:/CODE/C/ch32v307/CHV307_Library/Example/libraries/sdk/Peripheral/ch32v30x_flash.c:662

  FLASH->STATR = FLASH_FLAG;
    24e8:	400227b7          	lui	a5,0x40022
    24ec:	fec42703          	lw	a4,-20(s0)
    24f0:	c7d8                	sw	a4,12(a5)
E:/CODE/C/ch32v307/CHV307_Library/Example/libraries/sdk/Peripheral/ch32v30x_flash.c:664

}
    24f2:	0001                	nop
    24f4:	4472                	lw	s0,28(sp)
    24f6:	6105                	addi	sp,sp,32
    24f8:	8082                	ret

000024fa <FLASH_GetBank1Status>:
FLASH_GetBank1Status():
E:/CODE/C/ch32v307/CHV307_Library/Example/libraries/sdk/Peripheral/ch32v30x_flash.c:710
* Input          : None   
* Return         : FLASH Status: The returned value can be: FLASH_BUSY, FLASH_ERROR_PG,
*                                FLASH_ERROR_WRP or FLASH_COMPLETE.
*********************************************************************************/
FLASH_Status FLASH_GetBank1Status(void)
{
    24fa:	1101                	addi	sp,sp,-32
    24fc:	ce22                	sw	s0,28(sp)
    24fe:	1000                	addi	s0,sp,32
E:/CODE/C/ch32v307/CHV307_Library/Example/libraries/sdk/Peripheral/ch32v30x_flash.c:711
  FLASH_Status flashstatus = FLASH_COMPLETE;
    2500:	4791                	li	a5,4
    2502:	fef42623          	sw	a5,-20(s0)
E:/CODE/C/ch32v307/CHV307_Library/Example/libraries/sdk/Peripheral/ch32v30x_flash.c:713
  
  if((FLASH->STATR & FLASH_FLAG_BANK1_BSY) == FLASH_FLAG_BSY) 
    2506:	400227b7          	lui	a5,0x40022
    250a:	47dc                	lw	a5,12(a5)
    250c:	0017f713          	andi	a4,a5,1
    2510:	4785                	li	a5,1
    2512:	00f71663          	bne	a4,a5,251e <FLASH_GetBank1Status+0x24>
E:/CODE/C/ch32v307/CHV307_Library/Example/libraries/sdk/Peripheral/ch32v30x_flash.c:715
  {
    flashstatus = FLASH_BUSY;
    2516:	4785                	li	a5,1
    2518:	fef42623          	sw	a5,-20(s0)
    251c:	a035                	j	2548 <FLASH_GetBank1Status+0x4e>
E:/CODE/C/ch32v307/CHV307_Library/Example/libraries/sdk/Peripheral/ch32v30x_flash.c:719
  }
  else 
  {  
    if((FLASH->STATR & FLASH_FLAG_BANK1_PGERR) != 0)
    251e:	400227b7          	lui	a5,0x40022
    2522:	47dc                	lw	a5,12(a5)
    2524:	8b91                	andi	a5,a5,4
    2526:	c789                	beqz	a5,2530 <FLASH_GetBank1Status+0x36>
E:/CODE/C/ch32v307/CHV307_Library/Example/libraries/sdk/Peripheral/ch32v30x_flash.c:721
    { 
      flashstatus = FLASH_ERROR_PG;
    2528:	4789                	li	a5,2
    252a:	fef42623          	sw	a5,-20(s0)
    252e:	a829                	j	2548 <FLASH_GetBank1Status+0x4e>
E:/CODE/C/ch32v307/CHV307_Library/Example/libraries/sdk/Peripheral/ch32v30x_flash.c:725
    }
    else 
    {
      if((FLASH->STATR & FLASH_FLAG_BANK1_WRPRTERR) != 0 )
    2530:	400227b7          	lui	a5,0x40022
    2534:	47dc                	lw	a5,12(a5)
    2536:	8bc1                	andi	a5,a5,16
    2538:	c789                	beqz	a5,2542 <FLASH_GetBank1Status+0x48>
E:/CODE/C/ch32v307/CHV307_Library/Example/libraries/sdk/Peripheral/ch32v30x_flash.c:727
      {
        flashstatus = FLASH_ERROR_WRP;
    253a:	478d                	li	a5,3
    253c:	fef42623          	sw	a5,-20(s0)
    2540:	a021                	j	2548 <FLASH_GetBank1Status+0x4e>
E:/CODE/C/ch32v307/CHV307_Library/Example/libraries/sdk/Peripheral/ch32v30x_flash.c:731
      }
      else
      {
        flashstatus = FLASH_COMPLETE;
    2542:	4791                	li	a5,4
    2544:	fef42623          	sw	a5,-20(s0)
E:/CODE/C/ch32v307/CHV307_Library/Example/libraries/sdk/Peripheral/ch32v30x_flash.c:735
      }
    }
  }
  return flashstatus;
    2548:	fec42783          	lw	a5,-20(s0)
E:/CODE/C/ch32v307/CHV307_Library/Example/libraries/sdk/Peripheral/ch32v30x_flash.c:736
}
    254c:	853e                	mv	a0,a5
    254e:	4472                	lw	s0,28(sp)
    2550:	6105                	addi	sp,sp,32
    2552:	8082                	ret

00002554 <FLASH_WaitForLastOperation>:
FLASH_WaitForLastOperation():
E:/CODE/C/ch32v307/CHV307_Library/Example/libraries/sdk/Peripheral/ch32v30x_flash.c:747
* Input          : Timeout: FLASH programming Timeout   
* Return         : FLASH Status: The returned value can be: FLASH_BUSY, FLASH_ERROR_PG,
*                                FLASH_ERROR_WRP or FLASH_COMPLETE.
*********************************************************************************/
FLASH_Status FLASH_WaitForLastOperation(uint32_t Timeout)
{ 
    2554:	7179                	addi	sp,sp,-48
    2556:	d606                	sw	ra,44(sp)
    2558:	d422                	sw	s0,40(sp)
    255a:	1800                	addi	s0,sp,48
    255c:	fca42e23          	sw	a0,-36(s0)
E:/CODE/C/ch32v307/CHV307_Library/Example/libraries/sdk/Peripheral/ch32v30x_flash.c:748
  FLASH_Status status = FLASH_COMPLETE;
    2560:	4791                	li	a5,4
    2562:	fef42623          	sw	a5,-20(s0)
E:/CODE/C/ch32v307/CHV307_Library/Example/libraries/sdk/Peripheral/ch32v30x_flash.c:750
   
  status = FLASH_GetBank1Status();
    2566:	3f51                	jal	24fa <FLASH_GetBank1Status>
    2568:	fea42623          	sw	a0,-20(s0)
E:/CODE/C/ch32v307/CHV307_Library/Example/libraries/sdk/Peripheral/ch32v30x_flash.c:751
  while((status == FLASH_BUSY) && (Timeout != 0x00))
    256c:	a809                	j	257e <FLASH_WaitForLastOperation+0x2a>
E:/CODE/C/ch32v307/CHV307_Library/Example/libraries/sdk/Peripheral/ch32v30x_flash.c:753
  {
    status = FLASH_GetBank1Status();
    256e:	3771                	jal	24fa <FLASH_GetBank1Status>
    2570:	fea42623          	sw	a0,-20(s0)
E:/CODE/C/ch32v307/CHV307_Library/Example/libraries/sdk/Peripheral/ch32v30x_flash.c:754
    Timeout--;
    2574:	fdc42783          	lw	a5,-36(s0)
    2578:	17fd                	addi	a5,a5,-1
    257a:	fcf42e23          	sw	a5,-36(s0)
E:/CODE/C/ch32v307/CHV307_Library/Example/libraries/sdk/Peripheral/ch32v30x_flash.c:751
  while((status == FLASH_BUSY) && (Timeout != 0x00))
    257e:	fec42703          	lw	a4,-20(s0)
    2582:	4785                	li	a5,1
    2584:	00f71563          	bne	a4,a5,258e <FLASH_WaitForLastOperation+0x3a>
E:/CODE/C/ch32v307/CHV307_Library/Example/libraries/sdk/Peripheral/ch32v30x_flash.c:751 (discriminator 1)
    2588:	fdc42783          	lw	a5,-36(s0)
    258c:	f3ed                	bnez	a5,256e <FLASH_WaitForLastOperation+0x1a>
E:/CODE/C/ch32v307/CHV307_Library/Example/libraries/sdk/Peripheral/ch32v30x_flash.c:756
  }
  if(Timeout == 0x00 )
    258e:	fdc42783          	lw	a5,-36(s0)
    2592:	e781                	bnez	a5,259a <FLASH_WaitForLastOperation+0x46>
E:/CODE/C/ch32v307/CHV307_Library/Example/libraries/sdk/Peripheral/ch32v30x_flash.c:758
  {
    status = FLASH_TIMEOUT;
    2594:	4795                	li	a5,5
    2596:	fef42623          	sw	a5,-20(s0)
E:/CODE/C/ch32v307/CHV307_Library/Example/libraries/sdk/Peripheral/ch32v30x_flash.c:760
  }
  return status;
    259a:	fec42783          	lw	a5,-20(s0)
E:/CODE/C/ch32v307/CHV307_Library/Example/libraries/sdk/Peripheral/ch32v30x_flash.c:761
}
    259e:	853e                	mv	a0,a5
    25a0:	50b2                	lw	ra,44(sp)
    25a2:	5422                	lw	s0,40(sp)
    25a4:	6145                	addi	sp,sp,48
    25a6:	8082                	ret

000025a8 <GPIO_Init>:
GPIO_Init():
E:/CODE/C/ch32v307/CHV307_Library/Example/libraries/sdk/Peripheral/ch32v30x_gpio.c:88
* Input          : GPIO_InitStruct: pointer to a GPIO_InitTypeDef structure that
*      contains the configuration information for the specified GPIO peripheral.
* Return         : None
*******************************************************************************/
void GPIO_Init(GPIO_TypeDef* GPIOx, GPIO_InitTypeDef* GPIO_InitStruct)
{
    25a8:	7139                	addi	sp,sp,-64
    25aa:	de22                	sw	s0,60(sp)
    25ac:	0080                	addi	s0,sp,64
    25ae:	fca42623          	sw	a0,-52(s0)
    25b2:	fcb42423          	sw	a1,-56(s0)
E:/CODE/C/ch32v307/CHV307_Library/Example/libraries/sdk/Peripheral/ch32v30x_gpio.c:89
  uint32_t currentmode = 0x00, currentpin = 0x00, pinpos = 0x00, pos = 0x00;
    25b6:	fe042623          	sw	zero,-20(s0)
    25ba:	fe042023          	sw	zero,-32(s0)
    25be:	fe042423          	sw	zero,-24(s0)
    25c2:	fc042e23          	sw	zero,-36(s0)
E:/CODE/C/ch32v307/CHV307_Library/Example/libraries/sdk/Peripheral/ch32v30x_gpio.c:90
  uint32_t tmpreg = 0x00, pinmask = 0x00;
    25c6:	fe042223          	sw	zero,-28(s0)
    25ca:	fc042c23          	sw	zero,-40(s0)
E:/CODE/C/ch32v307/CHV307_Library/Example/libraries/sdk/Peripheral/ch32v30x_gpio.c:92

  currentmode = ((uint32_t)GPIO_InitStruct->GPIO_Mode) & ((uint32_t)0x0F);
    25ce:	fc842783          	lw	a5,-56(s0)
    25d2:	479c                	lw	a5,8(a5)
    25d4:	8bbd                	andi	a5,a5,15
    25d6:	fef42623          	sw	a5,-20(s0)
E:/CODE/C/ch32v307/CHV307_Library/Example/libraries/sdk/Peripheral/ch32v30x_gpio.c:94
	
  if ((((uint32_t)GPIO_InitStruct->GPIO_Mode) & ((uint32_t)0x10)) != 0x00)
    25da:	fc842783          	lw	a5,-56(s0)
    25de:	479c                	lw	a5,8(a5)
    25e0:	8bc1                	andi	a5,a5,16
    25e2:	cb89                	beqz	a5,25f4 <GPIO_Init+0x4c>
E:/CODE/C/ch32v307/CHV307_Library/Example/libraries/sdk/Peripheral/ch32v30x_gpio.c:96
  { 
    currentmode |= (uint32_t)GPIO_InitStruct->GPIO_Speed;
    25e4:	fc842783          	lw	a5,-56(s0)
    25e8:	43dc                	lw	a5,4(a5)
    25ea:	fec42703          	lw	a4,-20(s0)
    25ee:	8fd9                	or	a5,a5,a4
    25f0:	fef42623          	sw	a5,-20(s0)
E:/CODE/C/ch32v307/CHV307_Library/Example/libraries/sdk/Peripheral/ch32v30x_gpio.c:99
  }

  if (((uint32_t)GPIO_InitStruct->GPIO_Pin & ((uint32_t)0x00FF)) != 0x00)
    25f4:	fc842783          	lw	a5,-56(s0)
    25f8:	0007d783          	lhu	a5,0(a5) # 40022000 <_eusrstack+0x20012000>
    25fc:	0ff7f793          	andi	a5,a5,255
    2600:	cff1                	beqz	a5,26dc <GPIO_Init+0x134>
E:/CODE/C/ch32v307/CHV307_Library/Example/libraries/sdk/Peripheral/ch32v30x_gpio.c:101
  {
    tmpreg = GPIOx->CFGLR;
    2602:	fcc42783          	lw	a5,-52(s0)
    2606:	439c                	lw	a5,0(a5)
    2608:	fef42223          	sw	a5,-28(s0)
E:/CODE/C/ch32v307/CHV307_Library/Example/libraries/sdk/Peripheral/ch32v30x_gpio.c:103
		
    for (pinpos = 0x00; pinpos < 0x08; pinpos++)
    260c:	fe042423          	sw	zero,-24(s0)
    2610:	a865                	j	26c8 <GPIO_Init+0x120>
E:/CODE/C/ch32v307/CHV307_Library/Example/libraries/sdk/Peripheral/ch32v30x_gpio.c:105
    {
      pos = ((uint32_t)0x01) << pinpos;
    2612:	fe842783          	lw	a5,-24(s0)
    2616:	4705                	li	a4,1
    2618:	00f717b3          	sll	a5,a4,a5
    261c:	fcf42e23          	sw	a5,-36(s0)
E:/CODE/C/ch32v307/CHV307_Library/Example/libraries/sdk/Peripheral/ch32v30x_gpio.c:106
      currentpin = (GPIO_InitStruct->GPIO_Pin) & pos;
    2620:	fc842783          	lw	a5,-56(s0)
    2624:	0007d783          	lhu	a5,0(a5)
    2628:	873e                	mv	a4,a5
    262a:	fdc42783          	lw	a5,-36(s0)
    262e:	8ff9                	and	a5,a5,a4
    2630:	fef42023          	sw	a5,-32(s0)
E:/CODE/C/ch32v307/CHV307_Library/Example/libraries/sdk/Peripheral/ch32v30x_gpio.c:108
			
      if (currentpin == pos)
    2634:	fe042703          	lw	a4,-32(s0)
    2638:	fdc42783          	lw	a5,-36(s0)
    263c:	08f71163          	bne	a4,a5,26be <GPIO_Init+0x116>
E:/CODE/C/ch32v307/CHV307_Library/Example/libraries/sdk/Peripheral/ch32v30x_gpio.c:110
      {
        pos = pinpos << 2;
    2640:	fe842783          	lw	a5,-24(s0)
    2644:	078a                	slli	a5,a5,0x2
    2646:	fcf42e23          	sw	a5,-36(s0)
E:/CODE/C/ch32v307/CHV307_Library/Example/libraries/sdk/Peripheral/ch32v30x_gpio.c:111
        pinmask = ((uint32_t)0x0F) << pos;
    264a:	fdc42783          	lw	a5,-36(s0)
    264e:	473d                	li	a4,15
    2650:	00f717b3          	sll	a5,a4,a5
    2654:	fcf42c23          	sw	a5,-40(s0)
E:/CODE/C/ch32v307/CHV307_Library/Example/libraries/sdk/Peripheral/ch32v30x_gpio.c:112
        tmpreg &= ~pinmask;
    2658:	fd842783          	lw	a5,-40(s0)
    265c:	fff7c793          	not	a5,a5
    2660:	fe442703          	lw	a4,-28(s0)
    2664:	8ff9                	and	a5,a5,a4
    2666:	fef42223          	sw	a5,-28(s0)
E:/CODE/C/ch32v307/CHV307_Library/Example/libraries/sdk/Peripheral/ch32v30x_gpio.c:113
        tmpreg |= (currentmode << pos);
    266a:	fdc42783          	lw	a5,-36(s0)
    266e:	fec42703          	lw	a4,-20(s0)
    2672:	00f717b3          	sll	a5,a4,a5
    2676:	fe442703          	lw	a4,-28(s0)
    267a:	8fd9                	or	a5,a5,a4
    267c:	fef42223          	sw	a5,-28(s0)
E:/CODE/C/ch32v307/CHV307_Library/Example/libraries/sdk/Peripheral/ch32v30x_gpio.c:115

        if (GPIO_InitStruct->GPIO_Mode == GPIO_Mode_IPD)
    2680:	fc842783          	lw	a5,-56(s0)
    2684:	4798                	lw	a4,8(a5)
    2686:	02800793          	li	a5,40
    268a:	00f71b63          	bne	a4,a5,26a0 <GPIO_Init+0xf8>
E:/CODE/C/ch32v307/CHV307_Library/Example/libraries/sdk/Peripheral/ch32v30x_gpio.c:117
        {
          GPIOx->BCR = (((uint32_t)0x01) << pinpos);
    268e:	fe842783          	lw	a5,-24(s0)
    2692:	4705                	li	a4,1
    2694:	00f71733          	sll	a4,a4,a5
    2698:	fcc42783          	lw	a5,-52(s0)
    269c:	cbd8                	sw	a4,20(a5)
    269e:	a005                	j	26be <GPIO_Init+0x116>
E:/CODE/C/ch32v307/CHV307_Library/Example/libraries/sdk/Peripheral/ch32v30x_gpio.c:121
        }
        else
        {
          if (GPIO_InitStruct->GPIO_Mode == GPIO_Mode_IPU)
    26a0:	fc842783          	lw	a5,-56(s0)
    26a4:	4798                	lw	a4,8(a5)
    26a6:	04800793          	li	a5,72
    26aa:	00f71a63          	bne	a4,a5,26be <GPIO_Init+0x116>
E:/CODE/C/ch32v307/CHV307_Library/Example/libraries/sdk/Peripheral/ch32v30x_gpio.c:123
          {
            GPIOx->BSHR = (((uint32_t)0x01) << pinpos);
    26ae:	fe842783          	lw	a5,-24(s0)
    26b2:	4705                	li	a4,1
    26b4:	00f71733          	sll	a4,a4,a5
    26b8:	fcc42783          	lw	a5,-52(s0)
    26bc:	cb98                	sw	a4,16(a5)
E:/CODE/C/ch32v307/CHV307_Library/Example/libraries/sdk/Peripheral/ch32v30x_gpio.c:103 (discriminator 2)
    for (pinpos = 0x00; pinpos < 0x08; pinpos++)
    26be:	fe842783          	lw	a5,-24(s0)
    26c2:	0785                	addi	a5,a5,1
    26c4:	fef42423          	sw	a5,-24(s0)
E:/CODE/C/ch32v307/CHV307_Library/Example/libraries/sdk/Peripheral/ch32v30x_gpio.c:103 (discriminator 1)
    26c8:	fe842703          	lw	a4,-24(s0)
    26cc:	479d                	li	a5,7
    26ce:	f4e7f2e3          	bgeu	a5,a4,2612 <GPIO_Init+0x6a>
E:/CODE/C/ch32v307/CHV307_Library/Example/libraries/sdk/Peripheral/ch32v30x_gpio.c:128
          }
        }
      }
    }
    GPIOx->CFGLR = tmpreg;
    26d2:	fcc42783          	lw	a5,-52(s0)
    26d6:	fe442703          	lw	a4,-28(s0)
    26da:	c398                	sw	a4,0(a5)
E:/CODE/C/ch32v307/CHV307_Library/Example/libraries/sdk/Peripheral/ch32v30x_gpio.c:131
  }

  if (GPIO_InitStruct->GPIO_Pin > 0x00FF)
    26dc:	fc842783          	lw	a5,-56(s0)
    26e0:	0007d703          	lhu	a4,0(a5)
    26e4:	0ff00793          	li	a5,255
    26e8:	0ee7f163          	bgeu	a5,a4,27ca <GPIO_Init+0x222>
E:/CODE/C/ch32v307/CHV307_Library/Example/libraries/sdk/Peripheral/ch32v30x_gpio.c:133
  {
    tmpreg = GPIOx->CFGHR;
    26ec:	fcc42783          	lw	a5,-52(s0)
    26f0:	43dc                	lw	a5,4(a5)
    26f2:	fef42223          	sw	a5,-28(s0)
E:/CODE/C/ch32v307/CHV307_Library/Example/libraries/sdk/Peripheral/ch32v30x_gpio.c:135
		
    for (pinpos = 0x00; pinpos < 0x08; pinpos++)
    26f6:	fe042423          	sw	zero,-24(s0)
    26fa:	a875                	j	27b6 <GPIO_Init+0x20e>
E:/CODE/C/ch32v307/CHV307_Library/Example/libraries/sdk/Peripheral/ch32v30x_gpio.c:137
    {
      pos = (((uint32_t)0x01) << (pinpos + 0x08));
    26fc:	fe842783          	lw	a5,-24(s0)
    2700:	07a1                	addi	a5,a5,8
    2702:	4705                	li	a4,1
    2704:	00f717b3          	sll	a5,a4,a5
    2708:	fcf42e23          	sw	a5,-36(s0)
E:/CODE/C/ch32v307/CHV307_Library/Example/libraries/sdk/Peripheral/ch32v30x_gpio.c:138
      currentpin = ((GPIO_InitStruct->GPIO_Pin) & pos);
    270c:	fc842783          	lw	a5,-56(s0)
    2710:	0007d783          	lhu	a5,0(a5)
    2714:	873e                	mv	a4,a5
    2716:	fdc42783          	lw	a5,-36(s0)
    271a:	8ff9                	and	a5,a5,a4
    271c:	fef42023          	sw	a5,-32(s0)
E:/CODE/C/ch32v307/CHV307_Library/Example/libraries/sdk/Peripheral/ch32v30x_gpio.c:140
			
      if (currentpin == pos)
    2720:	fe042703          	lw	a4,-32(s0)
    2724:	fdc42783          	lw	a5,-36(s0)
    2728:	08f71263          	bne	a4,a5,27ac <GPIO_Init+0x204>
E:/CODE/C/ch32v307/CHV307_Library/Example/libraries/sdk/Peripheral/ch32v30x_gpio.c:142
      {
        pos = pinpos << 2;
    272c:	fe842783          	lw	a5,-24(s0)
    2730:	078a                	slli	a5,a5,0x2
    2732:	fcf42e23          	sw	a5,-36(s0)
E:/CODE/C/ch32v307/CHV307_Library/Example/libraries/sdk/Peripheral/ch32v30x_gpio.c:143
        pinmask = ((uint32_t)0x0F) << pos;
    2736:	fdc42783          	lw	a5,-36(s0)
    273a:	473d                	li	a4,15
    273c:	00f717b3          	sll	a5,a4,a5
    2740:	fcf42c23          	sw	a5,-40(s0)
E:/CODE/C/ch32v307/CHV307_Library/Example/libraries/sdk/Peripheral/ch32v30x_gpio.c:144
        tmpreg &= ~pinmask;
    2744:	fd842783          	lw	a5,-40(s0)
    2748:	fff7c793          	not	a5,a5
    274c:	fe442703          	lw	a4,-28(s0)
    2750:	8ff9                	and	a5,a5,a4
    2752:	fef42223          	sw	a5,-28(s0)
E:/CODE/C/ch32v307/CHV307_Library/Example/libraries/sdk/Peripheral/ch32v30x_gpio.c:145
        tmpreg |= (currentmode << pos);
    2756:	fdc42783          	lw	a5,-36(s0)
    275a:	fec42703          	lw	a4,-20(s0)
    275e:	00f717b3          	sll	a5,a4,a5
    2762:	fe442703          	lw	a4,-28(s0)
    2766:	8fd9                	or	a5,a5,a4
    2768:	fef42223          	sw	a5,-28(s0)
E:/CODE/C/ch32v307/CHV307_Library/Example/libraries/sdk/Peripheral/ch32v30x_gpio.c:147

        if (GPIO_InitStruct->GPIO_Mode == GPIO_Mode_IPD)
    276c:	fc842783          	lw	a5,-56(s0)
    2770:	4798                	lw	a4,8(a5)
    2772:	02800793          	li	a5,40
    2776:	00f71b63          	bne	a4,a5,278c <GPIO_Init+0x1e4>
E:/CODE/C/ch32v307/CHV307_Library/Example/libraries/sdk/Peripheral/ch32v30x_gpio.c:149
        {
          GPIOx->BCR = (((uint32_t)0x01) << (pinpos + 0x08));
    277a:	fe842783          	lw	a5,-24(s0)
    277e:	07a1                	addi	a5,a5,8
    2780:	4705                	li	a4,1
    2782:	00f71733          	sll	a4,a4,a5
    2786:	fcc42783          	lw	a5,-52(s0)
    278a:	cbd8                	sw	a4,20(a5)
E:/CODE/C/ch32v307/CHV307_Library/Example/libraries/sdk/Peripheral/ch32v30x_gpio.c:152
        }

        if (GPIO_InitStruct->GPIO_Mode == GPIO_Mode_IPU)
    278c:	fc842783          	lw	a5,-56(s0)
    2790:	4798                	lw	a4,8(a5)
    2792:	04800793          	li	a5,72
    2796:	00f71b63          	bne	a4,a5,27ac <GPIO_Init+0x204>
E:/CODE/C/ch32v307/CHV307_Library/Example/libraries/sdk/Peripheral/ch32v30x_gpio.c:154
        {
          GPIOx->BSHR = (((uint32_t)0x01) << (pinpos + 0x08));
    279a:	fe842783          	lw	a5,-24(s0)
    279e:	07a1                	addi	a5,a5,8
    27a0:	4705                	li	a4,1
    27a2:	00f71733          	sll	a4,a4,a5
    27a6:	fcc42783          	lw	a5,-52(s0)
    27aa:	cb98                	sw	a4,16(a5)
E:/CODE/C/ch32v307/CHV307_Library/Example/libraries/sdk/Peripheral/ch32v30x_gpio.c:135 (discriminator 2)
    for (pinpos = 0x00; pinpos < 0x08; pinpos++)
    27ac:	fe842783          	lw	a5,-24(s0)
    27b0:	0785                	addi	a5,a5,1
    27b2:	fef42423          	sw	a5,-24(s0)
E:/CODE/C/ch32v307/CHV307_Library/Example/libraries/sdk/Peripheral/ch32v30x_gpio.c:135 (discriminator 1)
    27b6:	fe842703          	lw	a4,-24(s0)
    27ba:	479d                	li	a5,7
    27bc:	f4e7f0e3          	bgeu	a5,a4,26fc <GPIO_Init+0x154>
E:/CODE/C/ch32v307/CHV307_Library/Example/libraries/sdk/Peripheral/ch32v30x_gpio.c:158
        }
      }
    }
    GPIOx->CFGHR = tmpreg;
    27c0:	fcc42783          	lw	a5,-52(s0)
    27c4:	fe442703          	lw	a4,-28(s0)
    27c8:	c3d8                	sw	a4,4(a5)
E:/CODE/C/ch32v307/CHV307_Library/Example/libraries/sdk/Peripheral/ch32v30x_gpio.c:160
  }
}
    27ca:	0001                	nop
    27cc:	5472                	lw	s0,60(sp)
    27ce:	6121                	addi	sp,sp,64
    27d0:	8082                	ret

000027d2 <GPIO_WriteBit>:
GPIO_WriteBit():
E:/CODE/C/ch32v307/CHV307_Library/Example/libraries/sdk/Peripheral/ch32v30x_gpio.c:282
*                    Bit_SetL: to clear the port pin.
*                    Bit_SetH: to set the port pin.                  
* Return         : None
*******************************************************************************/
void GPIO_WriteBit(GPIO_TypeDef* GPIOx, uint16_t GPIO_Pin, BitAction BitVal)
{
    27d2:	1101                	addi	sp,sp,-32
    27d4:	ce22                	sw	s0,28(sp)
    27d6:	1000                	addi	s0,sp,32
    27d8:	fea42623          	sw	a0,-20(s0)
    27dc:	87ae                	mv	a5,a1
    27de:	fec42223          	sw	a2,-28(s0)
    27e2:	fef41523          	sh	a5,-22(s0)
E:/CODE/C/ch32v307/CHV307_Library/Example/libraries/sdk/Peripheral/ch32v30x_gpio.c:283
  if (BitVal != Bit_RESET)
    27e6:	fe442783          	lw	a5,-28(s0)
    27ea:	c799                	beqz	a5,27f8 <GPIO_WriteBit+0x26>
E:/CODE/C/ch32v307/CHV307_Library/Example/libraries/sdk/Peripheral/ch32v30x_gpio.c:285
  {
    GPIOx->BSHR = GPIO_Pin;
    27ec:	fea45703          	lhu	a4,-22(s0)
    27f0:	fec42783          	lw	a5,-20(s0)
    27f4:	cb98                	sw	a4,16(a5)
E:/CODE/C/ch32v307/CHV307_Library/Example/libraries/sdk/Peripheral/ch32v30x_gpio.c:291
  }
  else
  {
    GPIOx->BCR = GPIO_Pin;
  }
}
    27f6:	a031                	j	2802 <GPIO_WriteBit+0x30>
E:/CODE/C/ch32v307/CHV307_Library/Example/libraries/sdk/Peripheral/ch32v30x_gpio.c:289
    GPIOx->BCR = GPIO_Pin;
    27f8:	fea45703          	lhu	a4,-22(s0)
    27fc:	fec42783          	lw	a5,-20(s0)
    2800:	cbd8                	sw	a4,20(a5)
E:/CODE/C/ch32v307/CHV307_Library/Example/libraries/sdk/Peripheral/ch32v30x_gpio.c:291
}
    2802:	0001                	nop
    2804:	4472                	lw	s0,28(sp)
    2806:	6105                	addi	sp,sp,32
    2808:	8082                	ret

0000280a <GPIO_PinRemapConfig>:
GPIO_PinRemapConfig():
E:/CODE/C/ch32v307/CHV307_Library/Example/libraries/sdk/Peripheral/ch32v30x_gpio.c:402
*      only for High density Value line devices)     
*                  NewState: ENABLE or DISABLE.             
* Return         : None
*******************************************************************************/
void GPIO_PinRemapConfig(uint32_t GPIO_Remap, FunctionalState NewState)
{
    280a:	7179                	addi	sp,sp,-48
    280c:	d622                	sw	s0,44(sp)
    280e:	1800                	addi	s0,sp,48
    2810:	fca42e23          	sw	a0,-36(s0)
    2814:	fcb42c23          	sw	a1,-40(s0)
E:/CODE/C/ch32v307/CHV307_Library/Example/libraries/sdk/Peripheral/ch32v30x_gpio.c:403
  uint32_t tmp = 0x00, tmp1 = 0x00, tmpreg = 0x00, tmpmask = 0x00;
    2818:	fe042423          	sw	zero,-24(s0)
    281c:	fe042223          	sw	zero,-28(s0)
    2820:	fe042623          	sw	zero,-20(s0)
    2824:	fe042023          	sw	zero,-32(s0)
E:/CODE/C/ch32v307/CHV307_Library/Example/libraries/sdk/Peripheral/ch32v30x_gpio.c:405

  if((GPIO_Remap & 0x80000000) == 0x80000000)
    2828:	fdc42783          	lw	a5,-36(s0)
    282c:	0007d863          	bgez	a5,283c <GPIO_PinRemapConfig+0x32>
E:/CODE/C/ch32v307/CHV307_Library/Example/libraries/sdk/Peripheral/ch32v30x_gpio.c:407
  {
    tmpreg = AFIO->PCFR2;
    2830:	400107b7          	lui	a5,0x40010
    2834:	4fdc                	lw	a5,28(a5)
    2836:	fef42623          	sw	a5,-20(s0)
    283a:	a031                	j	2846 <GPIO_PinRemapConfig+0x3c>
E:/CODE/C/ch32v307/CHV307_Library/Example/libraries/sdk/Peripheral/ch32v30x_gpio.c:411
  }
  else
  {
    tmpreg = AFIO->PCFR1;
    283c:	400107b7          	lui	a5,0x40010
    2840:	43dc                	lw	a5,4(a5)
    2842:	fef42623          	sw	a5,-20(s0)
E:/CODE/C/ch32v307/CHV307_Library/Example/libraries/sdk/Peripheral/ch32v30x_gpio.c:414
  }

  tmpmask = (GPIO_Remap & DBGAFR_POSITION_MASK) >> 0x10;
    2846:	fdc42783          	lw	a5,-36(s0)
    284a:	83c1                	srli	a5,a5,0x10
    284c:	8bbd                	andi	a5,a5,15
    284e:	fef42023          	sw	a5,-32(s0)
E:/CODE/C/ch32v307/CHV307_Library/Example/libraries/sdk/Peripheral/ch32v30x_gpio.c:415
  tmp = GPIO_Remap & LSB_MASK;
    2852:	fdc42703          	lw	a4,-36(s0)
    2856:	67c1                	lui	a5,0x10
    2858:	17fd                	addi	a5,a5,-1
    285a:	8ff9                	and	a5,a5,a4
    285c:	fef42423          	sw	a5,-24(s0)
E:/CODE/C/ch32v307/CHV307_Library/Example/libraries/sdk/Peripheral/ch32v30x_gpio.c:417

  if ((GPIO_Remap & (DBGAFR_LOCATION_MASK | DBGAFR_NUMBITS_MASK)) == (DBGAFR_LOCATION_MASK | DBGAFR_NUMBITS_MASK))
    2860:	fdc42703          	lw	a4,-36(s0)
    2864:	003007b7          	lui	a5,0x300
    2868:	8f7d                	and	a4,a4,a5
    286a:	003007b7          	lui	a5,0x300
    286e:	02f71563          	bne	a4,a5,2898 <GPIO_PinRemapConfig+0x8e>
E:/CODE/C/ch32v307/CHV307_Library/Example/libraries/sdk/Peripheral/ch32v30x_gpio.c:419
  {
    tmpreg &= DBGAFR_SWJCFG_MASK;
    2872:	fec42703          	lw	a4,-20(s0)
    2876:	f10007b7          	lui	a5,0xf1000
    287a:	17fd                	addi	a5,a5,-1
    287c:	8ff9                	and	a5,a5,a4
    287e:	fef42623          	sw	a5,-20(s0)
E:/CODE/C/ch32v307/CHV307_Library/Example/libraries/sdk/Peripheral/ch32v30x_gpio.c:420
    AFIO->PCFR1 &= DBGAFR_SWJCFG_MASK;
    2882:	400107b7          	lui	a5,0x40010
    2886:	43d4                	lw	a3,4(a5)
    2888:	400107b7          	lui	a5,0x40010
    288c:	f1000737          	lui	a4,0xf1000
    2890:	177d                	addi	a4,a4,-1
    2892:	8f75                	and	a4,a4,a3
    2894:	c3d8                	sw	a4,4(a5)
    2896:	a0ad                	j	2900 <GPIO_PinRemapConfig+0xf6>
E:/CODE/C/ch32v307/CHV307_Library/Example/libraries/sdk/Peripheral/ch32v30x_gpio.c:422
  }
  else if ((GPIO_Remap & DBGAFR_NUMBITS_MASK) == DBGAFR_NUMBITS_MASK)
    2898:	fdc42703          	lw	a4,-36(s0)
    289c:	001007b7          	lui	a5,0x100
    28a0:	8ff9                	and	a5,a5,a4
    28a2:	cb8d                	beqz	a5,28d4 <GPIO_PinRemapConfig+0xca>
E:/CODE/C/ch32v307/CHV307_Library/Example/libraries/sdk/Peripheral/ch32v30x_gpio.c:424
  {
    tmp1 = ((uint32_t)0x03) << tmpmask;
    28a4:	fe042783          	lw	a5,-32(s0)
    28a8:	470d                	li	a4,3
    28aa:	00f717b3          	sll	a5,a4,a5
    28ae:	fef42223          	sw	a5,-28(s0)
E:/CODE/C/ch32v307/CHV307_Library/Example/libraries/sdk/Peripheral/ch32v30x_gpio.c:425
    tmpreg &= ~tmp1;
    28b2:	fe442783          	lw	a5,-28(s0)
    28b6:	fff7c793          	not	a5,a5
    28ba:	fec42703          	lw	a4,-20(s0)
    28be:	8ff9                	and	a5,a5,a4
    28c0:	fef42623          	sw	a5,-20(s0)
E:/CODE/C/ch32v307/CHV307_Library/Example/libraries/sdk/Peripheral/ch32v30x_gpio.c:426
    tmpreg |= ~DBGAFR_SWJCFG_MASK;
    28c4:	fec42703          	lw	a4,-20(s0)
    28c8:	0f0007b7          	lui	a5,0xf000
    28cc:	8fd9                	or	a5,a5,a4
    28ce:	fef42623          	sw	a5,-20(s0)
    28d2:	a03d                	j	2900 <GPIO_PinRemapConfig+0xf6>
E:/CODE/C/ch32v307/CHV307_Library/Example/libraries/sdk/Peripheral/ch32v30x_gpio.c:430
  }
  else
  {
    tmpreg &= ~(tmp << ((GPIO_Remap >> 0x15)*0x10));
    28d4:	fdc42783          	lw	a5,-36(s0)
    28d8:	83d5                	srli	a5,a5,0x15
    28da:	0792                	slli	a5,a5,0x4
    28dc:	fe842703          	lw	a4,-24(s0)
    28e0:	00f717b3          	sll	a5,a4,a5
    28e4:	fff7c793          	not	a5,a5
    28e8:	fec42703          	lw	a4,-20(s0)
    28ec:	8ff9                	and	a5,a5,a4
    28ee:	fef42623          	sw	a5,-20(s0)
E:/CODE/C/ch32v307/CHV307_Library/Example/libraries/sdk/Peripheral/ch32v30x_gpio.c:431
    tmpreg |= ~DBGAFR_SWJCFG_MASK;
    28f2:	fec42703          	lw	a4,-20(s0)
    28f6:	0f0007b7          	lui	a5,0xf000
    28fa:	8fd9                	or	a5,a5,a4
    28fc:	fef42623          	sw	a5,-20(s0)
E:/CODE/C/ch32v307/CHV307_Library/Example/libraries/sdk/Peripheral/ch32v30x_gpio.c:434
  }

  if (NewState != DISABLE)
    2900:	fd842783          	lw	a5,-40(s0)
    2904:	cf91                	beqz	a5,2920 <GPIO_PinRemapConfig+0x116>
E:/CODE/C/ch32v307/CHV307_Library/Example/libraries/sdk/Peripheral/ch32v30x_gpio.c:436
  {
    tmpreg |= (tmp << ((GPIO_Remap >> 0x15)*0x10));
    2906:	fdc42783          	lw	a5,-36(s0)
    290a:	83d5                	srli	a5,a5,0x15
    290c:	0792                	slli	a5,a5,0x4
    290e:	fe842703          	lw	a4,-24(s0)
    2912:	00f717b3          	sll	a5,a4,a5
    2916:	fec42703          	lw	a4,-20(s0)
    291a:	8fd9                	or	a5,a5,a4
    291c:	fef42623          	sw	a5,-20(s0)
E:/CODE/C/ch32v307/CHV307_Library/Example/libraries/sdk/Peripheral/ch32v30x_gpio.c:439
  }

  if((GPIO_Remap & 0x80000000) == 0x80000000)
    2920:	fdc42783          	lw	a5,-36(s0)
    2924:	0007d863          	bgez	a5,2934 <GPIO_PinRemapConfig+0x12a>
E:/CODE/C/ch32v307/CHV307_Library/Example/libraries/sdk/Peripheral/ch32v30x_gpio.c:441
  {
    AFIO->PCFR2 = tmpreg;
    2928:	400107b7          	lui	a5,0x40010
    292c:	fec42703          	lw	a4,-20(s0)
    2930:	cfd8                	sw	a4,28(a5)
E:/CODE/C/ch32v307/CHV307_Library/Example/libraries/sdk/Peripheral/ch32v30x_gpio.c:447
  }
  else
  {
    AFIO->PCFR1 = tmpreg;
  }  
}
    2932:	a031                	j	293e <GPIO_PinRemapConfig+0x134>
E:/CODE/C/ch32v307/CHV307_Library/Example/libraries/sdk/Peripheral/ch32v30x_gpio.c:445
    AFIO->PCFR1 = tmpreg;
    2934:	400107b7          	lui	a5,0x40010
    2938:	fec42703          	lw	a4,-20(s0)
    293c:	c3d8                	sw	a4,4(a5)
E:/CODE/C/ch32v307/CHV307_Library/Example/libraries/sdk/Peripheral/ch32v30x_gpio.c:447
}
    293e:	0001                	nop
    2940:	5432                	lw	s0,44(sp)
    2942:	6145                	addi	sp,sp,48
    2944:	8082                	ret

00002946 <RCC_GetClocksFreq>:
RCC_GetClocksFreq():
E:/CODE/C/ch32v307/CHV307_Library/Example/libraries/sdk/Peripheral/ch32v30x_rcc.c:489
* Input          : RCC_Clocks: pointer to a RCC_ClocksTypeDef structure which will hold
*      the clocks frequencies.
* Return         : None
********************************************************************************/
void RCC_GetClocksFreq(RCC_ClocksTypeDef* RCC_Clocks)
{
    2946:	7139                	addi	sp,sp,-64
    2948:	de22                	sw	s0,60(sp)
    294a:	0080                	addi	s0,sp,64
    294c:	fca42623          	sw	a0,-52(s0)
E:/CODE/C/ch32v307/CHV307_Library/Example/libraries/sdk/Peripheral/ch32v30x_rcc.c:490
    uint32_t tmp = 0, pllmull = 0, pllsource = 0, presc = 0, Pll_6_5 = 0;
    2950:	fe042223          	sw	zero,-28(s0)
    2954:	fe042623          	sw	zero,-20(s0)
    2958:	fe042023          	sw	zero,-32(s0)
    295c:	fc042e23          	sw	zero,-36(s0)
    2960:	fe042423          	sw	zero,-24(s0)
E:/CODE/C/ch32v307/CHV307_Library/Example/libraries/sdk/Peripheral/ch32v30x_rcc.c:492

    tmp = RCC->CFGR0 & CFGR0_SWS_Mask;
    2964:	400217b7          	lui	a5,0x40021
    2968:	43dc                	lw	a5,4(a5)
    296a:	8bb1                	andi	a5,a5,12
    296c:	fef42223          	sw	a5,-28(s0)
    2970:	fe442703          	lw	a4,-28(s0)
    2974:	4791                	li	a5,4
    2976:	02f70363          	beq	a4,a5,299c <RCC_GetClocksFreq+0x56>
    297a:	fe442703          	lw	a4,-28(s0)
    297e:	47a1                	li	a5,8
    2980:	02f70663          	beq	a4,a5,29ac <RCC_GetClocksFreq+0x66>
    2984:	fe442783          	lw	a5,-28(s0)
    2988:	14079963          	bnez	a5,2ada <RCC_GetClocksFreq+0x194>
E:/CODE/C/ch32v307/CHV307_Library/Example/libraries/sdk/Peripheral/ch32v30x_rcc.c:497

    switch (tmp)
    {
      case 0x00:
        RCC_Clocks->SYSCLK_Frequency = HSI_VALUE;
    298c:	fcc42783          	lw	a5,-52(s0)
    2990:	007a1737          	lui	a4,0x7a1
    2994:	20070713          	addi	a4,a4,512 # 7a1200 <_data_lma+0x797bdc>
    2998:	c398                	sw	a4,0(a5)
E:/CODE/C/ch32v307/CHV307_Library/Example/libraries/sdk/Peripheral/ch32v30x_rcc.c:498
        break;
    299a:	aa89                	j	2aec <RCC_GetClocksFreq+0x1a6>
E:/CODE/C/ch32v307/CHV307_Library/Example/libraries/sdk/Peripheral/ch32v30x_rcc.c:501

      case 0x04:
        RCC_Clocks->SYSCLK_Frequency = HSE_VALUE;
    299c:	fcc42783          	lw	a5,-52(s0)
    29a0:	007a1737          	lui	a4,0x7a1
    29a4:	20070713          	addi	a4,a4,512 # 7a1200 <_data_lma+0x797bdc>
    29a8:	c398                	sw	a4,0(a5)
E:/CODE/C/ch32v307/CHV307_Library/Example/libraries/sdk/Peripheral/ch32v30x_rcc.c:502
        break;
    29aa:	a289                	j	2aec <RCC_GetClocksFreq+0x1a6>
E:/CODE/C/ch32v307/CHV307_Library/Example/libraries/sdk/Peripheral/ch32v30x_rcc.c:505

      case 0x08:
        pllmull = RCC->CFGR0 & CFGR0_PLLMull_Mask;
    29ac:	400217b7          	lui	a5,0x40021
    29b0:	43d8                	lw	a4,4(a5)
    29b2:	003c07b7          	lui	a5,0x3c0
    29b6:	8ff9                	and	a5,a5,a4
    29b8:	fef42623          	sw	a5,-20(s0)
E:/CODE/C/ch32v307/CHV307_Library/Example/libraries/sdk/Peripheral/ch32v30x_rcc.c:506
        pllsource = RCC->CFGR0 & CFGR0_PLLSRC_Mask;
    29bc:	400217b7          	lui	a5,0x40021
    29c0:	43d8                	lw	a4,4(a5)
    29c2:	67c1                	lui	a5,0x10
    29c4:	8ff9                	and	a5,a5,a4
    29c6:	fef42023          	sw	a5,-32(s0)
E:/CODE/C/ch32v307/CHV307_Library/Example/libraries/sdk/Peripheral/ch32v30x_rcc.c:508

        pllmull = ( pllmull >> 18) + 2;
    29ca:	fec42783          	lw	a5,-20(s0)
    29ce:	83c9                	srli	a5,a5,0x12
    29d0:	0789                	addi	a5,a5,2
    29d2:	fef42623          	sw	a5,-20(s0)
E:/CODE/C/ch32v307/CHV307_Library/Example/libraries/sdk/Peripheral/ch32v30x_rcc.c:510

        if(((*(uint32_t*)0x1FFFF70C) & (1<<14)) != (1<<14)){ /* for other CH32V30x */
    29d6:	1ffff7b7          	lui	a5,0x1ffff
    29da:	70c78793          	addi	a5,a5,1804 # 1ffff70c <_data_lma+0x1fff60e8>
    29de:	4398                	lw	a4,0(a5)
    29e0:	6791                	lui	a5,0x4
    29e2:	8ff9                	and	a5,a5,a4
    29e4:	eb91                	bnez	a5,29f8 <RCC_GetClocksFreq+0xb2>
E:/CODE/C/ch32v307/CHV307_Library/Example/libraries/sdk/Peripheral/ch32v30x_rcc.c:511
            if(pllmull == 17) pllmull = 18;
    29e6:	fec42703          	lw	a4,-20(s0)
    29ea:	47c5                	li	a5,17
    29ec:	04f71963          	bne	a4,a5,2a3e <RCC_GetClocksFreq+0xf8>
E:/CODE/C/ch32v307/CHV307_Library/Example/libraries/sdk/Peripheral/ch32v30x_rcc.c:511 (discriminator 1)
    29f0:	47c9                	li	a5,18
    29f2:	fef42623          	sw	a5,-20(s0)
    29f6:	a0a1                	j	2a3e <RCC_GetClocksFreq+0xf8>
E:/CODE/C/ch32v307/CHV307_Library/Example/libraries/sdk/Peripheral/ch32v30x_rcc.c:514
        }
        else{  /* for CH32V307 */
            if(pllmull == 2) pllmull = 18;
    29f8:	fec42703          	lw	a4,-20(s0)
    29fc:	4789                	li	a5,2
    29fe:	00f71563          	bne	a4,a5,2a08 <RCC_GetClocksFreq+0xc2>
E:/CODE/C/ch32v307/CHV307_Library/Example/libraries/sdk/Peripheral/ch32v30x_rcc.c:514 (discriminator 1)
    2a02:	47c9                	li	a5,18
    2a04:	fef42623          	sw	a5,-20(s0)
E:/CODE/C/ch32v307/CHV307_Library/Example/libraries/sdk/Peripheral/ch32v30x_rcc.c:515
            if(pllmull == 15){
    2a08:	fec42703          	lw	a4,-20(s0)
    2a0c:	47bd                	li	a5,15
    2a0e:	00f71863          	bne	a4,a5,2a1e <RCC_GetClocksFreq+0xd8>
E:/CODE/C/ch32v307/CHV307_Library/Example/libraries/sdk/Peripheral/ch32v30x_rcc.c:516
                pllmull = 13;  /* *6.5 */
    2a12:	47b5                	li	a5,13
    2a14:	fef42623          	sw	a5,-20(s0)
E:/CODE/C/ch32v307/CHV307_Library/Example/libraries/sdk/Peripheral/ch32v30x_rcc.c:517
                Pll_6_5 = 1;
    2a18:	4785                	li	a5,1
    2a1a:	fef42423          	sw	a5,-24(s0)
E:/CODE/C/ch32v307/CHV307_Library/Example/libraries/sdk/Peripheral/ch32v30x_rcc.c:519
            }
            if(pllmull == 16) pllmull = 15;
    2a1e:	fec42703          	lw	a4,-20(s0)
    2a22:	47c1                	li	a5,16
    2a24:	00f71563          	bne	a4,a5,2a2e <RCC_GetClocksFreq+0xe8>
E:/CODE/C/ch32v307/CHV307_Library/Example/libraries/sdk/Peripheral/ch32v30x_rcc.c:519 (discriminator 1)
    2a28:	47bd                	li	a5,15
    2a2a:	fef42623          	sw	a5,-20(s0)
E:/CODE/C/ch32v307/CHV307_Library/Example/libraries/sdk/Peripheral/ch32v30x_rcc.c:520
            if(pllmull == 17) pllmull = 16;
    2a2e:	fec42703          	lw	a4,-20(s0)
    2a32:	47c5                	li	a5,17
    2a34:	00f71563          	bne	a4,a5,2a3e <RCC_GetClocksFreq+0xf8>
E:/CODE/C/ch32v307/CHV307_Library/Example/libraries/sdk/Peripheral/ch32v30x_rcc.c:520 (discriminator 1)
    2a38:	47c1                	li	a5,16
    2a3a:	fef42623          	sw	a5,-20(s0)
E:/CODE/C/ch32v307/CHV307_Library/Example/libraries/sdk/Peripheral/ch32v30x_rcc.c:524
        }


        if (pllsource == 0x00)
    2a3e:	fe042783          	lw	a5,-32(s0)
    2a42:	e3a1                	bnez	a5,2a82 <RCC_GetClocksFreq+0x13c>
E:/CODE/C/ch32v307/CHV307_Library/Example/libraries/sdk/Peripheral/ch32v30x_rcc.c:526
        {
                  if(EXTEN->EXTEN_CTR & EXTEN_PLL_HSI_PRE){
    2a44:	400247b7          	lui	a5,0x40024
    2a48:	80078793          	addi	a5,a5,-2048 # 40023800 <_eusrstack+0x20013800>
    2a4c:	439c                	lw	a5,0(a5)
    2a4e:	8bc1                	andi	a5,a5,16
    2a50:	cf89                	beqz	a5,2a6a <RCC_GetClocksFreq+0x124>
E:/CODE/C/ch32v307/CHV307_Library/Example/libraries/sdk/Peripheral/ch32v30x_rcc.c:527
                   RCC_Clocks->SYSCLK_Frequency = (HSI_VALUE) * pllmull;
    2a52:	fec42703          	lw	a4,-20(s0)
    2a56:	007a17b7          	lui	a5,0x7a1
    2a5a:	20078793          	addi	a5,a5,512 # 7a1200 <_data_lma+0x797bdc>
    2a5e:	02f70733          	mul	a4,a4,a5
    2a62:	fcc42783          	lw	a5,-52(s0)
    2a66:	c398                	sw	a4,0(a5)
    2a68:	a899                	j	2abe <RCC_GetClocksFreq+0x178>
E:/CODE/C/ch32v307/CHV307_Library/Example/libraries/sdk/Peripheral/ch32v30x_rcc.c:530
                  }
                  else{
                   RCC_Clocks->SYSCLK_Frequency = (HSI_VALUE >>1) * pllmull;
    2a6a:	fec42703          	lw	a4,-20(s0)
    2a6e:	003d17b7          	lui	a5,0x3d1
    2a72:	90078793          	addi	a5,a5,-1792 # 3d0900 <_data_lma+0x3c72dc>
    2a76:	02f70733          	mul	a4,a4,a5
    2a7a:	fcc42783          	lw	a5,-52(s0)
    2a7e:	c398                	sw	a4,0(a5)
    2a80:	a83d                	j	2abe <RCC_GetClocksFreq+0x178>
E:/CODE/C/ch32v307/CHV307_Library/Example/libraries/sdk/Peripheral/ch32v30x_rcc.c:535
                  }
        }
        else
        {
          if ((RCC->CFGR0 & CFGR0_PLLXTPRE_Mask) != (uint32_t)RESET)
    2a82:	400217b7          	lui	a5,0x40021
    2a86:	43d8                	lw	a4,4(a5)
    2a88:	000207b7          	lui	a5,0x20
    2a8c:	8ff9                	and	a5,a5,a4
    2a8e:	cf89                	beqz	a5,2aa8 <RCC_GetClocksFreq+0x162>
E:/CODE/C/ch32v307/CHV307_Library/Example/libraries/sdk/Peripheral/ch32v30x_rcc.c:537
          {
            RCC_Clocks->SYSCLK_Frequency = (HSE_VALUE >> 1) * pllmull;
    2a90:	fec42703          	lw	a4,-20(s0)
    2a94:	003d17b7          	lui	a5,0x3d1
    2a98:	90078793          	addi	a5,a5,-1792 # 3d0900 <_data_lma+0x3c72dc>
    2a9c:	02f70733          	mul	a4,a4,a5
    2aa0:	fcc42783          	lw	a5,-52(s0)
    2aa4:	c398                	sw	a4,0(a5)
    2aa6:	a821                	j	2abe <RCC_GetClocksFreq+0x178>
E:/CODE/C/ch32v307/CHV307_Library/Example/libraries/sdk/Peripheral/ch32v30x_rcc.c:541
          }
          else
          {
            RCC_Clocks->SYSCLK_Frequency = HSE_VALUE * pllmull;
    2aa8:	fec42703          	lw	a4,-20(s0)
    2aac:	007a17b7          	lui	a5,0x7a1
    2ab0:	20078793          	addi	a5,a5,512 # 7a1200 <_data_lma+0x797bdc>
    2ab4:	02f70733          	mul	a4,a4,a5
    2ab8:	fcc42783          	lw	a5,-52(s0)
    2abc:	c398                	sw	a4,0(a5)
E:/CODE/C/ch32v307/CHV307_Library/Example/libraries/sdk/Peripheral/ch32v30x_rcc.c:545
          }
        }

        if(Pll_6_5 == 1) RCC_Clocks->SYSCLK_Frequency = (RCC_Clocks->SYSCLK_Frequency / 2);
    2abe:	fe842703          	lw	a4,-24(s0)
    2ac2:	4785                	li	a5,1
    2ac4:	02f71363          	bne	a4,a5,2aea <RCC_GetClocksFreq+0x1a4>
E:/CODE/C/ch32v307/CHV307_Library/Example/libraries/sdk/Peripheral/ch32v30x_rcc.c:545 (discriminator 1)
    2ac8:	fcc42783          	lw	a5,-52(s0)
    2acc:	439c                	lw	a5,0(a5)
    2ace:	0017d713          	srli	a4,a5,0x1
    2ad2:	fcc42783          	lw	a5,-52(s0)
    2ad6:	c398                	sw	a4,0(a5)
E:/CODE/C/ch32v307/CHV307_Library/Example/libraries/sdk/Peripheral/ch32v30x_rcc.c:547 (discriminator 1)

        break;
    2ad8:	a809                	j	2aea <RCC_GetClocksFreq+0x1a4>
E:/CODE/C/ch32v307/CHV307_Library/Example/libraries/sdk/Peripheral/ch32v30x_rcc.c:550

      default:
        RCC_Clocks->SYSCLK_Frequency = HSI_VALUE;
    2ada:	fcc42783          	lw	a5,-52(s0)
    2ade:	007a1737          	lui	a4,0x7a1
    2ae2:	20070713          	addi	a4,a4,512 # 7a1200 <_data_lma+0x797bdc>
    2ae6:	c398                	sw	a4,0(a5)
E:/CODE/C/ch32v307/CHV307_Library/Example/libraries/sdk/Peripheral/ch32v30x_rcc.c:551
        break;
    2ae8:	a011                	j	2aec <RCC_GetClocksFreq+0x1a6>
E:/CODE/C/ch32v307/CHV307_Library/Example/libraries/sdk/Peripheral/ch32v30x_rcc.c:547
        break;
    2aea:	0001                	nop
E:/CODE/C/ch32v307/CHV307_Library/Example/libraries/sdk/Peripheral/ch32v30x_rcc.c:554
    }

    tmp = RCC->CFGR0 & CFGR0_HPRE_Set_Mask;
    2aec:	400217b7          	lui	a5,0x40021
    2af0:	43dc                	lw	a5,4(a5)
    2af2:	0f07f793          	andi	a5,a5,240
    2af6:	fef42223          	sw	a5,-28(s0)
E:/CODE/C/ch32v307/CHV307_Library/Example/libraries/sdk/Peripheral/ch32v30x_rcc.c:555
    tmp = tmp >> 4;
    2afa:	fe442783          	lw	a5,-28(s0)
    2afe:	8391                	srli	a5,a5,0x4
    2b00:	fef42223          	sw	a5,-28(s0)
E:/CODE/C/ch32v307/CHV307_Library/Example/libraries/sdk/Peripheral/ch32v30x_rcc.c:556
    presc = APBAHBPrescTable[tmp];
    2b04:	200007b7          	lui	a5,0x20000
    2b08:	00078713          	mv	a4,a5
    2b0c:	fe442783          	lw	a5,-28(s0)
    2b10:	97ba                	add	a5,a5,a4
    2b12:	0007c783          	lbu	a5,0(a5) # 20000000 <_data_vma>
    2b16:	0ff7f793          	andi	a5,a5,255
    2b1a:	fcf42e23          	sw	a5,-36(s0)
E:/CODE/C/ch32v307/CHV307_Library/Example/libraries/sdk/Peripheral/ch32v30x_rcc.c:557
    RCC_Clocks->HCLK_Frequency = RCC_Clocks->SYSCLK_Frequency >> presc;
    2b1e:	fcc42783          	lw	a5,-52(s0)
    2b22:	4398                	lw	a4,0(a5)
    2b24:	fdc42783          	lw	a5,-36(s0)
    2b28:	00f75733          	srl	a4,a4,a5
    2b2c:	fcc42783          	lw	a5,-52(s0)
    2b30:	c3d8                	sw	a4,4(a5)
E:/CODE/C/ch32v307/CHV307_Library/Example/libraries/sdk/Peripheral/ch32v30x_rcc.c:558
    tmp = RCC->CFGR0 & CFGR0_PPRE1_Set_Mask;
    2b32:	400217b7          	lui	a5,0x40021
    2b36:	43dc                	lw	a5,4(a5)
    2b38:	7007f793          	andi	a5,a5,1792
    2b3c:	fef42223          	sw	a5,-28(s0)
E:/CODE/C/ch32v307/CHV307_Library/Example/libraries/sdk/Peripheral/ch32v30x_rcc.c:559
    tmp = tmp >> 8;
    2b40:	fe442783          	lw	a5,-28(s0)
    2b44:	83a1                	srli	a5,a5,0x8
    2b46:	fef42223          	sw	a5,-28(s0)
E:/CODE/C/ch32v307/CHV307_Library/Example/libraries/sdk/Peripheral/ch32v30x_rcc.c:560
    presc = APBAHBPrescTable[tmp];
    2b4a:	200007b7          	lui	a5,0x20000
    2b4e:	00078713          	mv	a4,a5
    2b52:	fe442783          	lw	a5,-28(s0)
    2b56:	97ba                	add	a5,a5,a4
    2b58:	0007c783          	lbu	a5,0(a5) # 20000000 <_data_vma>
    2b5c:	0ff7f793          	andi	a5,a5,255
    2b60:	fcf42e23          	sw	a5,-36(s0)
E:/CODE/C/ch32v307/CHV307_Library/Example/libraries/sdk/Peripheral/ch32v30x_rcc.c:561
    RCC_Clocks->PCLK1_Frequency = RCC_Clocks->HCLK_Frequency >> presc;
    2b64:	fcc42783          	lw	a5,-52(s0)
    2b68:	43d8                	lw	a4,4(a5)
    2b6a:	fdc42783          	lw	a5,-36(s0)
    2b6e:	00f75733          	srl	a4,a4,a5
    2b72:	fcc42783          	lw	a5,-52(s0)
    2b76:	c798                	sw	a4,8(a5)
E:/CODE/C/ch32v307/CHV307_Library/Example/libraries/sdk/Peripheral/ch32v30x_rcc.c:562
    tmp = RCC->CFGR0 & CFGR0_PPRE2_Set_Mask;
    2b78:	400217b7          	lui	a5,0x40021
    2b7c:	43d8                	lw	a4,4(a5)
    2b7e:	6791                	lui	a5,0x4
    2b80:	80078793          	addi	a5,a5,-2048 # 3800 <OTG_FS_IRQHandler+0x46a>
    2b84:	8ff9                	and	a5,a5,a4
    2b86:	fef42223          	sw	a5,-28(s0)
E:/CODE/C/ch32v307/CHV307_Library/Example/libraries/sdk/Peripheral/ch32v30x_rcc.c:563
    tmp = tmp >> 11;
    2b8a:	fe442783          	lw	a5,-28(s0)
    2b8e:	83ad                	srli	a5,a5,0xb
    2b90:	fef42223          	sw	a5,-28(s0)
E:/CODE/C/ch32v307/CHV307_Library/Example/libraries/sdk/Peripheral/ch32v30x_rcc.c:564
    presc = APBAHBPrescTable[tmp];
    2b94:	200007b7          	lui	a5,0x20000
    2b98:	00078713          	mv	a4,a5
    2b9c:	fe442783          	lw	a5,-28(s0)
    2ba0:	97ba                	add	a5,a5,a4
    2ba2:	0007c783          	lbu	a5,0(a5) # 20000000 <_data_vma>
    2ba6:	0ff7f793          	andi	a5,a5,255
    2baa:	fcf42e23          	sw	a5,-36(s0)
E:/CODE/C/ch32v307/CHV307_Library/Example/libraries/sdk/Peripheral/ch32v30x_rcc.c:565
    RCC_Clocks->PCLK2_Frequency = RCC_Clocks->HCLK_Frequency >> presc;
    2bae:	fcc42783          	lw	a5,-52(s0)
    2bb2:	43d8                	lw	a4,4(a5)
    2bb4:	fdc42783          	lw	a5,-36(s0)
    2bb8:	00f75733          	srl	a4,a4,a5
    2bbc:	fcc42783          	lw	a5,-52(s0)
    2bc0:	c7d8                	sw	a4,12(a5)
E:/CODE/C/ch32v307/CHV307_Library/Example/libraries/sdk/Peripheral/ch32v30x_rcc.c:566
    tmp = RCC->CFGR0 & CFGR0_ADCPRE_Set_Mask;
    2bc2:	400217b7          	lui	a5,0x40021
    2bc6:	43d8                	lw	a4,4(a5)
    2bc8:	67b1                	lui	a5,0xc
    2bca:	8ff9                	and	a5,a5,a4
    2bcc:	fef42223          	sw	a5,-28(s0)
E:/CODE/C/ch32v307/CHV307_Library/Example/libraries/sdk/Peripheral/ch32v30x_rcc.c:567
    tmp = tmp >> 14;
    2bd0:	fe442783          	lw	a5,-28(s0)
    2bd4:	83b9                	srli	a5,a5,0xe
    2bd6:	fef42223          	sw	a5,-28(s0)
E:/CODE/C/ch32v307/CHV307_Library/Example/libraries/sdk/Peripheral/ch32v30x_rcc.c:568
    presc = ADCPrescTable[tmp];
    2bda:	80818713          	addi	a4,gp,-2040 # 20000228 <ADCPrescTable>
    2bde:	fe442783          	lw	a5,-28(s0)
    2be2:	97ba                	add	a5,a5,a4
    2be4:	0007c783          	lbu	a5,0(a5) # c000 <_data_lma+0x29dc>
    2be8:	0ff7f793          	andi	a5,a5,255
    2bec:	fcf42e23          	sw	a5,-36(s0)
E:/CODE/C/ch32v307/CHV307_Library/Example/libraries/sdk/Peripheral/ch32v30x_rcc.c:569
    RCC_Clocks->ADCCLK_Frequency = RCC_Clocks->PCLK2_Frequency / presc;
    2bf0:	fcc42783          	lw	a5,-52(s0)
    2bf4:	47d8                	lw	a4,12(a5)
    2bf6:	fdc42783          	lw	a5,-36(s0)
    2bfa:	02f75733          	divu	a4,a4,a5
    2bfe:	fcc42783          	lw	a5,-52(s0)
    2c02:	cb98                	sw	a4,16(a5)
E:/CODE/C/ch32v307/CHV307_Library/Example/libraries/sdk/Peripheral/ch32v30x_rcc.c:570
}
    2c04:	0001                	nop
    2c06:	5472                	lw	s0,60(sp)
    2c08:	6121                	addi	sp,sp,64
    2c0a:	8082                	ret

00002c0c <RCC_APB2PeriphClockCmd>:
RCC_APB2PeriphClockCmd():
E:/CODE/C/ch32v307/CHV307_Library/Example/libraries/sdk/Peripheral/ch32v30x_rcc.c:627
*                    RCC_APB2Periph_USART1.
*                  NewState: ENABLE or DISABLE
* Return         : None
*******************************************************************************/	
void RCC_APB2PeriphClockCmd(uint32_t RCC_APB2Periph, FunctionalState NewState)
{
    2c0c:	1101                	addi	sp,sp,-32
    2c0e:	ce22                	sw	s0,28(sp)
    2c10:	1000                	addi	s0,sp,32
    2c12:	fea42623          	sw	a0,-20(s0)
    2c16:	feb42423          	sw	a1,-24(s0)
E:/CODE/C/ch32v307/CHV307_Library/Example/libraries/sdk/Peripheral/ch32v30x_rcc.c:628
  if (NewState != DISABLE)
    2c1a:	fe842783          	lw	a5,-24(s0)
    2c1e:	cb99                	beqz	a5,2c34 <RCC_APB2PeriphClockCmd+0x28>
E:/CODE/C/ch32v307/CHV307_Library/Example/libraries/sdk/Peripheral/ch32v30x_rcc.c:630
  {
    RCC->APB2PCENR |= RCC_APB2Periph;
    2c20:	400217b7          	lui	a5,0x40021
    2c24:	4f94                	lw	a3,24(a5)
    2c26:	400217b7          	lui	a5,0x40021
    2c2a:	fec42703          	lw	a4,-20(s0)
    2c2e:	8f55                	or	a4,a4,a3
    2c30:	cf98                	sw	a4,24(a5)
E:/CODE/C/ch32v307/CHV307_Library/Example/libraries/sdk/Peripheral/ch32v30x_rcc.c:636
  }
  else
  {
    RCC->APB2PCENR &= ~RCC_APB2Periph;
  }
}
    2c32:	a821                	j	2c4a <RCC_APB2PeriphClockCmd+0x3e>
E:/CODE/C/ch32v307/CHV307_Library/Example/libraries/sdk/Peripheral/ch32v30x_rcc.c:634
    RCC->APB2PCENR &= ~RCC_APB2Periph;
    2c34:	400217b7          	lui	a5,0x40021
    2c38:	4f94                	lw	a3,24(a5)
    2c3a:	fec42783          	lw	a5,-20(s0)
    2c3e:	fff7c713          	not	a4,a5
    2c42:	400217b7          	lui	a5,0x40021
    2c46:	8f75                	and	a4,a4,a3
    2c48:	cf98                	sw	a4,24(a5)
E:/CODE/C/ch32v307/CHV307_Library/Example/libraries/sdk/Peripheral/ch32v30x_rcc.c:636
}
    2c4a:	0001                	nop
    2c4c:	4472                	lw	s0,28(sp)
    2c4e:	6105                	addi	sp,sp,32
    2c50:	8082                	ret

00002c52 <RCC_APB1PeriphClockCmd>:
RCC_APB1PeriphClockCmd():
E:/CODE/C/ch32v307/CHV307_Library/Example/libraries/sdk/Peripheral/ch32v30x_rcc.c:668
*                    RCC_APB1Periph_DAC.                
*                  NewState: ENABLE or DISABLE.
* Return         : None
*******************************************************************************/	
void RCC_APB1PeriphClockCmd(uint32_t RCC_APB1Periph, FunctionalState NewState)
{
    2c52:	1101                	addi	sp,sp,-32
    2c54:	ce22                	sw	s0,28(sp)
    2c56:	1000                	addi	s0,sp,32
    2c58:	fea42623          	sw	a0,-20(s0)
    2c5c:	feb42423          	sw	a1,-24(s0)
E:/CODE/C/ch32v307/CHV307_Library/Example/libraries/sdk/Peripheral/ch32v30x_rcc.c:669
  if (NewState != DISABLE)
    2c60:	fe842783          	lw	a5,-24(s0)
    2c64:	cb99                	beqz	a5,2c7a <RCC_APB1PeriphClockCmd+0x28>
E:/CODE/C/ch32v307/CHV307_Library/Example/libraries/sdk/Peripheral/ch32v30x_rcc.c:671
  {
    RCC->APB1PCENR |= RCC_APB1Periph;
    2c66:	400217b7          	lui	a5,0x40021
    2c6a:	4fd4                	lw	a3,28(a5)
    2c6c:	400217b7          	lui	a5,0x40021
    2c70:	fec42703          	lw	a4,-20(s0)
    2c74:	8f55                	or	a4,a4,a3
    2c76:	cfd8                	sw	a4,28(a5)
E:/CODE/C/ch32v307/CHV307_Library/Example/libraries/sdk/Peripheral/ch32v30x_rcc.c:677
  }
  else
  {
    RCC->APB1PCENR &= ~RCC_APB1Periph;
  }
}
    2c78:	a821                	j	2c90 <RCC_APB1PeriphClockCmd+0x3e>
E:/CODE/C/ch32v307/CHV307_Library/Example/libraries/sdk/Peripheral/ch32v30x_rcc.c:675
    RCC->APB1PCENR &= ~RCC_APB1Periph;
    2c7a:	400217b7          	lui	a5,0x40021
    2c7e:	4fd4                	lw	a3,28(a5)
    2c80:	fec42783          	lw	a5,-20(s0)
    2c84:	fff7c713          	not	a4,a5
    2c88:	400217b7          	lui	a5,0x40021
    2c8c:	8f75                	and	a4,a4,a3
    2c8e:	cfd8                	sw	a4,28(a5)
E:/CODE/C/ch32v307/CHV307_Library/Example/libraries/sdk/Peripheral/ch32v30x_rcc.c:677
}
    2c90:	0001                	nop
    2c92:	4472                	lw	s0,28(sp)
    2c94:	6105                	addi	sp,sp,32
    2c96:	8082                	ret

00002c98 <TIM_GetITStatus>:
TIM_GetITStatus():
E:/CODE/C/ch32v307/CHV307_Library/Example/libraries/sdk/Peripheral/ch32v30x_tim.c:1887
*                    TIM_IT_Trigger: TIM Trigger Interrupt source.
*                    TIM_IT_Break: TIM Break Interrupt source.
* Return         : bitstatus: SET or RESET.
*******************************************************************************/
ITStatus TIM_GetITStatus(TIM_TypeDef* TIMx, uint16_t TIM_IT)
{
    2c98:	7179                	addi	sp,sp,-48
    2c9a:	d622                	sw	s0,44(sp)
    2c9c:	1800                	addi	s0,sp,48
    2c9e:	fca42e23          	sw	a0,-36(s0)
    2ca2:	87ae                	mv	a5,a1
    2ca4:	fcf41d23          	sh	a5,-38(s0)
E:/CODE/C/ch32v307/CHV307_Library/Example/libraries/sdk/Peripheral/ch32v30x_tim.c:1888
  ITStatus bitstatus = RESET;  
    2ca8:	fe042623          	sw	zero,-20(s0)
E:/CODE/C/ch32v307/CHV307_Library/Example/libraries/sdk/Peripheral/ch32v30x_tim.c:1889
  uint16_t itstatus = 0x0, itenable = 0x0;
    2cac:	fe041523          	sh	zero,-22(s0)
    2cb0:	fe041423          	sh	zero,-24(s0)
E:/CODE/C/ch32v307/CHV307_Library/Example/libraries/sdk/Peripheral/ch32v30x_tim.c:1891
   
  itstatus = TIMx->INTFR & TIM_IT;
    2cb4:	fdc42783          	lw	a5,-36(s0)
    2cb8:	0107d783          	lhu	a5,16(a5) # 40021010 <_eusrstack+0x20011010>
    2cbc:	01079713          	slli	a4,a5,0x10
    2cc0:	8341                	srli	a4,a4,0x10
    2cc2:	fda45783          	lhu	a5,-38(s0)
    2cc6:	8ff9                	and	a5,a5,a4
    2cc8:	fef41523          	sh	a5,-22(s0)
E:/CODE/C/ch32v307/CHV307_Library/Example/libraries/sdk/Peripheral/ch32v30x_tim.c:1893
  
  itenable = TIMx->DMAINTENR & TIM_IT;
    2ccc:	fdc42783          	lw	a5,-36(s0)
    2cd0:	00c7d783          	lhu	a5,12(a5)
    2cd4:	01079713          	slli	a4,a5,0x10
    2cd8:	8341                	srli	a4,a4,0x10
    2cda:	fda45783          	lhu	a5,-38(s0)
    2cde:	8ff9                	and	a5,a5,a4
    2ce0:	fef41423          	sh	a5,-24(s0)
E:/CODE/C/ch32v307/CHV307_Library/Example/libraries/sdk/Peripheral/ch32v30x_tim.c:1894
  if ((itstatus != (uint16_t)RESET) && (itenable != (uint16_t)RESET))
    2ce4:	fea45783          	lhu	a5,-22(s0)
    2ce8:	cb81                	beqz	a5,2cf8 <TIM_GetITStatus+0x60>
E:/CODE/C/ch32v307/CHV307_Library/Example/libraries/sdk/Peripheral/ch32v30x_tim.c:1894 (discriminator 1)
    2cea:	fe845783          	lhu	a5,-24(s0)
    2cee:	c789                	beqz	a5,2cf8 <TIM_GetITStatus+0x60>
E:/CODE/C/ch32v307/CHV307_Library/Example/libraries/sdk/Peripheral/ch32v30x_tim.c:1896
  {
    bitstatus = SET;
    2cf0:	4785                	li	a5,1
    2cf2:	fef42623          	sw	a5,-20(s0)
    2cf6:	a019                	j	2cfc <TIM_GetITStatus+0x64>
E:/CODE/C/ch32v307/CHV307_Library/Example/libraries/sdk/Peripheral/ch32v30x_tim.c:1900
  }
  else
  {
    bitstatus = RESET;
    2cf8:	fe042623          	sw	zero,-20(s0)
E:/CODE/C/ch32v307/CHV307_Library/Example/libraries/sdk/Peripheral/ch32v30x_tim.c:1903
  }
	
  return bitstatus;
    2cfc:	fec42783          	lw	a5,-20(s0)
E:/CODE/C/ch32v307/CHV307_Library/Example/libraries/sdk/Peripheral/ch32v30x_tim.c:1904
}
    2d00:	853e                	mv	a0,a5
    2d02:	5432                	lw	s0,44(sp)
    2d04:	6145                	addi	sp,sp,48
    2d06:	8082                	ret

00002d08 <TIM_ClearITPendingBit>:
TIM_ClearITPendingBit():
E:/CODE/C/ch32v307/CHV307_Library/Example/libraries/sdk/Peripheral/ch32v30x_tim.c:1922
*                    TIM_IT_Trigger: TIM Trigger Interrupt source.
*                    TIM_IT_Break: TIM Break Interrupt source.
* Return         : None
*******************************************************************************/
void TIM_ClearITPendingBit(TIM_TypeDef* TIMx, uint16_t TIM_IT)
{
    2d08:	1101                	addi	sp,sp,-32
    2d0a:	ce22                	sw	s0,28(sp)
    2d0c:	1000                	addi	s0,sp,32
    2d0e:	fea42623          	sw	a0,-20(s0)
    2d12:	87ae                	mv	a5,a1
    2d14:	fef41523          	sh	a5,-22(s0)
E:/CODE/C/ch32v307/CHV307_Library/Example/libraries/sdk/Peripheral/ch32v30x_tim.c:1923
  TIMx->INTFR = (uint16_t)~TIM_IT;
    2d18:	fea45783          	lhu	a5,-22(s0)
    2d1c:	fff7c793          	not	a5,a5
    2d20:	01079713          	slli	a4,a5,0x10
    2d24:	8341                	srli	a4,a4,0x10
    2d26:	fec42783          	lw	a5,-20(s0)
    2d2a:	00e79823          	sh	a4,16(a5)
E:/CODE/C/ch32v307/CHV307_Library/Example/libraries/sdk/Peripheral/ch32v30x_tim.c:1924
}
    2d2e:	0001                	nop
    2d30:	4472                	lw	s0,28(sp)
    2d32:	6105                	addi	sp,sp,32
    2d34:	8082                	ret

00002d36 <USART_Init>:
USART_Init():
E:/CODE/C/ch32v307/CHV307_Library/Example/libraries/sdk/Peripheral/ch32v30x_usart.c:105
*                  USART_InitStruct: pointer to a USART_InitTypeDef structure
*      that contains the configuration information for the specified USART peripheral. 
* Return         : None
*******************************************************************************/
void USART_Init(USART_TypeDef* USARTx, USART_InitTypeDef* USART_InitStruct)
{
    2d36:	715d                	addi	sp,sp,-80
    2d38:	c686                	sw	ra,76(sp)
    2d3a:	c4a2                	sw	s0,72(sp)
    2d3c:	0880                	addi	s0,sp,80
    2d3e:	faa42e23          	sw	a0,-68(s0)
    2d42:	fab42c23          	sw	a1,-72(s0)
E:/CODE/C/ch32v307/CHV307_Library/Example/libraries/sdk/Peripheral/ch32v30x_usart.c:106
  uint32_t tmpreg = 0x00, apbclock = 0x00;
    2d46:	fe042623          	sw	zero,-20(s0)
    2d4a:	fe042423          	sw	zero,-24(s0)
E:/CODE/C/ch32v307/CHV307_Library/Example/libraries/sdk/Peripheral/ch32v30x_usart.c:107
  uint32_t integerdivider = 0x00;
    2d4e:	fe042223          	sw	zero,-28(s0)
E:/CODE/C/ch32v307/CHV307_Library/Example/libraries/sdk/Peripheral/ch32v30x_usart.c:108
  uint32_t fractionaldivider = 0x00;
    2d52:	fe042023          	sw	zero,-32(s0)
E:/CODE/C/ch32v307/CHV307_Library/Example/libraries/sdk/Peripheral/ch32v30x_usart.c:109
  uint32_t usartxbase = 0;
    2d56:	fc042e23          	sw	zero,-36(s0)
E:/CODE/C/ch32v307/CHV307_Library/Example/libraries/sdk/Peripheral/ch32v30x_usart.c:116

  if (USART_InitStruct->USART_HardwareFlowControl != USART_HardwareFlowControl_None)
  {
  }

  usartxbase = (uint32_t)USARTx;
    2d5a:	fbc42783          	lw	a5,-68(s0)
    2d5e:	fcf42e23          	sw	a5,-36(s0)
E:/CODE/C/ch32v307/CHV307_Library/Example/libraries/sdk/Peripheral/ch32v30x_usart.c:117
  tmpreg = USARTx->CTLR2;
    2d62:	fbc42783          	lw	a5,-68(s0)
    2d66:	0107d783          	lhu	a5,16(a5)
    2d6a:	07c2                	slli	a5,a5,0x10
    2d6c:	83c1                	srli	a5,a5,0x10
    2d6e:	fef42623          	sw	a5,-20(s0)
E:/CODE/C/ch32v307/CHV307_Library/Example/libraries/sdk/Peripheral/ch32v30x_usart.c:118
  tmpreg &= CTLR2_STOP_CLEAR_Mask;
    2d72:	fec42703          	lw	a4,-20(s0)
    2d76:	67b5                	lui	a5,0xd
    2d78:	17fd                	addi	a5,a5,-1
    2d7a:	8ff9                	and	a5,a5,a4
    2d7c:	fef42623          	sw	a5,-20(s0)
E:/CODE/C/ch32v307/CHV307_Library/Example/libraries/sdk/Peripheral/ch32v30x_usart.c:119
  tmpreg |= (uint32_t)USART_InitStruct->USART_StopBits;  
    2d80:	fb842783          	lw	a5,-72(s0)
    2d84:	0067d783          	lhu	a5,6(a5) # d006 <_data_lma+0x39e2>
    2d88:	873e                	mv	a4,a5
    2d8a:	fec42783          	lw	a5,-20(s0)
    2d8e:	8fd9                	or	a5,a5,a4
    2d90:	fef42623          	sw	a5,-20(s0)
E:/CODE/C/ch32v307/CHV307_Library/Example/libraries/sdk/Peripheral/ch32v30x_usart.c:121
	
  USARTx->CTLR2 = (uint16_t)tmpreg;
    2d94:	fec42783          	lw	a5,-20(s0)
    2d98:	01079713          	slli	a4,a5,0x10
    2d9c:	8341                	srli	a4,a4,0x10
    2d9e:	fbc42783          	lw	a5,-68(s0)
    2da2:	00e79823          	sh	a4,16(a5)
E:/CODE/C/ch32v307/CHV307_Library/Example/libraries/sdk/Peripheral/ch32v30x_usart.c:122
  tmpreg = USARTx->CTLR1;
    2da6:	fbc42783          	lw	a5,-68(s0)
    2daa:	00c7d783          	lhu	a5,12(a5)
    2dae:	07c2                	slli	a5,a5,0x10
    2db0:	83c1                	srli	a5,a5,0x10
    2db2:	fef42623          	sw	a5,-20(s0)
E:/CODE/C/ch32v307/CHV307_Library/Example/libraries/sdk/Peripheral/ch32v30x_usart.c:123
  tmpreg &= CTLR1_CLEAR_Mask;
    2db6:	fec42703          	lw	a4,-20(s0)
    2dba:	67bd                	lui	a5,0xf
    2dbc:	9f378793          	addi	a5,a5,-1549 # e9f3 <_data_lma+0x53cf>
    2dc0:	8ff9                	and	a5,a5,a4
    2dc2:	fef42623          	sw	a5,-20(s0)
E:/CODE/C/ch32v307/CHV307_Library/Example/libraries/sdk/Peripheral/ch32v30x_usart.c:124
  tmpreg |= (uint32_t)USART_InitStruct->USART_WordLength | USART_InitStruct->USART_Parity |
    2dc6:	fb842783          	lw	a5,-72(s0)
    2dca:	0047d703          	lhu	a4,4(a5)
    2dce:	fb842783          	lw	a5,-72(s0)
    2dd2:	0087d783          	lhu	a5,8(a5)
    2dd6:	8fd9                	or	a5,a5,a4
    2dd8:	01079713          	slli	a4,a5,0x10
    2ddc:	8341                	srli	a4,a4,0x10
E:/CODE/C/ch32v307/CHV307_Library/Example/libraries/sdk/Peripheral/ch32v30x_usart.c:125
            USART_InitStruct->USART_Mode;
    2dde:	fb842783          	lw	a5,-72(s0)
    2de2:	00a7d783          	lhu	a5,10(a5)
E:/CODE/C/ch32v307/CHV307_Library/Example/libraries/sdk/Peripheral/ch32v30x_usart.c:124
  tmpreg |= (uint32_t)USART_InitStruct->USART_WordLength | USART_InitStruct->USART_Parity |
    2de6:	8fd9                	or	a5,a5,a4
    2de8:	07c2                	slli	a5,a5,0x10
    2dea:	83c1                	srli	a5,a5,0x10
    2dec:	873e                	mv	a4,a5
    2dee:	fec42783          	lw	a5,-20(s0)
    2df2:	8fd9                	or	a5,a5,a4
    2df4:	fef42623          	sw	a5,-20(s0)
E:/CODE/C/ch32v307/CHV307_Library/Example/libraries/sdk/Peripheral/ch32v30x_usart.c:126
  USARTx->CTLR1 = (uint16_t)tmpreg;
    2df8:	fec42783          	lw	a5,-20(s0)
    2dfc:	01079713          	slli	a4,a5,0x10
    2e00:	8341                	srli	a4,a4,0x10
    2e02:	fbc42783          	lw	a5,-68(s0)
    2e06:	00e79623          	sh	a4,12(a5)
E:/CODE/C/ch32v307/CHV307_Library/Example/libraries/sdk/Peripheral/ch32v30x_usart.c:128
 
  tmpreg = USARTx->CTLR3;
    2e0a:	fbc42783          	lw	a5,-68(s0)
    2e0e:	0147d783          	lhu	a5,20(a5)
    2e12:	07c2                	slli	a5,a5,0x10
    2e14:	83c1                	srli	a5,a5,0x10
    2e16:	fef42623          	sw	a5,-20(s0)
E:/CODE/C/ch32v307/CHV307_Library/Example/libraries/sdk/Peripheral/ch32v30x_usart.c:129
  tmpreg &= CTLR3_CLEAR_Mask;
    2e1a:	fec42703          	lw	a4,-20(s0)
    2e1e:	67c1                	lui	a5,0x10
    2e20:	cff78793          	addi	a5,a5,-769 # fcff <_data_lma+0x66db>
    2e24:	8ff9                	and	a5,a5,a4
    2e26:	fef42623          	sw	a5,-20(s0)
E:/CODE/C/ch32v307/CHV307_Library/Example/libraries/sdk/Peripheral/ch32v30x_usart.c:130
  tmpreg |= USART_InitStruct->USART_HardwareFlowControl;
    2e2a:	fb842783          	lw	a5,-72(s0)
    2e2e:	00c7d783          	lhu	a5,12(a5)
    2e32:	873e                	mv	a4,a5
    2e34:	fec42783          	lw	a5,-20(s0)
    2e38:	8fd9                	or	a5,a5,a4
    2e3a:	fef42623          	sw	a5,-20(s0)
E:/CODE/C/ch32v307/CHV307_Library/Example/libraries/sdk/Peripheral/ch32v30x_usart.c:131
  USARTx->CTLR3 = (uint16_t)tmpreg;
    2e3e:	fec42783          	lw	a5,-20(s0)
    2e42:	01079713          	slli	a4,a5,0x10
    2e46:	8341                	srli	a4,a4,0x10
    2e48:	fbc42783          	lw	a5,-68(s0)
    2e4c:	00e79a23          	sh	a4,20(a5)
E:/CODE/C/ch32v307/CHV307_Library/Example/libraries/sdk/Peripheral/ch32v30x_usart.c:133

  RCC_GetClocksFreq(&RCC_ClocksStatus);
    2e50:	fc840793          	addi	a5,s0,-56
    2e54:	853e                	mv	a0,a5
    2e56:	af1ff0ef          	jal	ra,2946 <RCC_GetClocksFreq>
E:/CODE/C/ch32v307/CHV307_Library/Example/libraries/sdk/Peripheral/ch32v30x_usart.c:135
	
  if (usartxbase == USART1_BASE)
    2e5a:	fdc42703          	lw	a4,-36(s0)
    2e5e:	400147b7          	lui	a5,0x40014
    2e62:	80078793          	addi	a5,a5,-2048 # 40013800 <_eusrstack+0x20003800>
    2e66:	00f71763          	bne	a4,a5,2e74 <USART_Init+0x13e>
E:/CODE/C/ch32v307/CHV307_Library/Example/libraries/sdk/Peripheral/ch32v30x_usart.c:137
  {
    apbclock = RCC_ClocksStatus.PCLK2_Frequency;
    2e6a:	fd442783          	lw	a5,-44(s0)
    2e6e:	fef42423          	sw	a5,-24(s0)
    2e72:	a029                	j	2e7c <USART_Init+0x146>
E:/CODE/C/ch32v307/CHV307_Library/Example/libraries/sdk/Peripheral/ch32v30x_usart.c:141
  }
  else
  {
    apbclock = RCC_ClocksStatus.PCLK1_Frequency;
    2e74:	fd042783          	lw	a5,-48(s0)
    2e78:	fef42423          	sw	a5,-24(s0)
E:/CODE/C/ch32v307/CHV307_Library/Example/libraries/sdk/Peripheral/ch32v30x_usart.c:144
  }
  
  if ((USARTx->CTLR1 & CTLR1_OVER8_Set) != 0)
    2e7c:	fbc42783          	lw	a5,-68(s0)
    2e80:	00c7d783          	lhu	a5,12(a5)
    2e84:	07c2                	slli	a5,a5,0x10
    2e86:	83c1                	srli	a5,a5,0x10
    2e88:	07c2                	slli	a5,a5,0x10
    2e8a:	87c1                	srai	a5,a5,0x10
    2e8c:	0207d263          	bgez	a5,2eb0 <USART_Init+0x17a>
E:/CODE/C/ch32v307/CHV307_Library/Example/libraries/sdk/Peripheral/ch32v30x_usart.c:146
  {
    integerdivider = ((25 * apbclock) / (2 * (USART_InitStruct->USART_BaudRate)));    
    2e90:	fe842703          	lw	a4,-24(s0)
    2e94:	87ba                	mv	a5,a4
    2e96:	0786                	slli	a5,a5,0x1
    2e98:	97ba                	add	a5,a5,a4
    2e9a:	078e                	slli	a5,a5,0x3
    2e9c:	973e                	add	a4,a4,a5
    2e9e:	fb842783          	lw	a5,-72(s0)
    2ea2:	439c                	lw	a5,0(a5)
    2ea4:	0786                	slli	a5,a5,0x1
    2ea6:	02f757b3          	divu	a5,a4,a5
    2eaa:	fef42223          	sw	a5,-28(s0)
    2eae:	a005                	j	2ece <USART_Init+0x198>
E:/CODE/C/ch32v307/CHV307_Library/Example/libraries/sdk/Peripheral/ch32v30x_usart.c:150
  }
  else 
  {
    integerdivider = ((25 * apbclock) / (4 * (USART_InitStruct->USART_BaudRate)));    
    2eb0:	fe842703          	lw	a4,-24(s0)
    2eb4:	87ba                	mv	a5,a4
    2eb6:	0786                	slli	a5,a5,0x1
    2eb8:	97ba                	add	a5,a5,a4
    2eba:	078e                	slli	a5,a5,0x3
    2ebc:	973e                	add	a4,a4,a5
    2ebe:	fb842783          	lw	a5,-72(s0)
    2ec2:	439c                	lw	a5,0(a5)
    2ec4:	078a                	slli	a5,a5,0x2
    2ec6:	02f757b3          	divu	a5,a4,a5
    2eca:	fef42223          	sw	a5,-28(s0)
E:/CODE/C/ch32v307/CHV307_Library/Example/libraries/sdk/Peripheral/ch32v30x_usart.c:152
  }
  tmpreg = (integerdivider / 100) << 4;
    2ece:	fe442703          	lw	a4,-28(s0)
    2ed2:	06400793          	li	a5,100
    2ed6:	02f757b3          	divu	a5,a4,a5
    2eda:	0792                	slli	a5,a5,0x4
    2edc:	fef42623          	sw	a5,-20(s0)
E:/CODE/C/ch32v307/CHV307_Library/Example/libraries/sdk/Peripheral/ch32v30x_usart.c:154

  fractionaldivider = integerdivider - (100 * (tmpreg >> 4));
    2ee0:	fec42783          	lw	a5,-20(s0)
    2ee4:	0047d713          	srli	a4,a5,0x4
    2ee8:	06400793          	li	a5,100
    2eec:	02f707b3          	mul	a5,a4,a5
    2ef0:	fe442703          	lw	a4,-28(s0)
    2ef4:	40f707b3          	sub	a5,a4,a5
    2ef8:	fef42023          	sw	a5,-32(s0)
E:/CODE/C/ch32v307/CHV307_Library/Example/libraries/sdk/Peripheral/ch32v30x_usart.c:156

  if ((USARTx->CTLR1 & CTLR1_OVER8_Set) != 0)
    2efc:	fbc42783          	lw	a5,-68(s0)
    2f00:	00c7d783          	lhu	a5,12(a5)
    2f04:	07c2                	slli	a5,a5,0x10
    2f06:	83c1                	srli	a5,a5,0x10
    2f08:	07c2                	slli	a5,a5,0x10
    2f0a:	87c1                	srai	a5,a5,0x10
    2f0c:	0207d263          	bgez	a5,2f30 <USART_Init+0x1fa>
E:/CODE/C/ch32v307/CHV307_Library/Example/libraries/sdk/Peripheral/ch32v30x_usart.c:158
  {
    tmpreg |= ((((fractionaldivider * 8) + 50) / 100)) & ((uint8_t)0x07);
    2f10:	fe042783          	lw	a5,-32(s0)
    2f14:	078e                	slli	a5,a5,0x3
    2f16:	03278713          	addi	a4,a5,50
    2f1a:	06400793          	li	a5,100
    2f1e:	02f757b3          	divu	a5,a4,a5
    2f22:	8b9d                	andi	a5,a5,7
    2f24:	fec42703          	lw	a4,-20(s0)
    2f28:	8fd9                	or	a5,a5,a4
    2f2a:	fef42623          	sw	a5,-20(s0)
    2f2e:	a005                	j	2f4e <USART_Init+0x218>
E:/CODE/C/ch32v307/CHV307_Library/Example/libraries/sdk/Peripheral/ch32v30x_usart.c:162
  }
  else 
  {
    tmpreg |= ((((fractionaldivider * 16) + 50) / 100)) & ((uint8_t)0x0F);
    2f30:	fe042783          	lw	a5,-32(s0)
    2f34:	0792                	slli	a5,a5,0x4
    2f36:	03278713          	addi	a4,a5,50
    2f3a:	06400793          	li	a5,100
    2f3e:	02f757b3          	divu	a5,a4,a5
    2f42:	8bbd                	andi	a5,a5,15
    2f44:	fec42703          	lw	a4,-20(s0)
    2f48:	8fd9                	or	a5,a5,a4
    2f4a:	fef42623          	sw	a5,-20(s0)
E:/CODE/C/ch32v307/CHV307_Library/Example/libraries/sdk/Peripheral/ch32v30x_usart.c:165
  }
  
  USARTx->BRR = (uint16_t)tmpreg;
    2f4e:	fec42783          	lw	a5,-20(s0)
    2f52:	01079713          	slli	a4,a5,0x10
    2f56:	8341                	srli	a4,a4,0x10
    2f58:	fbc42783          	lw	a5,-68(s0)
    2f5c:	00e79423          	sh	a4,8(a5)
E:/CODE/C/ch32v307/CHV307_Library/Example/libraries/sdk/Peripheral/ch32v30x_usart.c:166
}
    2f60:	0001                	nop
    2f62:	40b6                	lw	ra,76(sp)
    2f64:	4426                	lw	s0,72(sp)
    2f66:	6161                	addi	sp,sp,80
    2f68:	8082                	ret

00002f6a <USART_Cmd>:
USART_Cmd():
E:/CODE/C/ch32v307/CHV307_Library/Example/libraries/sdk/Peripheral/ch32v30x_usart.c:229
* Input          : USARTx: where x can be 1, 2, 3 to select the USART peripheral.
*                  NewState: ENABLE or DISABLE.
* Return         : None
*******************************************************************************/
void USART_Cmd(USART_TypeDef* USARTx, FunctionalState NewState)
{
    2f6a:	1101                	addi	sp,sp,-32
    2f6c:	ce22                	sw	s0,28(sp)
    2f6e:	1000                	addi	s0,sp,32
    2f70:	fea42623          	sw	a0,-20(s0)
    2f74:	feb42423          	sw	a1,-24(s0)
E:/CODE/C/ch32v307/CHV307_Library/Example/libraries/sdk/Peripheral/ch32v30x_usart.c:230
  if (NewState != DISABLE)
    2f78:	fe842783          	lw	a5,-24(s0)
    2f7c:	c395                	beqz	a5,2fa0 <USART_Cmd+0x36>
E:/CODE/C/ch32v307/CHV307_Library/Example/libraries/sdk/Peripheral/ch32v30x_usart.c:232
  {
    USARTx->CTLR1 |= CTLR1_UE_Set;
    2f7e:	fec42783          	lw	a5,-20(s0)
    2f82:	00c7d783          	lhu	a5,12(a5)
    2f86:	01079713          	slli	a4,a5,0x10
    2f8a:	8341                	srli	a4,a4,0x10
    2f8c:	6789                	lui	a5,0x2
    2f8e:	8fd9                	or	a5,a5,a4
    2f90:	01079713          	slli	a4,a5,0x10
    2f94:	8341                	srli	a4,a4,0x10
    2f96:	fec42783          	lw	a5,-20(s0)
    2f9a:	00e79623          	sh	a4,12(a5) # 200c <SPI2_IRQHandler+0x4>
E:/CODE/C/ch32v307/CHV307_Library/Example/libraries/sdk/Peripheral/ch32v30x_usart.c:238
  }
  else
  {
    USARTx->CTLR1 &= CTLR1_UE_Reset;
  }
}
    2f9e:	a015                	j	2fc2 <USART_Cmd+0x58>
E:/CODE/C/ch32v307/CHV307_Library/Example/libraries/sdk/Peripheral/ch32v30x_usart.c:236
    USARTx->CTLR1 &= CTLR1_UE_Reset;
    2fa0:	fec42783          	lw	a5,-20(s0)
    2fa4:	00c7d783          	lhu	a5,12(a5)
    2fa8:	01079713          	slli	a4,a5,0x10
    2fac:	8341                	srli	a4,a4,0x10
    2fae:	77f9                	lui	a5,0xffffe
    2fb0:	17fd                	addi	a5,a5,-1
    2fb2:	8ff9                	and	a5,a5,a4
    2fb4:	01079713          	slli	a4,a5,0x10
    2fb8:	8341                	srli	a4,a4,0x10
    2fba:	fec42783          	lw	a5,-20(s0)
    2fbe:	00e79623          	sh	a4,12(a5) # ffffe00c <_eusrstack+0xdffee00c>
E:/CODE/C/ch32v307/CHV307_Library/Example/libraries/sdk/Peripheral/ch32v30x_usart.c:238
}
    2fc2:	0001                	nop
    2fc4:	4472                	lw	s0,28(sp)
    2fc6:	6105                	addi	sp,sp,32
    2fc8:	8082                	ret

00002fca <USART_ITConfig>:
USART_ITConfig():
E:/CODE/C/ch32v307/CHV307_Library/Example/libraries/sdk/Peripheral/ch32v30x_usart.c:257
*                    USART_IT_ERR:  Error interrupt.
*                  NewState: ENABLE or DISABLE.
* Return         : None
*******************************************************************************/
void USART_ITConfig(USART_TypeDef* USARTx, uint16_t USART_IT, FunctionalState NewState)
{
    2fca:	7179                	addi	sp,sp,-48
    2fcc:	d622                	sw	s0,44(sp)
    2fce:	1800                	addi	s0,sp,48
    2fd0:	fca42e23          	sw	a0,-36(s0)
    2fd4:	87ae                	mv	a5,a1
    2fd6:	fcc42a23          	sw	a2,-44(s0)
    2fda:	fcf41d23          	sh	a5,-38(s0)
E:/CODE/C/ch32v307/CHV307_Library/Example/libraries/sdk/Peripheral/ch32v30x_usart.c:258
  uint32_t usartreg = 0x00, itpos = 0x00, itmask = 0x00;
    2fde:	fe042423          	sw	zero,-24(s0)
    2fe2:	fe042223          	sw	zero,-28(s0)
    2fe6:	fe042023          	sw	zero,-32(s0)
E:/CODE/C/ch32v307/CHV307_Library/Example/libraries/sdk/Peripheral/ch32v30x_usart.c:259
  uint32_t usartxbase = 0x00;
    2fea:	fe042623          	sw	zero,-20(s0)
E:/CODE/C/ch32v307/CHV307_Library/Example/libraries/sdk/Peripheral/ch32v30x_usart.c:265

  if (USART_IT == USART_IT_CTS)
  {
  }   
  
  usartxbase = (uint32_t)USARTx;
    2fee:	fdc42783          	lw	a5,-36(s0)
    2ff2:	fef42623          	sw	a5,-20(s0)
E:/CODE/C/ch32v307/CHV307_Library/Example/libraries/sdk/Peripheral/ch32v30x_usart.c:266
  usartreg = (((uint8_t)USART_IT) >> 0x05);
    2ff6:	fda45783          	lhu	a5,-38(s0)
    2ffa:	0ff7f793          	andi	a5,a5,255
    2ffe:	8395                	srli	a5,a5,0x5
    3000:	0ff7f793          	andi	a5,a5,255
    3004:	fef42423          	sw	a5,-24(s0)
E:/CODE/C/ch32v307/CHV307_Library/Example/libraries/sdk/Peripheral/ch32v30x_usart.c:267
  itpos = USART_IT & IT_Mask;
    3008:	fda45783          	lhu	a5,-38(s0)
    300c:	8bfd                	andi	a5,a5,31
    300e:	fef42223          	sw	a5,-28(s0)
E:/CODE/C/ch32v307/CHV307_Library/Example/libraries/sdk/Peripheral/ch32v30x_usart.c:268
  itmask = (((uint32_t)0x01) << itpos);
    3012:	fe442783          	lw	a5,-28(s0)
    3016:	4705                	li	a4,1
    3018:	00f717b3          	sll	a5,a4,a5
    301c:	fef42023          	sw	a5,-32(s0)
E:/CODE/C/ch32v307/CHV307_Library/Example/libraries/sdk/Peripheral/ch32v30x_usart.c:270
    
  if (usartreg == 0x01) 
    3020:	fe842703          	lw	a4,-24(s0)
    3024:	4785                	li	a5,1
    3026:	00f71863          	bne	a4,a5,3036 <USART_ITConfig+0x6c>
E:/CODE/C/ch32v307/CHV307_Library/Example/libraries/sdk/Peripheral/ch32v30x_usart.c:272
  {
    usartxbase += 0x0C;
    302a:	fec42783          	lw	a5,-20(s0)
    302e:	07b1                	addi	a5,a5,12
    3030:	fef42623          	sw	a5,-20(s0)
    3034:	a00d                	j	3056 <USART_ITConfig+0x8c>
E:/CODE/C/ch32v307/CHV307_Library/Example/libraries/sdk/Peripheral/ch32v30x_usart.c:274
  }
  else if (usartreg == 0x02) 
    3036:	fe842703          	lw	a4,-24(s0)
    303a:	4789                	li	a5,2
    303c:	00f71863          	bne	a4,a5,304c <USART_ITConfig+0x82>
E:/CODE/C/ch32v307/CHV307_Library/Example/libraries/sdk/Peripheral/ch32v30x_usart.c:276
  {
    usartxbase += 0x10;
    3040:	fec42783          	lw	a5,-20(s0)
    3044:	07c1                	addi	a5,a5,16
    3046:	fef42623          	sw	a5,-20(s0)
    304a:	a031                	j	3056 <USART_ITConfig+0x8c>
E:/CODE/C/ch32v307/CHV307_Library/Example/libraries/sdk/Peripheral/ch32v30x_usart.c:280
  }
  else 
  {
    usartxbase += 0x14; 
    304c:	fec42783          	lw	a5,-20(s0)
    3050:	07d1                	addi	a5,a5,20
    3052:	fef42623          	sw	a5,-20(s0)
E:/CODE/C/ch32v307/CHV307_Library/Example/libraries/sdk/Peripheral/ch32v30x_usart.c:283
  }
	
  if (NewState != DISABLE)
    3056:	fd442783          	lw	a5,-44(s0)
    305a:	cb99                	beqz	a5,3070 <USART_ITConfig+0xa6>
E:/CODE/C/ch32v307/CHV307_Library/Example/libraries/sdk/Peripheral/ch32v30x_usart.c:285
  {
    *(__IO uint32_t*)usartxbase  |= itmask;
    305c:	fec42783          	lw	a5,-20(s0)
    3060:	4394                	lw	a3,0(a5)
    3062:	fec42783          	lw	a5,-20(s0)
    3066:	fe042703          	lw	a4,-32(s0)
    306a:	8f55                	or	a4,a4,a3
    306c:	c398                	sw	a4,0(a5)
E:/CODE/C/ch32v307/CHV307_Library/Example/libraries/sdk/Peripheral/ch32v30x_usart.c:291
  }
  else
  {
    *(__IO uint32_t*)usartxbase &= ~itmask;
  }
}
    306e:	a821                	j	3086 <USART_ITConfig+0xbc>
E:/CODE/C/ch32v307/CHV307_Library/Example/libraries/sdk/Peripheral/ch32v30x_usart.c:289
    *(__IO uint32_t*)usartxbase &= ~itmask;
    3070:	fec42783          	lw	a5,-20(s0)
    3074:	4394                	lw	a3,0(a5)
    3076:	fe042783          	lw	a5,-32(s0)
    307a:	fff7c713          	not	a4,a5
    307e:	fec42783          	lw	a5,-20(s0)
    3082:	8f75                	and	a4,a4,a3
    3084:	c398                	sw	a4,0(a5)
E:/CODE/C/ch32v307/CHV307_Library/Example/libraries/sdk/Peripheral/ch32v30x_usart.c:291
}
    3086:	0001                	nop
    3088:	5432                	lw	s0,44(sp)
    308a:	6145                	addi	sp,sp,48
    308c:	8082                	ret

0000308e <USART_SendData>:
USART_SendData():
E:/CODE/C/ch32v307/CHV307_Library/Example/libraries/sdk/Peripheral/ch32v30x_usart.c:404
* Input          : USARTx: where x can be 1, 2, 3 to select the USART peripheral.
*                  Data: the data to transmit..
* Return         : None
*******************************************************************************/
void USART_SendData(USART_TypeDef* USARTx, uint16_t Data)
{
    308e:	1101                	addi	sp,sp,-32
    3090:	ce22                	sw	s0,28(sp)
    3092:	1000                	addi	s0,sp,32
    3094:	fea42623          	sw	a0,-20(s0)
    3098:	87ae                	mv	a5,a1
    309a:	fef41523          	sh	a5,-22(s0)
E:/CODE/C/ch32v307/CHV307_Library/Example/libraries/sdk/Peripheral/ch32v30x_usart.c:405
  USARTx->DATAR = (Data & (uint16_t)0x01FF);
    309e:	fea45783          	lhu	a5,-22(s0)
    30a2:	1ff7f793          	andi	a5,a5,511
    30a6:	01079713          	slli	a4,a5,0x10
    30aa:	8341                	srli	a4,a4,0x10
    30ac:	fec42783          	lw	a5,-20(s0)
    30b0:	00e79223          	sh	a4,4(a5)
E:/CODE/C/ch32v307/CHV307_Library/Example/libraries/sdk/Peripheral/ch32v30x_usart.c:406
}
    30b4:	0001                	nop
    30b6:	4472                	lw	s0,28(sp)
    30b8:	6105                	addi	sp,sp,32
    30ba:	8082                	ret

000030bc <USART_GetFlagStatus>:
USART_GetFlagStatus():
E:/CODE/C/ch32v307/CHV307_Library/Example/libraries/sdk/Peripheral/ch32v30x_usart.c:603
*                    USART_FLAG_FE: Framing Error flag.
*                    USART_FLAG_PE: Parity Error flag.
* Return         : bitstatus: SET or RESET.
*******************************************************************************/
FlagStatus USART_GetFlagStatus(USART_TypeDef* USARTx, uint16_t USART_FLAG)
{
    30bc:	7179                	addi	sp,sp,-48
    30be:	d622                	sw	s0,44(sp)
    30c0:	1800                	addi	s0,sp,48
    30c2:	fca42e23          	sw	a0,-36(s0)
    30c6:	87ae                	mv	a5,a1
    30c8:	fcf41d23          	sh	a5,-38(s0)
E:/CODE/C/ch32v307/CHV307_Library/Example/libraries/sdk/Peripheral/ch32v30x_usart.c:604
  FlagStatus bitstatus = RESET;
    30cc:	fe042623          	sw	zero,-20(s0)
E:/CODE/C/ch32v307/CHV307_Library/Example/libraries/sdk/Peripheral/ch32v30x_usart.c:610

  if (USART_FLAG == USART_FLAG_CTS)
  {
  }  
  
  if ((USARTx->STATR & USART_FLAG) != (uint16_t)RESET)
    30d0:	fdc42783          	lw	a5,-36(s0)
    30d4:	0007d783          	lhu	a5,0(a5)
    30d8:	01079713          	slli	a4,a5,0x10
    30dc:	8341                	srli	a4,a4,0x10
    30de:	fda45783          	lhu	a5,-38(s0)
    30e2:	8ff9                	and	a5,a5,a4
    30e4:	07c2                	slli	a5,a5,0x10
    30e6:	83c1                	srli	a5,a5,0x10
    30e8:	c789                	beqz	a5,30f2 <USART_GetFlagStatus+0x36>
E:/CODE/C/ch32v307/CHV307_Library/Example/libraries/sdk/Peripheral/ch32v30x_usart.c:612
  {
    bitstatus = SET;
    30ea:	4785                	li	a5,1
    30ec:	fef42623          	sw	a5,-20(s0)
    30f0:	a019                	j	30f6 <USART_GetFlagStatus+0x3a>
E:/CODE/C/ch32v307/CHV307_Library/Example/libraries/sdk/Peripheral/ch32v30x_usart.c:616
  }
  else
  {
    bitstatus = RESET;
    30f2:	fe042623          	sw	zero,-20(s0)
E:/CODE/C/ch32v307/CHV307_Library/Example/libraries/sdk/Peripheral/ch32v30x_usart.c:618
  }
  return bitstatus;
    30f6:	fec42783          	lw	a5,-20(s0)
E:/CODE/C/ch32v307/CHV307_Library/Example/libraries/sdk/Peripheral/ch32v30x_usart.c:619
}
    30fa:	853e                	mv	a0,a5
    30fc:	5432                	lw	s0,44(sp)
    30fe:	6145                	addi	sp,sp,48
    3100:	8082                	ret

00003102 <USART_GetITStatus>:
USART_GetITStatus():
E:/CODE/C/ch32v307/CHV307_Library/Example/libraries/sdk/Peripheral/ch32v30x_usart.c:660
*                    USART_IT_FE: Framing Error interrupt.
*                    USART_IT_PE: Parity Error interrupt.
* Return         : bitstatus: SET or RESET.
*******************************************************************************/
ITStatus USART_GetITStatus(USART_TypeDef* USARTx, uint16_t USART_IT)
{
    3102:	7179                	addi	sp,sp,-48
    3104:	d622                	sw	s0,44(sp)
    3106:	1800                	addi	s0,sp,48
    3108:	fca42e23          	sw	a0,-36(s0)
    310c:	87ae                	mv	a5,a1
    310e:	fcf41d23          	sh	a5,-38(s0)
E:/CODE/C/ch32v307/CHV307_Library/Example/libraries/sdk/Peripheral/ch32v30x_usart.c:661
  uint32_t bitpos = 0x00, itmask = 0x00, usartreg = 0x00;
    3112:	fe042223          	sw	zero,-28(s0)
    3116:	fe042623          	sw	zero,-20(s0)
    311a:	fe042023          	sw	zero,-32(s0)
E:/CODE/C/ch32v307/CHV307_Library/Example/libraries/sdk/Peripheral/ch32v30x_usart.c:662
  ITStatus bitstatus = RESET;
    311e:	fe042423          	sw	zero,-24(s0)
E:/CODE/C/ch32v307/CHV307_Library/Example/libraries/sdk/Peripheral/ch32v30x_usart.c:668

  if (USART_IT == USART_IT_CTS)
  {
  }   
  
  usartreg = (((uint8_t)USART_IT) >> 0x05);
    3122:	fda45783          	lhu	a5,-38(s0)
    3126:	0ff7f793          	andi	a5,a5,255
    312a:	8395                	srli	a5,a5,0x5
    312c:	0ff7f793          	andi	a5,a5,255
    3130:	fef42023          	sw	a5,-32(s0)
E:/CODE/C/ch32v307/CHV307_Library/Example/libraries/sdk/Peripheral/ch32v30x_usart.c:669
  itmask = USART_IT & IT_Mask;
    3134:	fda45783          	lhu	a5,-38(s0)
    3138:	8bfd                	andi	a5,a5,31
    313a:	fef42623          	sw	a5,-20(s0)
E:/CODE/C/ch32v307/CHV307_Library/Example/libraries/sdk/Peripheral/ch32v30x_usart.c:670
  itmask = (uint32_t)0x01 << itmask;
    313e:	fec42783          	lw	a5,-20(s0)
    3142:	4705                	li	a4,1
    3144:	00f717b3          	sll	a5,a4,a5
    3148:	fef42623          	sw	a5,-20(s0)
E:/CODE/C/ch32v307/CHV307_Library/Example/libraries/sdk/Peripheral/ch32v30x_usart.c:672
  
  if (usartreg == 0x01) 
    314c:	fe042703          	lw	a4,-32(s0)
    3150:	4785                	li	a5,1
    3152:	00f71f63          	bne	a4,a5,3170 <USART_GetITStatus+0x6e>
E:/CODE/C/ch32v307/CHV307_Library/Example/libraries/sdk/Peripheral/ch32v30x_usart.c:674
  {
    itmask &= USARTx->CTLR1;
    3156:	fdc42783          	lw	a5,-36(s0)
    315a:	00c7d783          	lhu	a5,12(a5)
    315e:	07c2                	slli	a5,a5,0x10
    3160:	83c1                	srli	a5,a5,0x10
    3162:	873e                	mv	a4,a5
    3164:	fec42783          	lw	a5,-20(s0)
    3168:	8ff9                	and	a5,a5,a4
    316a:	fef42623          	sw	a5,-20(s0)
    316e:	a83d                	j	31ac <USART_GetITStatus+0xaa>
E:/CODE/C/ch32v307/CHV307_Library/Example/libraries/sdk/Peripheral/ch32v30x_usart.c:676
  }
  else if (usartreg == 0x02) 
    3170:	fe042703          	lw	a4,-32(s0)
    3174:	4789                	li	a5,2
    3176:	00f71f63          	bne	a4,a5,3194 <USART_GetITStatus+0x92>
E:/CODE/C/ch32v307/CHV307_Library/Example/libraries/sdk/Peripheral/ch32v30x_usart.c:678
  {
    itmask &= USARTx->CTLR2;
    317a:	fdc42783          	lw	a5,-36(s0)
    317e:	0107d783          	lhu	a5,16(a5)
    3182:	07c2                	slli	a5,a5,0x10
    3184:	83c1                	srli	a5,a5,0x10
    3186:	873e                	mv	a4,a5
    3188:	fec42783          	lw	a5,-20(s0)
    318c:	8ff9                	and	a5,a5,a4
    318e:	fef42623          	sw	a5,-20(s0)
    3192:	a829                	j	31ac <USART_GetITStatus+0xaa>
E:/CODE/C/ch32v307/CHV307_Library/Example/libraries/sdk/Peripheral/ch32v30x_usart.c:682
  }
  else 
  {
    itmask &= USARTx->CTLR3;
    3194:	fdc42783          	lw	a5,-36(s0)
    3198:	0147d783          	lhu	a5,20(a5)
    319c:	07c2                	slli	a5,a5,0x10
    319e:	83c1                	srli	a5,a5,0x10
    31a0:	873e                	mv	a4,a5
    31a2:	fec42783          	lw	a5,-20(s0)
    31a6:	8ff9                	and	a5,a5,a4
    31a8:	fef42623          	sw	a5,-20(s0)
E:/CODE/C/ch32v307/CHV307_Library/Example/libraries/sdk/Peripheral/ch32v30x_usart.c:685
  }
  
  bitpos = USART_IT >> 0x08;
    31ac:	fda45783          	lhu	a5,-38(s0)
    31b0:	83a1                	srli	a5,a5,0x8
    31b2:	07c2                	slli	a5,a5,0x10
    31b4:	83c1                	srli	a5,a5,0x10
    31b6:	fef42223          	sw	a5,-28(s0)
E:/CODE/C/ch32v307/CHV307_Library/Example/libraries/sdk/Peripheral/ch32v30x_usart.c:686
  bitpos = (uint32_t)0x01 << bitpos;
    31ba:	fe442783          	lw	a5,-28(s0)
    31be:	4705                	li	a4,1
    31c0:	00f717b3          	sll	a5,a4,a5
    31c4:	fef42223          	sw	a5,-28(s0)
E:/CODE/C/ch32v307/CHV307_Library/Example/libraries/sdk/Peripheral/ch32v30x_usart.c:687
  bitpos &= USARTx->STATR;
    31c8:	fdc42783          	lw	a5,-36(s0)
    31cc:	0007d783          	lhu	a5,0(a5)
    31d0:	07c2                	slli	a5,a5,0x10
    31d2:	83c1                	srli	a5,a5,0x10
    31d4:	873e                	mv	a4,a5
    31d6:	fe442783          	lw	a5,-28(s0)
    31da:	8ff9                	and	a5,a5,a4
    31dc:	fef42223          	sw	a5,-28(s0)
E:/CODE/C/ch32v307/CHV307_Library/Example/libraries/sdk/Peripheral/ch32v30x_usart.c:689
	
  if ((itmask != (uint16_t)RESET)&&(bitpos != (uint16_t)RESET))
    31e0:	fec42783          	lw	a5,-20(s0)
    31e4:	cb81                	beqz	a5,31f4 <USART_GetITStatus+0xf2>
E:/CODE/C/ch32v307/CHV307_Library/Example/libraries/sdk/Peripheral/ch32v30x_usart.c:689 (discriminator 1)
    31e6:	fe442783          	lw	a5,-28(s0)
    31ea:	c789                	beqz	a5,31f4 <USART_GetITStatus+0xf2>
E:/CODE/C/ch32v307/CHV307_Library/Example/libraries/sdk/Peripheral/ch32v30x_usart.c:691
  {
    bitstatus = SET;
    31ec:	4785                	li	a5,1
    31ee:	fef42423          	sw	a5,-24(s0)
    31f2:	a019                	j	31f8 <USART_GetITStatus+0xf6>
E:/CODE/C/ch32v307/CHV307_Library/Example/libraries/sdk/Peripheral/ch32v30x_usart.c:695
  }
  else
  {
    bitstatus = RESET;
    31f4:	fe042423          	sw	zero,-24(s0)
E:/CODE/C/ch32v307/CHV307_Library/Example/libraries/sdk/Peripheral/ch32v30x_usart.c:698
  }
  
  return bitstatus;  
    31f8:	fe842783          	lw	a5,-24(s0)
E:/CODE/C/ch32v307/CHV307_Library/Example/libraries/sdk/Peripheral/ch32v30x_usart.c:699
}
    31fc:	853e                	mv	a0,a5
    31fe:	5432                	lw	s0,44(sp)
    3200:	6145                	addi	sp,sp,48
    3202:	8082                	ret

00003204 <USART_ClearITPendingBit>:
USART_ClearITPendingBit():
E:/CODE/C/ch32v307/CHV307_Library/Example/libraries/sdk/Peripheral/ch32v30x_usart.c:713
*                    USART_IT_TC:   Transmission complete interrupt.
*                    USART_IT_RXNE: Receive Data register not empty interrupt.
* Return         : None
*******************************************************************************/
void USART_ClearITPendingBit(USART_TypeDef* USARTx, uint16_t USART_IT)
{
    3204:	7179                	addi	sp,sp,-48
    3206:	d622                	sw	s0,44(sp)
    3208:	1800                	addi	s0,sp,48
    320a:	fca42e23          	sw	a0,-36(s0)
    320e:	87ae                	mv	a5,a1
    3210:	fcf41d23          	sh	a5,-38(s0)
E:/CODE/C/ch32v307/CHV307_Library/Example/libraries/sdk/Peripheral/ch32v30x_usart.c:714
  uint16_t bitpos = 0x00, itmask = 0x00;
    3214:	fe041723          	sh	zero,-18(s0)
    3218:	fe041623          	sh	zero,-20(s0)
E:/CODE/C/ch32v307/CHV307_Library/Example/libraries/sdk/Peripheral/ch32v30x_usart.c:720

  if (USART_IT == USART_IT_CTS)
  {
  }   
  
  bitpos = USART_IT >> 0x08;
    321c:	fda45783          	lhu	a5,-38(s0)
    3220:	83a1                	srli	a5,a5,0x8
    3222:	fef41723          	sh	a5,-18(s0)
E:/CODE/C/ch32v307/CHV307_Library/Example/libraries/sdk/Peripheral/ch32v30x_usart.c:721
  itmask = ((uint16_t)0x01 << (uint16_t)bitpos);
    3226:	fee45783          	lhu	a5,-18(s0)
    322a:	4705                	li	a4,1
    322c:	00f717b3          	sll	a5,a4,a5
    3230:	fef41623          	sh	a5,-20(s0)
E:/CODE/C/ch32v307/CHV307_Library/Example/libraries/sdk/Peripheral/ch32v30x_usart.c:722
  USARTx->STATR = (uint16_t)~itmask;
    3234:	fec45783          	lhu	a5,-20(s0)
    3238:	fff7c793          	not	a5,a5
    323c:	01079713          	slli	a4,a5,0x10
    3240:	8341                	srli	a4,a4,0x10
    3242:	fdc42783          	lw	a5,-36(s0)
    3246:	00e79023          	sh	a4,0(a5)
E:/CODE/C/ch32v307/CHV307_Library/Example/libraries/sdk/Peripheral/ch32v30x_usart.c:723
}
    324a:	0001                	nop
    324c:	5432                	lw	s0,44(sp)
    324e:	6145                	addi	sp,sp,48
    3250:	8082                	ret

00003252 <DevEP1_IN_Deal>:
DevEP1_IN_Deal():
E:/CODE/C/ch32v307/CHV307_Library/Example/libraries/sdk/Peripheral/ch32v30x_usbotg_device.c:329
* Description    : Device endpoint1 IN.
* Input          : l: IN length(<64B)
* Return         : None
*******************************************************************************/
void DevEP1_IN_Deal( UINT8 l )
{
    3252:	1101                	addi	sp,sp,-32
    3254:	ce22                	sw	s0,28(sp)
    3256:	1000                	addi	s0,sp,32
    3258:	87aa                	mv	a5,a0
    325a:	fef407a3          	sb	a5,-17(s0)
E:/CODE/C/ch32v307/CHV307_Library/Example/libraries/sdk/Peripheral/ch32v30x_usbotg_device.c:330
    USBOTG_FS->UEP1_TX_LEN = l;
    325e:	500007b7          	lui	a5,0x50000
    3262:	fef44703          	lbu	a4,-17(s0)
    3266:	0742                	slli	a4,a4,0x10
    3268:	8341                	srli	a4,a4,0x10
    326a:	02e79a23          	sh	a4,52(a5) # 50000034 <_eusrstack+0x2fff0034>
E:/CODE/C/ch32v307/CHV307_Library/Example/libraries/sdk/Peripheral/ch32v30x_usbotg_device.c:331
    USBOTG_FS->UEP1_TX_CTRL = (USBOTG_FS->UEP1_TX_CTRL & ~USBHD_UEP_T_RES_MASK)| USBHD_UEP_T_RES_ACK;
    326e:	500007b7          	lui	a5,0x50000
    3272:	0367c783          	lbu	a5,54(a5) # 50000036 <_eusrstack+0x2fff0036>
    3276:	0ff7f713          	andi	a4,a5,255
    327a:	500007b7          	lui	a5,0x50000
    327e:	9b71                	andi	a4,a4,-4
    3280:	0ff77713          	andi	a4,a4,255
    3284:	02e78b23          	sb	a4,54(a5) # 50000036 <_eusrstack+0x2fff0036>
E:/CODE/C/ch32v307/CHV307_Library/Example/libraries/sdk/Peripheral/ch32v30x_usbotg_device.c:332
}
    3288:	0001                	nop
    328a:	4472                	lw	s0,28(sp)
    328c:	6105                	addi	sp,sp,32
    328e:	8082                	ret

00003290 <DevEP2_IN_Deal>:
DevEP2_IN_Deal():
E:/CODE/C/ch32v307/CHV307_Library/Example/libraries/sdk/Peripheral/ch32v30x_usbotg_device.c:341
* Description    : Device endpoint2 IN.
* Input          : l: IN length(<64B)
* Return         : None
*******************************************************************************/
void DevEP2_IN_Deal( UINT8 l )
{
    3290:	1101                	addi	sp,sp,-32
    3292:	ce22                	sw	s0,28(sp)
    3294:	1000                	addi	s0,sp,32
    3296:	87aa                	mv	a5,a0
    3298:	fef407a3          	sb	a5,-17(s0)
E:/CODE/C/ch32v307/CHV307_Library/Example/libraries/sdk/Peripheral/ch32v30x_usbotg_device.c:342
    USBOTG_FS->UEP2_TX_LEN = l;
    329c:	500007b7          	lui	a5,0x50000
    32a0:	fef44703          	lbu	a4,-17(s0)
    32a4:	0742                	slli	a4,a4,0x10
    32a6:	8341                	srli	a4,a4,0x10
    32a8:	02e79c23          	sh	a4,56(a5) # 50000038 <_eusrstack+0x2fff0038>
E:/CODE/C/ch32v307/CHV307_Library/Example/libraries/sdk/Peripheral/ch32v30x_usbotg_device.c:343
    USBOTG_FS->UEP2_TX_CTRL = (USBOTG_FS->UEP2_TX_CTRL & ~USBHD_UEP_T_RES_MASK)| USBHD_UEP_T_RES_ACK;
    32ac:	500007b7          	lui	a5,0x50000
    32b0:	03a7c783          	lbu	a5,58(a5) # 5000003a <_eusrstack+0x2fff003a>
    32b4:	0ff7f713          	andi	a4,a5,255
    32b8:	500007b7          	lui	a5,0x50000
    32bc:	9b71                	andi	a4,a4,-4
    32be:	0ff77713          	andi	a4,a4,255
    32c2:	02e78d23          	sb	a4,58(a5) # 5000003a <_eusrstack+0x2fff003a>
E:/CODE/C/ch32v307/CHV307_Library/Example/libraries/sdk/Peripheral/ch32v30x_usbotg_device.c:344
}
    32c6:	0001                	nop
    32c8:	4472                	lw	s0,28(sp)
    32ca:	6105                	addi	sp,sp,32
    32cc:	8082                	ret

000032ce <DevEP1_OUT_Deal>:
DevEP1_OUT_Deal():
E:/CODE/C/ch32v307/CHV307_Library/Example/libraries/sdk/Peripheral/ch32v30x_usbotg_device.c:353
* Description    : Deal device Endpoint 1 OUT.
* Input          : l: Data length.
* Return         : None
*******************************************************************************/
void DevEP1_OUT_Deal( UINT8 l )
{
    32ce:	7179                	addi	sp,sp,-48
    32d0:	d606                	sw	ra,44(sp)
    32d2:	d422                	sw	s0,40(sp)
    32d4:	1800                	addi	s0,sp,48
    32d6:	87aa                	mv	a5,a0
    32d8:	fcf40fa3          	sb	a5,-33(s0)
E:/CODE/C/ch32v307/CHV307_Library/Example/libraries/sdk/Peripheral/ch32v30x_usbotg_device.c:356
    UINT8 i;

    for(i=0; i<l; i++)
    32dc:	fe0407a3          	sb	zero,-17(s0)
    32e0:	a815                	j	3314 <DevEP1_OUT_Deal+0x46>
E:/CODE/C/ch32v307/CHV307_Library/Example/libraries/sdk/Peripheral/ch32v30x_usbotg_device.c:358 (discriminator 3)
    {
        pEP1_IN_DataBuf[i] = ~pEP1_OUT_DataBuf[i];
    32e2:	8701a703          	lw	a4,-1936(gp) # 20000290 <pEP1_RAM_Addr>
    32e6:	fef44783          	lbu	a5,-17(s0)
    32ea:	97ba                	add	a5,a5,a4
    32ec:	0007c703          	lbu	a4,0(a5)
    32f0:	8701a683          	lw	a3,-1936(gp) # 20000290 <pEP1_RAM_Addr>
    32f4:	fef44783          	lbu	a5,-17(s0)
    32f8:	04078793          	addi	a5,a5,64
    32fc:	97b6                	add	a5,a5,a3
    32fe:	fff74713          	not	a4,a4
    3302:	0ff77713          	andi	a4,a4,255
    3306:	00e78023          	sb	a4,0(a5)
E:/CODE/C/ch32v307/CHV307_Library/Example/libraries/sdk/Peripheral/ch32v30x_usbotg_device.c:356 (discriminator 3)
    for(i=0; i<l; i++)
    330a:	fef44783          	lbu	a5,-17(s0)
    330e:	0785                	addi	a5,a5,1
    3310:	fef407a3          	sb	a5,-17(s0)
E:/CODE/C/ch32v307/CHV307_Library/Example/libraries/sdk/Peripheral/ch32v30x_usbotg_device.c:356 (discriminator 1)
    3314:	fef44703          	lbu	a4,-17(s0)
    3318:	fdf44783          	lbu	a5,-33(s0)
    331c:	fcf763e3          	bltu	a4,a5,32e2 <DevEP1_OUT_Deal+0x14>
E:/CODE/C/ch32v307/CHV307_Library/Example/libraries/sdk/Peripheral/ch32v30x_usbotg_device.c:361
    }

    DevEP1_IN_Deal( l );
    3320:	fdf44783          	lbu	a5,-33(s0)
    3324:	853e                	mv	a0,a5
    3326:	3735                	jal	3252 <DevEP1_IN_Deal>
E:/CODE/C/ch32v307/CHV307_Library/Example/libraries/sdk/Peripheral/ch32v30x_usbotg_device.c:362
}
    3328:	0001                	nop
    332a:	50b2                	lw	ra,44(sp)
    332c:	5422                	lw	s0,40(sp)
    332e:	6145                	addi	sp,sp,48
    3330:	8082                	ret

00003332 <DevEP2_OUT_Deal>:
DevEP2_OUT_Deal():
E:/CODE/C/ch32v307/CHV307_Library/Example/libraries/sdk/Peripheral/ch32v30x_usbotg_device.c:371
* Description    : Deal device Endpoint 2 OUT.
* Input          : l: Data length.
* Return         : None
*******************************************************************************/
void DevEP2_OUT_Deal( UINT8 l )
{
    3332:	7179                	addi	sp,sp,-48
    3334:	d606                	sw	ra,44(sp)
    3336:	d422                	sw	s0,40(sp)
    3338:	1800                	addi	s0,sp,48
    333a:	87aa                	mv	a5,a0
    333c:	fcf40fa3          	sb	a5,-33(s0)
E:/CODE/C/ch32v307/CHV307_Library/Example/libraries/sdk/Peripheral/ch32v30x_usbotg_device.c:374
    UINT8 i;

    for(i=0; i<l; i++)
    3340:	fe0407a3          	sb	zero,-17(s0)
    3344:	a815                	j	3378 <DevEP2_OUT_Deal+0x46>
E:/CODE/C/ch32v307/CHV307_Library/Example/libraries/sdk/Peripheral/ch32v30x_usbotg_device.c:376 (discriminator 3)
    {
        pEP2_IN_DataBuf[i] = ~pEP2_OUT_DataBuf[i];
    3346:	8741a703          	lw	a4,-1932(gp) # 20000294 <pEP2_RAM_Addr>
    334a:	fef44783          	lbu	a5,-17(s0)
    334e:	97ba                	add	a5,a5,a4
    3350:	0007c703          	lbu	a4,0(a5)
    3354:	8741a683          	lw	a3,-1932(gp) # 20000294 <pEP2_RAM_Addr>
    3358:	fef44783          	lbu	a5,-17(s0)
    335c:	04078793          	addi	a5,a5,64
    3360:	97b6                	add	a5,a5,a3
    3362:	fff74713          	not	a4,a4
    3366:	0ff77713          	andi	a4,a4,255
    336a:	00e78023          	sb	a4,0(a5)
E:/CODE/C/ch32v307/CHV307_Library/Example/libraries/sdk/Peripheral/ch32v30x_usbotg_device.c:374 (discriminator 3)
    for(i=0; i<l; i++)
    336e:	fef44783          	lbu	a5,-17(s0)
    3372:	0785                	addi	a5,a5,1
    3374:	fef407a3          	sb	a5,-17(s0)
E:/CODE/C/ch32v307/CHV307_Library/Example/libraries/sdk/Peripheral/ch32v30x_usbotg_device.c:374 (discriminator 1)
    3378:	fef44703          	lbu	a4,-17(s0)
    337c:	fdf44783          	lbu	a5,-33(s0)
    3380:	fcf763e3          	bltu	a4,a5,3346 <DevEP2_OUT_Deal+0x14>
E:/CODE/C/ch32v307/CHV307_Library/Example/libraries/sdk/Peripheral/ch32v30x_usbotg_device.c:379
    }

    DevEP2_IN_Deal( l );
    3384:	fdf44783          	lbu	a5,-33(s0)
    3388:	853e                	mv	a0,a5
    338a:	3719                	jal	3290 <DevEP2_IN_Deal>
E:/CODE/C/ch32v307/CHV307_Library/Example/libraries/sdk/Peripheral/ch32v30x_usbotg_device.c:380
}
    338c:	0001                	nop
    338e:	50b2                	lw	ra,44(sp)
    3390:	5422                	lw	s0,40(sp)
    3392:	6145                	addi	sp,sp,48
    3394:	8082                	ret

00003396 <OTG_FS_IRQHandler>:
OTG_FS_IRQHandler():
E:/CODE/C/ch32v307/CHV307_Library/Example/libraries/sdk/Peripheral/ch32v30x_usbotg_device.c:389
* Description    : OTG_FS_IRQHandler OTG设备中断处理函数
* Input          : None
* Return         : None
*******************************************************************************/
void OTG_FS_IRQHandler( void )
{
    3396:	1101                	addi	sp,sp,-32
    3398:	ce22                	sw	s0,28(sp)
    339a:	1000                	addi	s0,sp,32
E:/CODE/C/ch32v307/CHV307_Library/Example/libraries/sdk/Peripheral/ch32v30x_usbotg_device.c:391
    UINT8  len, chtype;
    UINT8  intflag, errflag = 0;
    339c:	fe040723          	sb	zero,-18(s0)
E:/CODE/C/ch32v307/CHV307_Library/Example/libraries/sdk/Peripheral/ch32v30x_usbotg_device.c:393

    intflag = USBOTG_FS->INT_FG;
    33a0:	500007b7          	lui	a5,0x50000
    33a4:	0067c783          	lbu	a5,6(a5) # 50000006 <_eusrstack+0x2fff0006>
    33a8:	fef406a3          	sb	a5,-19(s0)
E:/CODE/C/ch32v307/CHV307_Library/Example/libraries/sdk/Peripheral/ch32v30x_usbotg_device.c:395

    if( intflag & USBHD_UIF_TRANSFER )
    33ac:	fed44783          	lbu	a5,-19(s0)
    33b0:	8b89                	andi	a5,a5,2
    33b2:	3c0781e3          	beqz	a5,3f74 <OTG_FS_IRQHandler+0xbde>
E:/CODE/C/ch32v307/CHV307_Library/Example/libraries/sdk/Peripheral/ch32v30x_usbotg_device.c:397
    {
        switch ( USBOTG_FS->INT_ST & USBHD_UIS_TOKEN_MASK )
    33b6:	500007b7          	lui	a5,0x50000
    33ba:	0077c783          	lbu	a5,7(a5) # 50000007 <_eusrstack+0x2fff0007>
    33be:	0ff7f793          	andi	a5,a5,255
    33c2:	0307f793          	andi	a5,a5,48
    33c6:	4741                	li	a4,16
    33c8:	38e78be3          	beq	a5,a4,3f5e <OTG_FS_IRQHandler+0xbc8>
    33cc:	4741                	li	a4,16
    33ce:	00f74663          	blt	a4,a5,33da <OTG_FS_IRQHandler+0x44>
    33d2:	20078ee3          	beqz	a5,3dee <OTG_FS_IRQHandler+0xa58>
E:/CODE/C/ch32v307/CHV307_Library/Example/libraries/sdk/Peripheral/ch32v30x_usbotg_device.c:878
            case USBHD_UIS_TOKEN_SOF:

                break;

            default :
                break;
    33d6:	38d0006f          	j	3f62 <OTG_FS_IRQHandler+0xbcc>
    33da:	02000713          	li	a4,32
    33de:	04e786e3          	beq	a5,a4,3c2a <OTG_FS_IRQHandler+0x894>
    33e2:	03000713          	li	a4,48
    33e6:	36e79ee3          	bne	a5,a4,3f62 <OTG_FS_IRQHandler+0xbcc>
E:/CODE/C/ch32v307/CHV307_Library/Example/libraries/sdk/Peripheral/ch32v30x_usbotg_device.c:411
                USBOTG_FS->UEP0_TX_CTRL = USBHD_UEP_T_TOG|USBHD_UEP_T_RES_NAK;
    33ea:	500007b7          	lui	a5,0x50000
    33ee:	4719                	li	a4,6
    33f0:	02e78923          	sb	a4,50(a5) # 50000032 <_eusrstack+0x2fff0032>
E:/CODE/C/ch32v307/CHV307_Library/Example/libraries/sdk/Peripheral/ch32v30x_usbotg_device.c:412
                USBOTG_FS->UEP0_RX_CTRL = USBHD_UEP_R_TOG|USBHD_UEP_R_RES_ACK;
    33f4:	500007b7          	lui	a5,0x50000
    33f8:	4711                	li	a4,4
    33fa:	02e789a3          	sb	a4,51(a5) # 50000033 <_eusrstack+0x2fff0033>
E:/CODE/C/ch32v307/CHV307_Library/Example/libraries/sdk/Peripheral/ch32v30x_usbotg_device.c:413
                SetupReqLen  = pSetupReqPakHD->wLength;
    33fe:	86c1a783          	lw	a5,-1940(gp) # 2000028c <pEP0_RAM_Addr>
    3402:	0067c703          	lbu	a4,6(a5)
    3406:	0077c783          	lbu	a5,7(a5)
    340a:	07a2                	slli	a5,a5,0x8
    340c:	8fd9                	or	a5,a5,a4
    340e:	01079713          	slli	a4,a5,0x10
    3412:	8341                	srli	a4,a4,0x10
    3414:	88e19123          	sh	a4,-1918(gp) # 200002a2 <SetupReqLen>
E:/CODE/C/ch32v307/CHV307_Library/Example/libraries/sdk/Peripheral/ch32v30x_usbotg_device.c:414
                SetupReqCode = pSetupReqPakHD->bRequest;
    3418:	86c1a783          	lw	a5,-1940(gp) # 2000028c <pEP0_RAM_Addr>
    341c:	0017c703          	lbu	a4,1(a5)
    3420:	88e18023          	sb	a4,-1920(gp) # 200002a0 <SetupReqCode>
E:/CODE/C/ch32v307/CHV307_Library/Example/libraries/sdk/Peripheral/ch32v30x_usbotg_device.c:415
                chtype = pSetupReqPakHD->bRequestType;
    3424:	86c1a783          	lw	a5,-1940(gp) # 2000028c <pEP0_RAM_Addr>
    3428:	0007c783          	lbu	a5,0(a5)
    342c:	fef40623          	sb	a5,-20(s0)
E:/CODE/C/ch32v307/CHV307_Library/Example/libraries/sdk/Peripheral/ch32v30x_usbotg_device.c:416
                len = 0;
    3430:	fe0407a3          	sb	zero,-17(s0)
E:/CODE/C/ch32v307/CHV307_Library/Example/libraries/sdk/Peripheral/ch32v30x_usbotg_device.c:417
                errflag = 0;
    3434:	fe040723          	sb	zero,-18(s0)
E:/CODE/C/ch32v307/CHV307_Library/Example/libraries/sdk/Peripheral/ch32v30x_usbotg_device.c:419
                if ( ( pSetupReqPakHD->bRequestType & USB_REQ_TYP_MASK ) != USB_REQ_TYP_STANDARD )  //非标准请求
    3438:	86c1a783          	lw	a5,-1940(gp) # 2000028c <pEP0_RAM_Addr>
    343c:	0007c783          	lbu	a5,0(a5)
    3440:	0607f793          	andi	a5,a5,96
    3444:	12078b63          	beqz	a5,357a <OTG_FS_IRQHandler+0x1e4>
E:/CODE/C/ch32v307/CHV307_Library/Example/libraries/sdk/Peripheral/ch32v30x_usbotg_device.c:422
                    if(SetupReqCode & 0x20)
    3448:	8801c783          	lbu	a5,-1920(gp) # 200002a0 <SetupReqCode>
    344c:	0ff7f793          	andi	a5,a5,255
    3450:	0207f793          	andi	a5,a5,32
    3454:	c3d5                	beqz	a5,34f8 <OTG_FS_IRQHandler+0x162>
E:/CODE/C/ch32v307/CHV307_Library/Example/libraries/sdk/Peripheral/ch32v30x_usbotg_device.c:424
                        switch( SetupReqCode )
    3456:	8801c783          	lbu	a5,-1920(gp) # 200002a0 <SetupReqCode>
    345a:	0ff7f793          	andi	a5,a5,255
    345e:	02100713          	li	a4,33
    3462:	00e78b63          	beq	a5,a4,3478 <OTG_FS_IRQHandler+0xe2>
    3466:	02200713          	li	a4,34
    346a:	08e78963          	beq	a5,a4,34fc <OTG_FS_IRQHandler+0x166>
    346e:	02000713          	li	a4,32
    3472:	08e78763          	beq	a5,a4,3500 <OTG_FS_IRQHandler+0x16a>
    3476:	a8ad                	j	34f0 <OTG_FS_IRQHandler+0x15a>
E:/CODE/C/ch32v307/CHV307_Library/Example/libraries/sdk/Peripheral/ch32v30x_usbotg_device.c:427
                                pDescr = LineCoding;
    3478:	81018713          	addi	a4,gp,-2032 # 20000230 <LineCoding>
    347c:	86e1ac23          	sw	a4,-1928(gp) # 20000298 <pDescr>
E:/CODE/C/ch32v307/CHV307_Library/Example/libraries/sdk/Peripheral/ch32v30x_usbotg_device.c:428
                                len = sizeof(LineCoding);
    3480:	479d                	li	a5,7
    3482:	fef407a3          	sb	a5,-17(s0)
E:/CODE/C/ch32v307/CHV307_Library/Example/libraries/sdk/Peripheral/ch32v30x_usbotg_device.c:429
                                len = SetupReqLen >= DEFAULT_ENDP0_SIZE ? DEFAULT_ENDP0_SIZE : SetupReqLen;  // 本次传输长度
    3486:	8821d783          	lhu	a5,-1918(gp) # 200002a2 <SetupReqLen>
    348a:	01079713          	slli	a4,a5,0x10
    348e:	8341                	srli	a4,a4,0x10
    3490:	479d                	li	a5,7
    3492:	00e7e963          	bltu	a5,a4,34a4 <OTG_FS_IRQHandler+0x10e>
E:/CODE/C/ch32v307/CHV307_Library/Example/libraries/sdk/Peripheral/ch32v30x_usbotg_device.c:429 (discriminator 1)
    3496:	8821d783          	lhu	a5,-1918(gp) # 200002a2 <SetupReqLen>
    349a:	07c2                	slli	a5,a5,0x10
    349c:	83c1                	srli	a5,a5,0x10
    349e:	0ff7f793          	andi	a5,a5,255
    34a2:	a011                	j	34a6 <OTG_FS_IRQHandler+0x110>
E:/CODE/C/ch32v307/CHV307_Library/Example/libraries/sdk/Peripheral/ch32v30x_usbotg_device.c:429 (discriminator 2)
    34a4:	47a1                	li	a5,8
E:/CODE/C/ch32v307/CHV307_Library/Example/libraries/sdk/Peripheral/ch32v30x_usbotg_device.c:429 (discriminator 4)
    34a6:	fef407a3          	sb	a5,-17(s0)
E:/CODE/C/ch32v307/CHV307_Library/Example/libraries/sdk/Peripheral/ch32v30x_usbotg_device.c:430 (discriminator 4)
                                memcpy(pEP0_DataBuf,pDescr,len);
    34aa:	86c1a703          	lw	a4,-1940(gp) # 2000028c <pEP0_RAM_Addr>
    34ae:	8781a783          	lw	a5,-1928(gp) # 20000298 <pDescr>
    34b2:	fef44683          	lbu	a3,-17(s0)
    34b6:	8636                	mv	a2,a3
    34b8:	85be                	mv	a1,a5
    34ba:	853a                	mv	a0,a4
    34bc:	740020ef          	jal	ra,5bfc <memcpy>
E:/CODE/C/ch32v307/CHV307_Library/Example/libraries/sdk/Peripheral/ch32v30x_usbotg_device.c:431 (discriminator 4)
                                SetupReqLen -= len;
    34c0:	8821d783          	lhu	a5,-1918(gp) # 200002a2 <SetupReqLen>
    34c4:	01079713          	slli	a4,a5,0x10
    34c8:	8341                	srli	a4,a4,0x10
    34ca:	fef44783          	lbu	a5,-17(s0)
    34ce:	07c2                	slli	a5,a5,0x10
    34d0:	83c1                	srli	a5,a5,0x10
    34d2:	40f707b3          	sub	a5,a4,a5
    34d6:	01079713          	slli	a4,a5,0x10
    34da:	8341                	srli	a4,a4,0x10
    34dc:	88e19123          	sh	a4,-1918(gp) # 200002a2 <SetupReqLen>
E:/CODE/C/ch32v307/CHV307_Library/Example/libraries/sdk/Peripheral/ch32v30x_usbotg_device.c:432 (discriminator 4)
                                pDescr += len;
    34e0:	8781a703          	lw	a4,-1928(gp) # 20000298 <pDescr>
    34e4:	fef44783          	lbu	a5,-17(s0)
    34e8:	973e                	add	a4,a4,a5
    34ea:	86e1ac23          	sw	a4,-1928(gp) # 20000298 <pDescr>
E:/CODE/C/ch32v307/CHV307_Library/Example/libraries/sdk/Peripheral/ch32v30x_usbotg_device.c:433 (discriminator 4)
                            break;
    34ee:	a811                	j	3502 <OTG_FS_IRQHandler+0x16c>
E:/CODE/C/ch32v307/CHV307_Library/Example/libraries/sdk/Peripheral/ch32v30x_usbotg_device.c:442
                                errflag = 0xFF;
    34f0:	57fd                	li	a5,-1
    34f2:	fef40723          	sb	a5,-18(s0)
    34f6:	a031                	j	3502 <OTG_FS_IRQHandler+0x16c>
E:/CODE/C/ch32v307/CHV307_Library/Example/libraries/sdk/Peripheral/ch32v30x_usbotg_device.c:444
                    }
    34f8:	0001                	nop
    34fa:	a021                	j	3502 <OTG_FS_IRQHandler+0x16c>
E:/CODE/C/ch32v307/CHV307_Library/Example/libraries/sdk/Peripheral/ch32v30x_usbotg_device.c:436
                            break;
    34fc:	0001                	nop
    34fe:	a011                	j	3502 <OTG_FS_IRQHandler+0x16c>
E:/CODE/C/ch32v307/CHV307_Library/Example/libraries/sdk/Peripheral/ch32v30x_usbotg_device.c:439
                            break;
    3500:	0001                	nop
E:/CODE/C/ch32v307/CHV307_Library/Example/libraries/sdk/Peripheral/ch32v30x_usbotg_device.c:461
                    if( errflag != 0xFF )
    3502:	fee44703          	lbu	a4,-18(s0)
    3506:	0ff00793          	li	a5,255
    350a:	68f70363          	beq	a4,a5,3b90 <OTG_FS_IRQHandler+0x7fa>
E:/CODE/C/ch32v307/CHV307_Library/Example/libraries/sdk/Peripheral/ch32v30x_usbotg_device.c:463
                        if( SetupReqLen > len )
    350e:	fef44783          	lbu	a5,-17(s0)
    3512:	01079713          	slli	a4,a5,0x10
    3516:	8341                	srli	a4,a4,0x10
    3518:	8821d783          	lhu	a5,-1918(gp) # 200002a2 <SetupReqLen>
    351c:	07c2                	slli	a5,a5,0x10
    351e:	83c1                	srli	a5,a5,0x10
    3520:	00f77963          	bgeu	a4,a5,3532 <OTG_FS_IRQHandler+0x19c>
E:/CODE/C/ch32v307/CHV307_Library/Example/libraries/sdk/Peripheral/ch32v30x_usbotg_device.c:465
                            SetupReqLen = len;
    3524:	fef44783          	lbu	a5,-17(s0)
    3528:	01079713          	slli	a4,a5,0x10
    352c:	8341                	srli	a4,a4,0x10
    352e:	88e19123          	sh	a4,-1918(gp) # 200002a2 <SetupReqLen>
E:/CODE/C/ch32v307/CHV307_Library/Example/libraries/sdk/Peripheral/ch32v30x_usbotg_device.c:467
                        len = ( USBHD_Dev_SetupReqLen >= DevEP0SIZE ) ? DevEP0SIZE : USBHD_Dev_SetupReqLen;
    3532:	87c1d783          	lhu	a5,-1924(gp) # 2000029c <USBHD_Dev_SetupReqLen>
    3536:	01079713          	slli	a4,a5,0x10
    353a:	8341                	srli	a4,a4,0x10
    353c:	479d                	li	a5,7
    353e:	00e7e963          	bltu	a5,a4,3550 <OTG_FS_IRQHandler+0x1ba>
E:/CODE/C/ch32v307/CHV307_Library/Example/libraries/sdk/Peripheral/ch32v30x_usbotg_device.c:467 (discriminator 1)
    3542:	87c1d783          	lhu	a5,-1924(gp) # 2000029c <USBHD_Dev_SetupReqLen>
    3546:	07c2                	slli	a5,a5,0x10
    3548:	83c1                	srli	a5,a5,0x10
    354a:	0ff7f793          	andi	a5,a5,255
    354e:	a011                	j	3552 <OTG_FS_IRQHandler+0x1bc>
E:/CODE/C/ch32v307/CHV307_Library/Example/libraries/sdk/Peripheral/ch32v30x_usbotg_device.c:467 (discriminator 2)
    3550:	47a1                	li	a5,8
E:/CODE/C/ch32v307/CHV307_Library/Example/libraries/sdk/Peripheral/ch32v30x_usbotg_device.c:467 (discriminator 4)
    3552:	fef407a3          	sb	a5,-17(s0)
E:/CODE/C/ch32v307/CHV307_Library/Example/libraries/sdk/Peripheral/ch32v30x_usbotg_device.c:468 (discriminator 4)
                        memcpy( EP0_DatabufHD, pDescr, len );
    3556:	8781a783          	lw	a5,-1928(gp) # 20000298 <pDescr>
    355a:	fef44703          	lbu	a4,-17(s0)
    355e:	863a                	mv	a2,a4
    3560:	85be                	mv	a1,a5
    3562:	86418513          	addi	a0,gp,-1948 # 20000284 <EP0_DatabufHD>
    3566:	696020ef          	jal	ra,5bfc <memcpy>
E:/CODE/C/ch32v307/CHV307_Library/Example/libraries/sdk/Peripheral/ch32v30x_usbotg_device.c:469 (discriminator 4)
                        pDescr += len;
    356a:	8781a703          	lw	a4,-1928(gp) # 20000298 <pDescr>
    356e:	fef44783          	lbu	a5,-17(s0)
    3572:	973e                	add	a4,a4,a5
    3574:	86e1ac23          	sw	a4,-1928(gp) # 20000298 <pDescr>
    3578:	ad21                	j	3b90 <OTG_FS_IRQHandler+0x7fa>
E:/CODE/C/ch32v307/CHV307_Library/Example/libraries/sdk/Peripheral/ch32v30x_usbotg_device.c:475
                    switch( SetupReqCode )
    357a:	8801c783          	lbu	a5,-1920(gp) # 200002a0 <SetupReqCode>
    357e:	0ff7f793          	andi	a5,a5,255
    3582:	472d                	li	a4,11
    3584:	5ef76b63          	bltu	a4,a5,3b7a <OTG_FS_IRQHandler+0x7e4>
    3588:	00279713          	slli	a4,a5,0x2
    358c:	67a5                	lui	a5,0x9
    358e:	0c478793          	addi	a5,a5,196 # 90c4 <MyUSBQUADescHD+0xc>
    3592:	97ba                	add	a5,a5,a4
    3594:	439c                	lw	a5,0(a5)
    3596:	8782                	jr	a5
E:/CODE/C/ch32v307/CHV307_Library/Example/libraries/sdk/Peripheral/ch32v30x_usbotg_device.c:479 (discriminator 1)
                            switch( ((pSetupReqPakHD->wValue)>>8) )
    3598:	86c1a783          	lw	a5,-1940(gp) # 2000028c <pEP0_RAM_Addr>
    359c:	0027c703          	lbu	a4,2(a5)
    35a0:	0037c783          	lbu	a5,3(a5)
    35a4:	07a2                	slli	a5,a5,0x8
    35a6:	8fd9                	or	a5,a5,a4
    35a8:	07c2                	slli	a5,a5,0x10
    35aa:	83c1                	srli	a5,a5,0x10
    35ac:	83a1                	srli	a5,a5,0x8
    35ae:	07c2                	slli	a5,a5,0x10
    35b0:	83c1                	srli	a5,a5,0x10
    35b2:	02200713          	li	a4,34
    35b6:	12f76563          	bltu	a4,a5,36e0 <OTG_FS_IRQHandler+0x34a>
    35ba:	00279713          	slli	a4,a5,0x2
    35be:	67a5                	lui	a5,0x9
    35c0:	0f478793          	addi	a5,a5,244 # 90f4 <MyUSBQUADescHD+0x3c>
    35c4:	97ba                	add	a5,a5,a4
    35c6:	439c                	lw	a5,0(a5)
    35c8:	8782                	jr	a5
E:/CODE/C/ch32v307/CHV307_Library/Example/libraries/sdk/Peripheral/ch32v30x_usbotg_device.c:483
                                    pDescr = MyDevDescrHD;
    35ca:	6725                	lui	a4,0x9
    35cc:	01870713          	addi	a4,a4,24 # 9018 <MyDevDescrHD>
    35d0:	86e1ac23          	sw	a4,-1928(gp) # 20000298 <pDescr>
E:/CODE/C/ch32v307/CHV307_Library/Example/libraries/sdk/Peripheral/ch32v30x_usbotg_device.c:484
                                    len = MyDevDescrHD[0];
    35d4:	47c9                	li	a5,18
    35d6:	fef407a3          	sb	a5,-17(s0)
E:/CODE/C/ch32v307/CHV307_Library/Example/libraries/sdk/Peripheral/ch32v30x_usbotg_device.c:485
                                    break;
    35da:	a239                	j	36e8 <OTG_FS_IRQHandler+0x352>
E:/CODE/C/ch32v307/CHV307_Library/Example/libraries/sdk/Peripheral/ch32v30x_usbotg_device.c:489
                                    pDescr = MyCfgDescrHD;
    35dc:	6725                	lui	a4,0x9
    35de:	02c70713          	addi	a4,a4,44 # 902c <MyCfgDescrHD>
    35e2:	86e1ac23          	sw	a4,-1928(gp) # 20000298 <pDescr>
E:/CODE/C/ch32v307/CHV307_Library/Example/libraries/sdk/Peripheral/ch32v30x_usbotg_device.c:490
                                    len = MyCfgDescrHD[2];
    35e6:	04300793          	li	a5,67
    35ea:	fef407a3          	sb	a5,-17(s0)
E:/CODE/C/ch32v307/CHV307_Library/Example/libraries/sdk/Peripheral/ch32v30x_usbotg_device.c:491
                                    break;
    35ee:	a8ed                	j	36e8 <OTG_FS_IRQHandler+0x352>
E:/CODE/C/ch32v307/CHV307_Library/Example/libraries/sdk/Peripheral/ch32v30x_usbotg_device.c:495 (discriminator 2)
                                    switch( (pSetupReqPakHD->wValue)&0xff )
    35f0:	86c1a783          	lw	a5,-1940(gp) # 2000028c <pEP0_RAM_Addr>
    35f4:	0027c703          	lbu	a4,2(a5)
    35f8:	0037c783          	lbu	a5,3(a5)
    35fc:	07a2                	slli	a5,a5,0x8
    35fe:	8fd9                	or	a5,a5,a4
    3600:	07c2                	slli	a5,a5,0x10
    3602:	83c1                	srli	a5,a5,0x10
    3604:	0ff7f793          	andi	a5,a5,255
    3608:	4705                	li	a4,1
    360a:	02e78663          	beq	a5,a4,3636 <OTG_FS_IRQHandler+0x2a0>
    360e:	4705                	li	a4,1
    3610:	00f74463          	blt	a4,a5,3618 <OTG_FS_IRQHandler+0x282>
    3614:	cb89                	beqz	a5,3626 <OTG_FS_IRQHandler+0x290>
    3616:	a899                	j	366c <OTG_FS_IRQHandler+0x2d6>
    3618:	4709                	li	a4,2
    361a:	02e78763          	beq	a5,a4,3648 <OTG_FS_IRQHandler+0x2b2>
    361e:	470d                	li	a4,3
    3620:	02e78d63          	beq	a5,a4,365a <OTG_FS_IRQHandler+0x2c4>
    3624:	a0a1                	j	366c <OTG_FS_IRQHandler+0x2d6>
E:/CODE/C/ch32v307/CHV307_Library/Example/libraries/sdk/Peripheral/ch32v30x_usbotg_device.c:499
                                        pDescr = MyLangDescrHD;
    3626:	82418713          	addi	a4,gp,-2012 # 20000244 <MyLangDescrHD>
    362a:	86e1ac23          	sw	a4,-1928(gp) # 20000298 <pDescr>
E:/CODE/C/ch32v307/CHV307_Library/Example/libraries/sdk/Peripheral/ch32v30x_usbotg_device.c:500
                                        len = MyLangDescrHD[0];
    362e:	4791                	li	a5,4
    3630:	fef407a3          	sb	a5,-17(s0)
E:/CODE/C/ch32v307/CHV307_Library/Example/libraries/sdk/Peripheral/ch32v30x_usbotg_device.c:501
                                            break;
    3634:	a081                	j	3674 <OTG_FS_IRQHandler+0x2de>
E:/CODE/C/ch32v307/CHV307_Library/Example/libraries/sdk/Peripheral/ch32v30x_usbotg_device.c:505
                                            pDescr = MyManuInfoHD;
    3636:	6725                	lui	a4,0x9
    3638:	08470713          	addi	a4,a4,132 # 9084 <MyManuInfoHD>
    363c:	86e1ac23          	sw	a4,-1928(gp) # 20000298 <pDescr>
E:/CODE/C/ch32v307/CHV307_Library/Example/libraries/sdk/Peripheral/ch32v30x_usbotg_device.c:506
                                            len = MyManuInfoHD[0];
    3640:	47b9                	li	a5,14
    3642:	fef407a3          	sb	a5,-17(s0)
E:/CODE/C/ch32v307/CHV307_Library/Example/libraries/sdk/Peripheral/ch32v30x_usbotg_device.c:507
                                            break;
    3646:	a03d                	j	3674 <OTG_FS_IRQHandler+0x2de>
E:/CODE/C/ch32v307/CHV307_Library/Example/libraries/sdk/Peripheral/ch32v30x_usbotg_device.c:511
                                            pDescr = MyProdInfoHD;
    3648:	6725                	lui	a4,0x9
    364a:	09470713          	addi	a4,a4,148 # 9094 <MyProdInfoHD>
    364e:	86e1ac23          	sw	a4,-1928(gp) # 20000298 <pDescr>
E:/CODE/C/ch32v307/CHV307_Library/Example/libraries/sdk/Peripheral/ch32v30x_usbotg_device.c:512
                                            len = MyProdInfoHD[0];
    3652:	47b1                	li	a5,12
    3654:	fef407a3          	sb	a5,-17(s0)
E:/CODE/C/ch32v307/CHV307_Library/Example/libraries/sdk/Peripheral/ch32v30x_usbotg_device.c:513
                                            break;
    3658:	a831                	j	3674 <OTG_FS_IRQHandler+0x2de>
E:/CODE/C/ch32v307/CHV307_Library/Example/libraries/sdk/Peripheral/ch32v30x_usbotg_device.c:517
                                            pDescr = MySerNumInfoHD;
    365a:	6725                	lui	a4,0x9
    365c:	0a070713          	addi	a4,a4,160 # 90a0 <MySerNumInfoHD>
    3660:	86e1ac23          	sw	a4,-1928(gp) # 20000298 <pDescr>
E:/CODE/C/ch32v307/CHV307_Library/Example/libraries/sdk/Peripheral/ch32v30x_usbotg_device.c:518
                                            len = sizeof( MySerNumInfoHD );
    3664:	47d9                	li	a5,22
    3666:	fef407a3          	sb	a5,-17(s0)
E:/CODE/C/ch32v307/CHV307_Library/Example/libraries/sdk/Peripheral/ch32v30x_usbotg_device.c:519
                                            break;
    366a:	a029                	j	3674 <OTG_FS_IRQHandler+0x2de>
E:/CODE/C/ch32v307/CHV307_Library/Example/libraries/sdk/Peripheral/ch32v30x_usbotg_device.c:522
                                            errflag = 0xFF;
    366c:	57fd                	li	a5,-1
    366e:	fef40723          	sb	a5,-18(s0)
E:/CODE/C/ch32v307/CHV307_Library/Example/libraries/sdk/Peripheral/ch32v30x_usbotg_device.c:523
                                            break;
    3672:	0001                	nop
E:/CODE/C/ch32v307/CHV307_Library/Example/libraries/sdk/Peripheral/ch32v30x_usbotg_device.c:525
                                    break;
    3674:	a895                	j	36e8 <OTG_FS_IRQHandler+0x352>
E:/CODE/C/ch32v307/CHV307_Library/Example/libraries/sdk/Peripheral/ch32v30x_usbotg_device.c:529
                                    pDescr = MyReportDescHD;
    3676:	6725                	lui	a4,0x9
    3678:	07070713          	addi	a4,a4,112 # 9070 <MyReportDescHD>
    367c:	86e1ac23          	sw	a4,-1928(gp) # 20000298 <pDescr>
E:/CODE/C/ch32v307/CHV307_Library/Example/libraries/sdk/Peripheral/ch32v30x_usbotg_device.c:530
                                    len = sizeof( MyReportDescHD );
    3680:	47d1                	li	a5,20
    3682:	fef407a3          	sb	a5,-17(s0)
E:/CODE/C/ch32v307/CHV307_Library/Example/libraries/sdk/Peripheral/ch32v30x_usbotg_device.c:531
                                    break;
    3686:	a08d                	j	36e8 <OTG_FS_IRQHandler+0x352>
E:/CODE/C/ch32v307/CHV307_Library/Example/libraries/sdk/Peripheral/ch32v30x_usbotg_device.c:535
                                    pDescr = ( PUINT8 )&MyUSBQUADescHD[ 0 ];
    3688:	6725                	lui	a4,0x9
    368a:	0b870713          	addi	a4,a4,184 # 90b8 <MyUSBQUADescHD>
    368e:	86e1ac23          	sw	a4,-1928(gp) # 20000298 <pDescr>
E:/CODE/C/ch32v307/CHV307_Library/Example/libraries/sdk/Peripheral/ch32v30x_usbotg_device.c:536
                                    len = sizeof( MyUSBQUADescHD );
    3692:	47a9                	li	a5,10
    3694:	fef407a3          	sb	a5,-17(s0)
E:/CODE/C/ch32v307/CHV307_Library/Example/libraries/sdk/Peripheral/ch32v30x_usbotg_device.c:537
                                    break;
    3698:	a881                	j	36e8 <OTG_FS_IRQHandler+0x352>
E:/CODE/C/ch32v307/CHV307_Library/Example/libraries/sdk/Peripheral/ch32v30x_usbotg_device.c:542
                                    if( USBHD_Dev_Speed == 0x00 )
    369a:	80c1c783          	lbu	a5,-2036(gp) # 2000022c <USBHD_Dev_Speed>
    369e:	0ff7f793          	andi	a5,a5,255
    36a2:	e79d                	bnez	a5,36d0 <OTG_FS_IRQHandler+0x33a>
E:/CODE/C/ch32v307/CHV307_Library/Example/libraries/sdk/Peripheral/ch32v30x_usbotg_device.c:545
                                      memcpy( &TAB_USB_FS_OSC_DESC[ 2 ], &MyCfgDescrHD[ 2 ], sizeof( MyCfgDescrHD ) - 2 );
    36a4:	04100613          	li	a2,65
    36a8:	67a5                	lui	a5,0x9
    36aa:	02e78593          	addi	a1,a5,46 # 902e <MyCfgDescrHD+0x2>
    36ae:	200007b7          	lui	a5,0x20000
    36b2:	01278513          	addi	a0,a5,18 # 20000012 <TAB_USB_FS_OSC_DESC+0x2>
    36b6:	546020ef          	jal	ra,5bfc <memcpy>
E:/CODE/C/ch32v307/CHV307_Library/Example/libraries/sdk/Peripheral/ch32v30x_usbotg_device.c:546
                                      pDescr = ( PUINT8 )&TAB_USB_FS_OSC_DESC[ 0 ];
    36ba:	20000737          	lui	a4,0x20000
    36be:	01070713          	addi	a4,a4,16 # 20000010 <TAB_USB_FS_OSC_DESC>
    36c2:	86e1ac23          	sw	a4,-1928(gp) # 20000298 <pDescr>
E:/CODE/C/ch32v307/CHV307_Library/Example/libraries/sdk/Peripheral/ch32v30x_usbotg_device.c:547
                                      len = sizeof( TAB_USB_FS_OSC_DESC );
    36c6:	04300793          	li	a5,67
    36ca:	fef407a3          	sb	a5,-17(s0)
E:/CODE/C/ch32v307/CHV307_Library/Example/libraries/sdk/Peripheral/ch32v30x_usbotg_device.c:553
                                    break;
    36ce:	a829                	j	36e8 <OTG_FS_IRQHandler+0x352>
E:/CODE/C/ch32v307/CHV307_Library/Example/libraries/sdk/Peripheral/ch32v30x_usbotg_device.c:551
                                      errflag = 0xFF;
    36d0:	57fd                	li	a5,-1
    36d2:	fef40723          	sb	a5,-18(s0)
E:/CODE/C/ch32v307/CHV307_Library/Example/libraries/sdk/Peripheral/ch32v30x_usbotg_device.c:553
                                    break;
    36d6:	a809                	j	36e8 <OTG_FS_IRQHandler+0x352>
E:/CODE/C/ch32v307/CHV307_Library/Example/libraries/sdk/Peripheral/ch32v30x_usbotg_device.c:558
                                    errflag = 0xFF;
    36d8:	57fd                	li	a5,-1
    36da:	fef40723          	sb	a5,-18(s0)
E:/CODE/C/ch32v307/CHV307_Library/Example/libraries/sdk/Peripheral/ch32v30x_usbotg_device.c:559
                                    break;
    36de:	a029                	j	36e8 <OTG_FS_IRQHandler+0x352>
E:/CODE/C/ch32v307/CHV307_Library/Example/libraries/sdk/Peripheral/ch32v30x_usbotg_device.c:562
                                    errflag = 0xff;
    36e0:	57fd                	li	a5,-1
    36e2:	fef40723          	sb	a5,-18(s0)
E:/CODE/C/ch32v307/CHV307_Library/Example/libraries/sdk/Peripheral/ch32v30x_usbotg_device.c:563
                                    break;
    36e6:	0001                	nop
E:/CODE/C/ch32v307/CHV307_Library/Example/libraries/sdk/Peripheral/ch32v30x_usbotg_device.c:567
                            if( SetupReqLen>len )   SetupReqLen = len;
    36e8:	fef44783          	lbu	a5,-17(s0)
    36ec:	01079713          	slli	a4,a5,0x10
    36f0:	8341                	srli	a4,a4,0x10
    36f2:	8821d783          	lhu	a5,-1918(gp) # 200002a2 <SetupReqLen>
    36f6:	07c2                	slli	a5,a5,0x10
    36f8:	83c1                	srli	a5,a5,0x10
    36fa:	00f77963          	bgeu	a4,a5,370c <OTG_FS_IRQHandler+0x376>
E:/CODE/C/ch32v307/CHV307_Library/Example/libraries/sdk/Peripheral/ch32v30x_usbotg_device.c:567 (discriminator 1)
    36fe:	fef44783          	lbu	a5,-17(s0)
    3702:	01079713          	slli	a4,a5,0x10
    3706:	8341                	srli	a4,a4,0x10
    3708:	88e19123          	sh	a4,-1918(gp) # 200002a2 <SetupReqLen>
E:/CODE/C/ch32v307/CHV307_Library/Example/libraries/sdk/Peripheral/ch32v30x_usbotg_device.c:568
                            len = (SetupReqLen >= DevEP0SIZE) ? DevEP0SIZE : SetupReqLen;
    370c:	8821d783          	lhu	a5,-1918(gp) # 200002a2 <SetupReqLen>
    3710:	01079713          	slli	a4,a5,0x10
    3714:	8341                	srli	a4,a4,0x10
    3716:	479d                	li	a5,7
    3718:	00e7e963          	bltu	a5,a4,372a <OTG_FS_IRQHandler+0x394>
E:/CODE/C/ch32v307/CHV307_Library/Example/libraries/sdk/Peripheral/ch32v30x_usbotg_device.c:568 (discriminator 1)
    371c:	8821d783          	lhu	a5,-1918(gp) # 200002a2 <SetupReqLen>
    3720:	07c2                	slli	a5,a5,0x10
    3722:	83c1                	srli	a5,a5,0x10
    3724:	0ff7f793          	andi	a5,a5,255
    3728:	a011                	j	372c <OTG_FS_IRQHandler+0x396>
E:/CODE/C/ch32v307/CHV307_Library/Example/libraries/sdk/Peripheral/ch32v30x_usbotg_device.c:568 (discriminator 2)
    372a:	47a1                	li	a5,8
E:/CODE/C/ch32v307/CHV307_Library/Example/libraries/sdk/Peripheral/ch32v30x_usbotg_device.c:568 (discriminator 4)
    372c:	fef407a3          	sb	a5,-17(s0)
E:/CODE/C/ch32v307/CHV307_Library/Example/libraries/sdk/Peripheral/ch32v30x_usbotg_device.c:569 (discriminator 4)
                            memcpy( pEP0_DataBuf, pDescr, len );
    3730:	86c1a703          	lw	a4,-1940(gp) # 2000028c <pEP0_RAM_Addr>
    3734:	8781a783          	lw	a5,-1928(gp) # 20000298 <pDescr>
    3738:	fef44683          	lbu	a3,-17(s0)
    373c:	8636                	mv	a2,a3
    373e:	85be                	mv	a1,a5
    3740:	853a                	mv	a0,a4
    3742:	4ba020ef          	jal	ra,5bfc <memcpy>
E:/CODE/C/ch32v307/CHV307_Library/Example/libraries/sdk/Peripheral/ch32v30x_usbotg_device.c:570 (discriminator 4)
                            pDescr += len;
    3746:	8781a703          	lw	a4,-1928(gp) # 20000298 <pDescr>
    374a:	fef44783          	lbu	a5,-17(s0)
    374e:	973e                	add	a4,a4,a5
    3750:	86e1ac23          	sw	a4,-1928(gp) # 20000298 <pDescr>
E:/CODE/C/ch32v307/CHV307_Library/Example/libraries/sdk/Peripheral/ch32v30x_usbotg_device.c:572 (discriminator 4)
                            break;
    3754:	a935                	j	3b90 <OTG_FS_IRQHandler+0x7fa>
E:/CODE/C/ch32v307/CHV307_Library/Example/libraries/sdk/Peripheral/ch32v30x_usbotg_device.c:576
                            SetupReqLen = (pSetupReqPakHD->wValue)&0xff;
    3756:	86c1a783          	lw	a5,-1940(gp) # 2000028c <pEP0_RAM_Addr>
    375a:	0027c703          	lbu	a4,2(a5)
    375e:	0037c783          	lbu	a5,3(a5)
    3762:	07a2                	slli	a5,a5,0x8
    3764:	8fd9                	or	a5,a5,a4
    3766:	07c2                	slli	a5,a5,0x10
    3768:	83c1                	srli	a5,a5,0x10
    376a:	0ff7f793          	andi	a5,a5,255
    376e:	01079713          	slli	a4,a5,0x10
    3772:	8341                	srli	a4,a4,0x10
    3774:	88e19123          	sh	a4,-1918(gp) # 200002a2 <SetupReqLen>
E:/CODE/C/ch32v307/CHV307_Library/Example/libraries/sdk/Peripheral/ch32v30x_usbotg_device.c:577
                            break;
    3778:	a921                	j	3b90 <OTG_FS_IRQHandler+0x7fa>
E:/CODE/C/ch32v307/CHV307_Library/Example/libraries/sdk/Peripheral/ch32v30x_usbotg_device.c:581
                            pEP0_DataBuf[0] = DevConfig;
    377a:	86c1a783          	lw	a5,-1940(gp) # 2000028c <pEP0_RAM_Addr>
    377e:	87f1c703          	lbu	a4,-1921(gp) # 2000029f <DevConfig>
    3782:	0ff77713          	andi	a4,a4,255
    3786:	00e78023          	sb	a4,0(a5)
E:/CODE/C/ch32v307/CHV307_Library/Example/libraries/sdk/Peripheral/ch32v30x_usbotg_device.c:582
                            if ( SetupReqLen > 1 ) SetupReqLen = 1;
    378a:	8821d783          	lhu	a5,-1918(gp) # 200002a2 <SetupReqLen>
    378e:	01079713          	slli	a4,a5,0x10
    3792:	8341                	srli	a4,a4,0x10
    3794:	4785                	li	a5,1
    3796:	3ee7f663          	bgeu	a5,a4,3b82 <OTG_FS_IRQHandler+0x7ec>
E:/CODE/C/ch32v307/CHV307_Library/Example/libraries/sdk/Peripheral/ch32v30x_usbotg_device.c:582 (discriminator 1)
    379a:	4705                	li	a4,1
    379c:	88e19123          	sh	a4,-1918(gp) # 200002a2 <SetupReqLen>
E:/CODE/C/ch32v307/CHV307_Library/Example/libraries/sdk/Peripheral/ch32v30x_usbotg_device.c:583 (discriminator 1)
                            break;
    37a0:	a6cd                	j	3b82 <OTG_FS_IRQHandler+0x7ec>
E:/CODE/C/ch32v307/CHV307_Library/Example/libraries/sdk/Peripheral/ch32v30x_usbotg_device.c:587
                            DevConfig = (pSetupReqPakHD->wValue)&0xff;
    37a2:	86c1a783          	lw	a5,-1940(gp) # 2000028c <pEP0_RAM_Addr>
    37a6:	0027c703          	lbu	a4,2(a5)
    37aa:	0037c783          	lbu	a5,3(a5)
    37ae:	07a2                	slli	a5,a5,0x8
    37b0:	8fd9                	or	a5,a5,a4
    37b2:	07c2                	slli	a5,a5,0x10
    37b4:	83c1                	srli	a5,a5,0x10
    37b6:	0ff7f713          	andi	a4,a5,255
    37ba:	86e18fa3          	sb	a4,-1921(gp) # 2000029f <DevConfig>
E:/CODE/C/ch32v307/CHV307_Library/Example/libraries/sdk/Peripheral/ch32v30x_usbotg_device.c:588
                            break;
    37be:	aec9                	j	3b90 <OTG_FS_IRQHandler+0x7fa>
E:/CODE/C/ch32v307/CHV307_Library/Example/libraries/sdk/Peripheral/ch32v30x_usbotg_device.c:592
                            if ( ( pSetupReqPakHD->bRequestType & USB_REQ_RECIP_MASK ) == USB_REQ_RECIP_ENDP )
    37c0:	86c1a783          	lw	a5,-1940(gp) # 2000028c <pEP0_RAM_Addr>
    37c4:	0007c783          	lbu	a5,0(a5)
    37c8:	01f7f713          	andi	a4,a5,31
    37cc:	4789                	li	a5,2
    37ce:	0cf71f63          	bne	a4,a5,38ac <OTG_FS_IRQHandler+0x516>
E:/CODE/C/ch32v307/CHV307_Library/Example/libraries/sdk/Peripheral/ch32v30x_usbotg_device.c:595
                                switch( (pSetupReqPakHD->wIndex)&0xff )
    37d2:	86c1a783          	lw	a5,-1940(gp) # 2000028c <pEP0_RAM_Addr>
    37d6:	0047c703          	lbu	a4,4(a5)
    37da:	0057c783          	lbu	a5,5(a5)
    37de:	07a2                	slli	a5,a5,0x8
    37e0:	8fd9                	or	a5,a5,a4
    37e2:	07c2                	slli	a5,a5,0x10
    37e4:	83c1                	srli	a5,a5,0x10
    37e6:	0ff7f793          	andi	a5,a5,255
    37ea:	4709                	li	a4,2
    37ec:	04e78863          	beq	a5,a4,383c <OTG_FS_IRQHandler+0x4a6>
    37f0:	4709                	li	a4,2
    37f2:	00f74663          	blt	a4,a5,37fe <OTG_FS_IRQHandler+0x468>
    37f6:	4705                	li	a4,1
    37f8:	08e78763          	beq	a5,a4,3886 <OTG_FS_IRQHandler+0x4f0>
    37fc:	a05d                	j	38a2 <OTG_FS_IRQHandler+0x50c>
    37fe:	08100713          	li	a4,129
    3802:	04e78b63          	beq	a5,a4,3858 <OTG_FS_IRQHandler+0x4c2>
    3806:	08200713          	li	a4,130
    380a:	08e79c63          	bne	a5,a4,38a2 <OTG_FS_IRQHandler+0x50c>
E:/CODE/C/ch32v307/CHV307_Library/Example/libraries/sdk/Peripheral/ch32v30x_usbotg_device.c:598
                                    USBOTG_FS->UEP2_TX_CTRL = (USBOTG_FS->UEP2_TX_CTRL & ~( USBHD_UEP_T_TOG|USBHD_UEP_T_RES_MASK )) | USBHD_UEP_T_RES_NAK;
    380e:	500007b7          	lui	a5,0x50000
    3812:	03a7c783          	lbu	a5,58(a5) # 5000003a <_eusrstack+0x2fff003a>
    3816:	0ff7f793          	andi	a5,a5,255
    381a:	07e2                	slli	a5,a5,0x18
    381c:	87e1                	srai	a5,a5,0x18
    381e:	9be1                	andi	a5,a5,-8
    3820:	07e2                	slli	a5,a5,0x18
    3822:	87e1                	srai	a5,a5,0x18
    3824:	0027e793          	ori	a5,a5,2
    3828:	01879713          	slli	a4,a5,0x18
    382c:	8761                	srai	a4,a4,0x18
    382e:	500007b7          	lui	a5,0x50000
    3832:	0ff77713          	andi	a4,a4,255
    3836:	02e78d23          	sb	a4,58(a5) # 5000003a <_eusrstack+0x2fff003a>
E:/CODE/C/ch32v307/CHV307_Library/Example/libraries/sdk/Peripheral/ch32v30x_usbotg_device.c:599
                                    break;
    383a:	a8ad                	j	38b4 <OTG_FS_IRQHandler+0x51e>
E:/CODE/C/ch32v307/CHV307_Library/Example/libraries/sdk/Peripheral/ch32v30x_usbotg_device.c:602
                                    USBOTG_FS->UEP2_RX_CTRL = (USBOTG_FS->UEP2_RX_CTRL & ~( USBHD_UEP_R_TOG|USBHD_UEP_R_RES_MASK )) | USBHD_UEP_R_RES_ACK;
    383c:	500007b7          	lui	a5,0x50000
    3840:	03b7c783          	lbu	a5,59(a5) # 5000003b <_eusrstack+0x2fff003b>
    3844:	0ff7f713          	andi	a4,a5,255
    3848:	500007b7          	lui	a5,0x50000
    384c:	9b61                	andi	a4,a4,-8
    384e:	0ff77713          	andi	a4,a4,255
    3852:	02e78da3          	sb	a4,59(a5) # 5000003b <_eusrstack+0x2fff003b>
E:/CODE/C/ch32v307/CHV307_Library/Example/libraries/sdk/Peripheral/ch32v30x_usbotg_device.c:603
                                    break;
    3856:	a8b9                	j	38b4 <OTG_FS_IRQHandler+0x51e>
E:/CODE/C/ch32v307/CHV307_Library/Example/libraries/sdk/Peripheral/ch32v30x_usbotg_device.c:606
                                    USBOTG_FS->UEP1_TX_CTRL = (USBOTG_FS->UEP1_TX_CTRL & ~( USBHD_UEP_T_TOG|USBHD_UEP_T_RES_MASK )) | USBHD_UEP_T_RES_NAK;
    3858:	500007b7          	lui	a5,0x50000
    385c:	0367c783          	lbu	a5,54(a5) # 50000036 <_eusrstack+0x2fff0036>
    3860:	0ff7f793          	andi	a5,a5,255
    3864:	07e2                	slli	a5,a5,0x18
    3866:	87e1                	srai	a5,a5,0x18
    3868:	9be1                	andi	a5,a5,-8
    386a:	07e2                	slli	a5,a5,0x18
    386c:	87e1                	srai	a5,a5,0x18
    386e:	0027e793          	ori	a5,a5,2
    3872:	01879713          	slli	a4,a5,0x18
    3876:	8761                	srai	a4,a4,0x18
    3878:	500007b7          	lui	a5,0x50000
    387c:	0ff77713          	andi	a4,a4,255
    3880:	02e78b23          	sb	a4,54(a5) # 50000036 <_eusrstack+0x2fff0036>
E:/CODE/C/ch32v307/CHV307_Library/Example/libraries/sdk/Peripheral/ch32v30x_usbotg_device.c:607
                                    break;
    3884:	a805                	j	38b4 <OTG_FS_IRQHandler+0x51e>
E:/CODE/C/ch32v307/CHV307_Library/Example/libraries/sdk/Peripheral/ch32v30x_usbotg_device.c:610
                                    USBOTG_FS->UEP1_RX_CTRL = (USBOTG_FS->UEP1_RX_CTRL & ~( USBHD_UEP_R_TOG|USBHD_UEP_R_RES_MASK )) | USBHD_UEP_R_RES_ACK;
    3886:	500007b7          	lui	a5,0x50000
    388a:	0377c783          	lbu	a5,55(a5) # 50000037 <_eusrstack+0x2fff0037>
    388e:	0ff7f713          	andi	a4,a5,255
    3892:	500007b7          	lui	a5,0x50000
    3896:	9b61                	andi	a4,a4,-8
    3898:	0ff77713          	andi	a4,a4,255
    389c:	02e78ba3          	sb	a4,55(a5) # 50000037 <_eusrstack+0x2fff0037>
E:/CODE/C/ch32v307/CHV307_Library/Example/libraries/sdk/Peripheral/ch32v30x_usbotg_device.c:611
                                    break;
    38a0:	a811                	j	38b4 <OTG_FS_IRQHandler+0x51e>
E:/CODE/C/ch32v307/CHV307_Library/Example/libraries/sdk/Peripheral/ch32v30x_usbotg_device.c:614
                                    errflag = 0xFF;
    38a2:	57fd                	li	a5,-1
    38a4:	fef40723          	sb	a5,-18(s0)
E:/CODE/C/ch32v307/CHV307_Library/Example/libraries/sdk/Peripheral/ch32v30x_usbotg_device.c:615
                                    break;
    38a8:	0001                	nop
    38aa:	a029                	j	38b4 <OTG_FS_IRQHandler+0x51e>
E:/CODE/C/ch32v307/CHV307_Library/Example/libraries/sdk/Peripheral/ch32v30x_usbotg_device.c:619
                            else    errflag = 0xFF;
    38ac:	57fd                	li	a5,-1
    38ae:	fef40723          	sb	a5,-18(s0)
E:/CODE/C/ch32v307/CHV307_Library/Example/libraries/sdk/Peripheral/ch32v30x_usbotg_device.c:620
                            break;
    38b2:	acf9                	j	3b90 <OTG_FS_IRQHandler+0x7fa>
    38b4:	acf1                	j	3b90 <OTG_FS_IRQHandler+0x7fa>
E:/CODE/C/ch32v307/CHV307_Library/Example/libraries/sdk/Peripheral/ch32v30x_usbotg_device.c:624
                            if( ( pMySetupReqPakHD->bRequestType & 0x1F ) == 0x00 )
    38b6:	86418793          	addi	a5,gp,-1948 # 20000284 <EP0_DatabufHD>
    38ba:	0007c783          	lbu	a5,0(a5)
    38be:	8bfd                	andi	a5,a5,31
    38c0:	e3a1                	bnez	a5,3900 <OTG_FS_IRQHandler+0x56a>
E:/CODE/C/ch32v307/CHV307_Library/Example/libraries/sdk/Peripheral/ch32v30x_usbotg_device.c:627
                                if( pMySetupReqPakHD->wValue == 0x01 )
    38c2:	86418793          	addi	a5,gp,-1948 # 20000284 <EP0_DatabufHD>
    38c6:	0027c703          	lbu	a4,2(a5)
    38ca:	0037c783          	lbu	a5,3(a5)
    38ce:	07a2                	slli	a5,a5,0x8
    38d0:	8fd9                	or	a5,a5,a4
    38d2:	01079713          	slli	a4,a5,0x10
    38d6:	8341                	srli	a4,a4,0x10
    38d8:	4785                	li	a5,1
    38da:	00f71f63          	bne	a4,a5,38f8 <OTG_FS_IRQHandler+0x562>
E:/CODE/C/ch32v307/CHV307_Library/Example/libraries/sdk/Peripheral/ch32v30x_usbotg_device.c:629
                                    if( MyCfgDescrHD[ 7 ] & 0x20 )
    38de:	0a000793          	li	a5,160
    38e2:	0207f793          	andi	a5,a5,32
    38e6:	c789                	beqz	a5,38f0 <OTG_FS_IRQHandler+0x55a>
E:/CODE/C/ch32v307/CHV307_Library/Example/libraries/sdk/Peripheral/ch32v30x_usbotg_device.c:632
                                        USBHD_Dev_SleepStatus = 0x01;
    38e8:	4705                	li	a4,1
    38ea:	86e18f23          	sb	a4,-1922(gp) # 2000029e <USBHD_Dev_SleepStatus>
E:/CODE/C/ch32v307/CHV307_Library/Example/libraries/sdk/Peripheral/ch32v30x_usbotg_device.c:690
                            break;
    38ee:	a44d                	j	3b90 <OTG_FS_IRQHandler+0x7fa>
E:/CODE/C/ch32v307/CHV307_Library/Example/libraries/sdk/Peripheral/ch32v30x_usbotg_device.c:636
                                        errflag = 0xFF;
    38f0:	57fd                	li	a5,-1
    38f2:	fef40723          	sb	a5,-18(s0)
E:/CODE/C/ch32v307/CHV307_Library/Example/libraries/sdk/Peripheral/ch32v30x_usbotg_device.c:690
                            break;
    38f6:	ac69                	j	3b90 <OTG_FS_IRQHandler+0x7fa>
E:/CODE/C/ch32v307/CHV307_Library/Example/libraries/sdk/Peripheral/ch32v30x_usbotg_device.c:641
                                    errflag = 0xFF;
    38f8:	57fd                	li	a5,-1
    38fa:	fef40723          	sb	a5,-18(s0)
E:/CODE/C/ch32v307/CHV307_Library/Example/libraries/sdk/Peripheral/ch32v30x_usbotg_device.c:690
                            break;
    38fe:	ac49                	j	3b90 <OTG_FS_IRQHandler+0x7fa>
E:/CODE/C/ch32v307/CHV307_Library/Example/libraries/sdk/Peripheral/ch32v30x_usbotg_device.c:644
                            else if( ( pMySetupReqPakHD->bRequestType & 0x1F ) == 0x02 )
    3900:	86418793          	addi	a5,gp,-1948 # 20000284 <EP0_DatabufHD>
    3904:	0007c783          	lbu	a5,0(a5)
    3908:	01f7f713          	andi	a4,a5,31
    390c:	4789                	li	a5,2
    390e:	10f71c63          	bne	a4,a5,3a26 <OTG_FS_IRQHandler+0x690>
E:/CODE/C/ch32v307/CHV307_Library/Example/libraries/sdk/Peripheral/ch32v30x_usbotg_device.c:647
                                if( pMySetupReqPakHD->wValue == 0x00 )
    3912:	86418793          	addi	a5,gp,-1948 # 20000284 <EP0_DatabufHD>
    3916:	0027c703          	lbu	a4,2(a5)
    391a:	0037c783          	lbu	a5,3(a5)
    391e:	07a2                	slli	a5,a5,0x8
    3920:	8fd9                	or	a5,a5,a4
    3922:	07c2                	slli	a5,a5,0x10
    3924:	83c1                	srli	a5,a5,0x10
    3926:	efe5                	bnez	a5,3a1e <OTG_FS_IRQHandler+0x688>
E:/CODE/C/ch32v307/CHV307_Library/Example/libraries/sdk/Peripheral/ch32v30x_usbotg_device.c:650
                                    switch( ( pMySetupReqPakHD->wIndex ) & 0xff )
    3928:	86418793          	addi	a5,gp,-1948 # 20000284 <EP0_DatabufHD>
    392c:	0047c703          	lbu	a4,4(a5)
    3930:	0057c783          	lbu	a5,5(a5)
    3934:	07a2                	slli	a5,a5,0x8
    3936:	8fd9                	or	a5,a5,a4
    3938:	07c2                	slli	a5,a5,0x10
    393a:	83c1                	srli	a5,a5,0x10
    393c:	0ff7f793          	andi	a5,a5,255
    3940:	4709                	li	a4,2
    3942:	04e78763          	beq	a5,a4,3990 <OTG_FS_IRQHandler+0x5fa>
    3946:	4709                	li	a4,2
    3948:	00f74663          	blt	a4,a5,3954 <OTG_FS_IRQHandler+0x5be>
    394c:	4705                	li	a4,1
    394e:	08e78d63          	beq	a5,a4,39e8 <OTG_FS_IRQHandler+0x652>
    3952:	a0c9                	j	3a14 <OTG_FS_IRQHandler+0x67e>
    3954:	08100713          	li	a4,129
    3958:	06e78263          	beq	a5,a4,39bc <OTG_FS_IRQHandler+0x626>
    395c:	08200713          	li	a4,130
    3960:	0ae79a63          	bne	a5,a4,3a14 <OTG_FS_IRQHandler+0x67e>
E:/CODE/C/ch32v307/CHV307_Library/Example/libraries/sdk/Peripheral/ch32v30x_usbotg_device.c:654
                                            USBOTG_FS->UEP2_TX_CTRL = ( USBOTG_FS->UEP2_TX_CTRL &= ~USBHD_UEP_T_RES_MASK ) | USBHD_UEP_T_RES_STALL;
    3964:	500007b7          	lui	a5,0x50000
    3968:	03a7c783          	lbu	a5,58(a5) # 5000003a <_eusrstack+0x2fff003a>
    396c:	0ff7f793          	andi	a5,a5,255
    3970:	50000737          	lui	a4,0x50000
    3974:	9bf1                	andi	a5,a5,-4
    3976:	0ff7f793          	andi	a5,a5,255
    397a:	02f70d23          	sb	a5,58(a4) # 5000003a <_eusrstack+0x2fff003a>
    397e:	50000737          	lui	a4,0x50000
    3982:	0037e793          	ori	a5,a5,3
    3986:	0ff7f793          	andi	a5,a5,255
    398a:	02f70d23          	sb	a5,58(a4) # 5000003a <_eusrstack+0x2fff003a>
E:/CODE/C/ch32v307/CHV307_Library/Example/libraries/sdk/Peripheral/ch32v30x_usbotg_device.c:656
                                            break;
    398e:	a045                	j	3a2e <OTG_FS_IRQHandler+0x698>
E:/CODE/C/ch32v307/CHV307_Library/Example/libraries/sdk/Peripheral/ch32v30x_usbotg_device.c:660
                                            USBOTG_FS->UEP2_RX_CTRL = ( USBOTG_FS->UEP2_RX_CTRL &= ~USBHD_UEP_R_RES_MASK ) | USBHD_UEP_R_RES_STALL;
    3990:	500007b7          	lui	a5,0x50000
    3994:	03b7c783          	lbu	a5,59(a5) # 5000003b <_eusrstack+0x2fff003b>
    3998:	0ff7f793          	andi	a5,a5,255
    399c:	50000737          	lui	a4,0x50000
    39a0:	9bf1                	andi	a5,a5,-4
    39a2:	0ff7f793          	andi	a5,a5,255
    39a6:	02f70da3          	sb	a5,59(a4) # 5000003b <_eusrstack+0x2fff003b>
    39aa:	50000737          	lui	a4,0x50000
    39ae:	0037e793          	ori	a5,a5,3
    39b2:	0ff7f793          	andi	a5,a5,255
    39b6:	02f70da3          	sb	a5,59(a4) # 5000003b <_eusrstack+0x2fff003b>
E:/CODE/C/ch32v307/CHV307_Library/Example/libraries/sdk/Peripheral/ch32v30x_usbotg_device.c:662
                                            break;
    39ba:	a895                	j	3a2e <OTG_FS_IRQHandler+0x698>
E:/CODE/C/ch32v307/CHV307_Library/Example/libraries/sdk/Peripheral/ch32v30x_usbotg_device.c:666
                                            USBOTG_FS->UEP1_TX_CTRL = ( USBOTG_FS->UEP1_TX_CTRL &= ~USBHD_UEP_T_RES_MASK ) | USBHD_UEP_T_RES_STALL;
    39bc:	500007b7          	lui	a5,0x50000
    39c0:	0367c783          	lbu	a5,54(a5) # 50000036 <_eusrstack+0x2fff0036>
    39c4:	0ff7f793          	andi	a5,a5,255
    39c8:	50000737          	lui	a4,0x50000
    39cc:	9bf1                	andi	a5,a5,-4
    39ce:	0ff7f793          	andi	a5,a5,255
    39d2:	02f70b23          	sb	a5,54(a4) # 50000036 <_eusrstack+0x2fff0036>
    39d6:	50000737          	lui	a4,0x50000
    39da:	0037e793          	ori	a5,a5,3
    39de:	0ff7f793          	andi	a5,a5,255
    39e2:	02f70b23          	sb	a5,54(a4) # 50000036 <_eusrstack+0x2fff0036>
E:/CODE/C/ch32v307/CHV307_Library/Example/libraries/sdk/Peripheral/ch32v30x_usbotg_device.c:668
                                            break;
    39e6:	a0a1                	j	3a2e <OTG_FS_IRQHandler+0x698>
E:/CODE/C/ch32v307/CHV307_Library/Example/libraries/sdk/Peripheral/ch32v30x_usbotg_device.c:672
                                            USBOTG_FS->UEP1_RX_CTRL = ( USBOTG_FS->UEP1_RX_CTRL &= ~USBHD_UEP_R_RES_MASK ) | USBHD_UEP_R_RES_STALL;
    39e8:	500007b7          	lui	a5,0x50000
    39ec:	0377c783          	lbu	a5,55(a5) # 50000037 <_eusrstack+0x2fff0037>
    39f0:	0ff7f793          	andi	a5,a5,255
    39f4:	50000737          	lui	a4,0x50000
    39f8:	9bf1                	andi	a5,a5,-4
    39fa:	0ff7f793          	andi	a5,a5,255
    39fe:	02f70ba3          	sb	a5,55(a4) # 50000037 <_eusrstack+0x2fff0037>
    3a02:	50000737          	lui	a4,0x50000
    3a06:	0037e793          	ori	a5,a5,3
    3a0a:	0ff7f793          	andi	a5,a5,255
    3a0e:	02f70ba3          	sb	a5,55(a4) # 50000037 <_eusrstack+0x2fff0037>
E:/CODE/C/ch32v307/CHV307_Library/Example/libraries/sdk/Peripheral/ch32v30x_usbotg_device.c:674
                                            break;
    3a12:	a831                	j	3a2e <OTG_FS_IRQHandler+0x698>
E:/CODE/C/ch32v307/CHV307_Library/Example/libraries/sdk/Peripheral/ch32v30x_usbotg_device.c:677
                                            errflag = 0xFF;
    3a14:	57fd                	li	a5,-1
    3a16:	fef40723          	sb	a5,-18(s0)
E:/CODE/C/ch32v307/CHV307_Library/Example/libraries/sdk/Peripheral/ch32v30x_usbotg_device.c:678
                                            break;
    3a1a:	0001                	nop
    3a1c:	a809                	j	3a2e <OTG_FS_IRQHandler+0x698>
E:/CODE/C/ch32v307/CHV307_Library/Example/libraries/sdk/Peripheral/ch32v30x_usbotg_device.c:683
                                    errflag = 0xFF;
    3a1e:	57fd                	li	a5,-1
    3a20:	fef40723          	sb	a5,-18(s0)
E:/CODE/C/ch32v307/CHV307_Library/Example/libraries/sdk/Peripheral/ch32v30x_usbotg_device.c:690
                            break;
    3a24:	a2b5                	j	3b90 <OTG_FS_IRQHandler+0x7fa>
E:/CODE/C/ch32v307/CHV307_Library/Example/libraries/sdk/Peripheral/ch32v30x_usbotg_device.c:688
                                errflag = 0xFF;
    3a26:	57fd                	li	a5,-1
    3a28:	fef40723          	sb	a5,-18(s0)
E:/CODE/C/ch32v307/CHV307_Library/Example/libraries/sdk/Peripheral/ch32v30x_usbotg_device.c:690
                            break;
    3a2c:	a295                	j	3b90 <OTG_FS_IRQHandler+0x7fa>
E:/CODE/C/ch32v307/CHV307_Library/Example/libraries/sdk/Peripheral/ch32v30x_usbotg_device.c:690 (discriminator 4)
    3a2e:	a28d                	j	3b90 <OTG_FS_IRQHandler+0x7fa>
E:/CODE/C/ch32v307/CHV307_Library/Example/libraries/sdk/Peripheral/ch32v30x_usbotg_device.c:694
                            pEP0_DataBuf[0] = 0x00;
    3a30:	86c1a783          	lw	a5,-1940(gp) # 2000028c <pEP0_RAM_Addr>
    3a34:	00078023          	sb	zero,0(a5)
E:/CODE/C/ch32v307/CHV307_Library/Example/libraries/sdk/Peripheral/ch32v30x_usbotg_device.c:695
                            if ( SetupReqLen > 1 ) SetupReqLen = 1;
    3a38:	8821d783          	lhu	a5,-1918(gp) # 200002a2 <SetupReqLen>
    3a3c:	01079713          	slli	a4,a5,0x10
    3a40:	8341                	srli	a4,a4,0x10
    3a42:	4785                	li	a5,1
    3a44:	14e7f163          	bgeu	a5,a4,3b86 <OTG_FS_IRQHandler+0x7f0>
E:/CODE/C/ch32v307/CHV307_Library/Example/libraries/sdk/Peripheral/ch32v30x_usbotg_device.c:695 (discriminator 1)
    3a48:	4705                	li	a4,1
    3a4a:	88e19123          	sh	a4,-1918(gp) # 200002a2 <SetupReqLen>
E:/CODE/C/ch32v307/CHV307_Library/Example/libraries/sdk/Peripheral/ch32v30x_usbotg_device.c:696 (discriminator 1)
                            break;
    3a4e:	aa25                	j	3b86 <OTG_FS_IRQHandler+0x7f0>
E:/CODE/C/ch32v307/CHV307_Library/Example/libraries/sdk/Peripheral/ch32v30x_usbotg_device.c:700
                            EP0_DatabufHD[ 0 ] = 0x00;
    3a50:	86018223          	sb	zero,-1948(gp) # 20000284 <EP0_DatabufHD>
E:/CODE/C/ch32v307/CHV307_Library/Example/libraries/sdk/Peripheral/ch32v30x_usbotg_device.c:701
                            if( USBHD_Dev_SetupReqLen > 1 )
    3a54:	87c1d783          	lhu	a5,-1924(gp) # 2000029c <USBHD_Dev_SetupReqLen>
    3a58:	01079713          	slli	a4,a5,0x10
    3a5c:	8341                	srli	a4,a4,0x10
    3a5e:	4785                	li	a5,1
    3a60:	12e7f563          	bgeu	a5,a4,3b8a <OTG_FS_IRQHandler+0x7f4>
E:/CODE/C/ch32v307/CHV307_Library/Example/libraries/sdk/Peripheral/ch32v30x_usbotg_device.c:703
                                USBHD_Dev_SetupReqLen = 1;
    3a64:	4705                	li	a4,1
    3a66:	86e19e23          	sh	a4,-1924(gp) # 2000029c <USBHD_Dev_SetupReqLen>
E:/CODE/C/ch32v307/CHV307_Library/Example/libraries/sdk/Peripheral/ch32v30x_usbotg_device.c:705
                            break;
    3a6a:	a205                	j	3b8a <OTG_FS_IRQHandler+0x7f4>
E:/CODE/C/ch32v307/CHV307_Library/Example/libraries/sdk/Peripheral/ch32v30x_usbotg_device.c:709
                            EP0_DatabufHD[ 0 ] = 0x00;
    3a6c:	86018223          	sb	zero,-1948(gp) # 20000284 <EP0_DatabufHD>
E:/CODE/C/ch32v307/CHV307_Library/Example/libraries/sdk/Peripheral/ch32v30x_usbotg_device.c:710
                            EP0_DatabufHD[ 1 ] = 0x00;
    3a70:	86418793          	addi	a5,gp,-1948 # 20000284 <EP0_DatabufHD>
    3a74:	000780a3          	sb	zero,1(a5)
E:/CODE/C/ch32v307/CHV307_Library/Example/libraries/sdk/Peripheral/ch32v30x_usbotg_device.c:711
                            if( pMySetupReqPakHD->wIndex == 0x81 )
    3a78:	86418793          	addi	a5,gp,-1948 # 20000284 <EP0_DatabufHD>
    3a7c:	0047c703          	lbu	a4,4(a5)
    3a80:	0057c783          	lbu	a5,5(a5)
    3a84:	07a2                	slli	a5,a5,0x8
    3a86:	8fd9                	or	a5,a5,a4
    3a88:	01079713          	slli	a4,a5,0x10
    3a8c:	8341                	srli	a4,a4,0x10
    3a8e:	08100793          	li	a5,129
    3a92:	02f71163          	bne	a4,a5,3ab4 <OTG_FS_IRQHandler+0x71e>
E:/CODE/C/ch32v307/CHV307_Library/Example/libraries/sdk/Peripheral/ch32v30x_usbotg_device.c:713
                                if( ( USBOTG_FS->UEP1_TX_CTRL & USBHD_UEP_T_RES_MASK ) == USBHD_UEP_T_RES_STALL )
    3a96:	500007b7          	lui	a5,0x50000
    3a9a:	0367c783          	lbu	a5,54(a5) # 50000036 <_eusrstack+0x2fff0036>
    3a9e:	0ff7f793          	andi	a5,a5,255
    3aa2:	0037f713          	andi	a4,a5,3
    3aa6:	478d                	li	a5,3
    3aa8:	0af71d63          	bne	a4,a5,3b62 <OTG_FS_IRQHandler+0x7cc>
E:/CODE/C/ch32v307/CHV307_Library/Example/libraries/sdk/Peripheral/ch32v30x_usbotg_device.c:715
                                    EP0_DatabufHD[ 0 ] = 0x01;
    3aac:	4705                	li	a4,1
    3aae:	86e18223          	sb	a4,-1948(gp) # 20000284 <EP0_DatabufHD>
    3ab2:	a845                	j	3b62 <OTG_FS_IRQHandler+0x7cc>
E:/CODE/C/ch32v307/CHV307_Library/Example/libraries/sdk/Peripheral/ch32v30x_usbotg_device.c:718
                            else if( pMySetupReqPakHD->wIndex == 0x01 )
    3ab4:	86418793          	addi	a5,gp,-1948 # 20000284 <EP0_DatabufHD>
    3ab8:	0047c703          	lbu	a4,4(a5)
    3abc:	0057c783          	lbu	a5,5(a5)
    3ac0:	07a2                	slli	a5,a5,0x8
    3ac2:	8fd9                	or	a5,a5,a4
    3ac4:	01079713          	slli	a4,a5,0x10
    3ac8:	8341                	srli	a4,a4,0x10
    3aca:	4785                	li	a5,1
    3acc:	02f71163          	bne	a4,a5,3aee <OTG_FS_IRQHandler+0x758>
E:/CODE/C/ch32v307/CHV307_Library/Example/libraries/sdk/Peripheral/ch32v30x_usbotg_device.c:720
                                if( ( USBOTG_FS->UEP1_RX_CTRL & USBHD_UEP_R_RES_MASK ) == USBHD_UEP_R_RES_STALL )
    3ad0:	500007b7          	lui	a5,0x50000
    3ad4:	0377c783          	lbu	a5,55(a5) # 50000037 <_eusrstack+0x2fff0037>
    3ad8:	0ff7f793          	andi	a5,a5,255
    3adc:	0037f713          	andi	a4,a5,3
    3ae0:	478d                	li	a5,3
    3ae2:	08f71063          	bne	a4,a5,3b62 <OTG_FS_IRQHandler+0x7cc>
E:/CODE/C/ch32v307/CHV307_Library/Example/libraries/sdk/Peripheral/ch32v30x_usbotg_device.c:722
                                    EP0_DatabufHD[ 0 ] = 0x01;
    3ae6:	4705                	li	a4,1
    3ae8:	86e18223          	sb	a4,-1948(gp) # 20000284 <EP0_DatabufHD>
    3aec:	a89d                	j	3b62 <OTG_FS_IRQHandler+0x7cc>
E:/CODE/C/ch32v307/CHV307_Library/Example/libraries/sdk/Peripheral/ch32v30x_usbotg_device.c:725
                            else if( pMySetupReqPakHD->wIndex == 0x82 )
    3aee:	86418793          	addi	a5,gp,-1948 # 20000284 <EP0_DatabufHD>
    3af2:	0047c703          	lbu	a4,4(a5)
    3af6:	0057c783          	lbu	a5,5(a5)
    3afa:	07a2                	slli	a5,a5,0x8
    3afc:	8fd9                	or	a5,a5,a4
    3afe:	01079713          	slli	a4,a5,0x10
    3b02:	8341                	srli	a4,a4,0x10
    3b04:	08200793          	li	a5,130
    3b08:	02f71163          	bne	a4,a5,3b2a <OTG_FS_IRQHandler+0x794>
E:/CODE/C/ch32v307/CHV307_Library/Example/libraries/sdk/Peripheral/ch32v30x_usbotg_device.c:727
                                if( ( USBOTG_FS->UEP2_TX_CTRL & USBHD_UEP_T_RES_MASK ) == USBHD_UEP_T_RES_STALL )
    3b0c:	500007b7          	lui	a5,0x50000
    3b10:	03a7c783          	lbu	a5,58(a5) # 5000003a <_eusrstack+0x2fff003a>
    3b14:	0ff7f793          	andi	a5,a5,255
    3b18:	0037f713          	andi	a4,a5,3
    3b1c:	478d                	li	a5,3
    3b1e:	04f71263          	bne	a4,a5,3b62 <OTG_FS_IRQHandler+0x7cc>
E:/CODE/C/ch32v307/CHV307_Library/Example/libraries/sdk/Peripheral/ch32v30x_usbotg_device.c:729
                                    EP0_DatabufHD[ 0 ] = 0x01;
    3b22:	4705                	li	a4,1
    3b24:	86e18223          	sb	a4,-1948(gp) # 20000284 <EP0_DatabufHD>
    3b28:	a82d                	j	3b62 <OTG_FS_IRQHandler+0x7cc>
E:/CODE/C/ch32v307/CHV307_Library/Example/libraries/sdk/Peripheral/ch32v30x_usbotg_device.c:732
                            else if( pMySetupReqPakHD->wIndex == 0x02 )
    3b2a:	86418793          	addi	a5,gp,-1948 # 20000284 <EP0_DatabufHD>
    3b2e:	0047c703          	lbu	a4,4(a5)
    3b32:	0057c783          	lbu	a5,5(a5)
    3b36:	07a2                	slli	a5,a5,0x8
    3b38:	8fd9                	or	a5,a5,a4
    3b3a:	01079713          	slli	a4,a5,0x10
    3b3e:	8341                	srli	a4,a4,0x10
    3b40:	4789                	li	a5,2
    3b42:	02f71063          	bne	a4,a5,3b62 <OTG_FS_IRQHandler+0x7cc>
E:/CODE/C/ch32v307/CHV307_Library/Example/libraries/sdk/Peripheral/ch32v30x_usbotg_device.c:734
                                if( ( USBOTG_FS->UEP2_RX_CTRL & USBHD_UEP_R_RES_MASK ) == USBHD_UEP_R_RES_STALL )
    3b46:	500007b7          	lui	a5,0x50000
    3b4a:	03b7c783          	lbu	a5,59(a5) # 5000003b <_eusrstack+0x2fff003b>
    3b4e:	0ff7f793          	andi	a5,a5,255
    3b52:	0037f713          	andi	a4,a5,3
    3b56:	478d                	li	a5,3
    3b58:	00f71563          	bne	a4,a5,3b62 <OTG_FS_IRQHandler+0x7cc>
E:/CODE/C/ch32v307/CHV307_Library/Example/libraries/sdk/Peripheral/ch32v30x_usbotg_device.c:736
                                    EP0_DatabufHD[ 0 ] = 0x01;
    3b5c:	4705                	li	a4,1
    3b5e:	86e18223          	sb	a4,-1948(gp) # 20000284 <EP0_DatabufHD>
E:/CODE/C/ch32v307/CHV307_Library/Example/libraries/sdk/Peripheral/ch32v30x_usbotg_device.c:739
                            if( USBHD_Dev_SetupReqLen > 2 )
    3b62:	87c1d783          	lhu	a5,-1924(gp) # 2000029c <USBHD_Dev_SetupReqLen>
    3b66:	01079713          	slli	a4,a5,0x10
    3b6a:	8341                	srli	a4,a4,0x10
    3b6c:	4789                	li	a5,2
    3b6e:	02e7f063          	bgeu	a5,a4,3b8e <OTG_FS_IRQHandler+0x7f8>
E:/CODE/C/ch32v307/CHV307_Library/Example/libraries/sdk/Peripheral/ch32v30x_usbotg_device.c:741
                                USBHD_Dev_SetupReqLen = 2;
    3b72:	4709                	li	a4,2
    3b74:	86e19e23          	sh	a4,-1924(gp) # 2000029c <USBHD_Dev_SetupReqLen>
E:/CODE/C/ch32v307/CHV307_Library/Example/libraries/sdk/Peripheral/ch32v30x_usbotg_device.c:743
                            break;
    3b78:	a819                	j	3b8e <OTG_FS_IRQHandler+0x7f8>
E:/CODE/C/ch32v307/CHV307_Library/Example/libraries/sdk/Peripheral/ch32v30x_usbotg_device.c:746
                            errflag = 0xFF;
    3b7a:	57fd                	li	a5,-1
    3b7c:	fef40723          	sb	a5,-18(s0)
E:/CODE/C/ch32v307/CHV307_Library/Example/libraries/sdk/Peripheral/ch32v30x_usbotg_device.c:747
                            break;
    3b80:	a801                	j	3b90 <OTG_FS_IRQHandler+0x7fa>
E:/CODE/C/ch32v307/CHV307_Library/Example/libraries/sdk/Peripheral/ch32v30x_usbotg_device.c:583
                            break;
    3b82:	0001                	nop
    3b84:	a031                	j	3b90 <OTG_FS_IRQHandler+0x7fa>
E:/CODE/C/ch32v307/CHV307_Library/Example/libraries/sdk/Peripheral/ch32v30x_usbotg_device.c:696
                            break;
    3b86:	0001                	nop
    3b88:	a021                	j	3b90 <OTG_FS_IRQHandler+0x7fa>
E:/CODE/C/ch32v307/CHV307_Library/Example/libraries/sdk/Peripheral/ch32v30x_usbotg_device.c:705
                            break;
    3b8a:	0001                	nop
    3b8c:	a011                	j	3b90 <OTG_FS_IRQHandler+0x7fa>
E:/CODE/C/ch32v307/CHV307_Library/Example/libraries/sdk/Peripheral/ch32v30x_usbotg_device.c:743
                            break;
    3b8e:	0001                	nop
E:/CODE/C/ch32v307/CHV307_Library/Example/libraries/sdk/Peripheral/ch32v30x_usbotg_device.c:750
                if( errflag == 0xff)
    3b90:	fee44703          	lbu	a4,-18(s0)
    3b94:	0ff00793          	li	a5,255
    3b98:	00f71d63          	bne	a4,a5,3bb2 <OTG_FS_IRQHandler+0x81c>
E:/CODE/C/ch32v307/CHV307_Library/Example/libraries/sdk/Peripheral/ch32v30x_usbotg_device.c:753
                    USBOTG_FS->UEP0_TX_CTRL = USBHD_UEP_T_TOG|USBHD_UEP_T_RES_STALL;
    3b9c:	500007b7          	lui	a5,0x50000
    3ba0:	471d                	li	a4,7
    3ba2:	02e78923          	sb	a4,50(a5) # 50000032 <_eusrstack+0x2fff0032>
E:/CODE/C/ch32v307/CHV307_Library/Example/libraries/sdk/Peripheral/ch32v30x_usbotg_device.c:754
                    USBOTG_FS->UEP0_RX_CTRL = USBHD_UEP_R_TOG|USBHD_UEP_R_RES_STALL;
    3ba6:	500007b7          	lui	a5,0x50000
    3baa:	471d                	li	a4,7
    3bac:	02e789a3          	sb	a4,51(a5) # 50000033 <_eusrstack+0x2fff0033>
E:/CODE/C/ch32v307/CHV307_Library/Example/libraries/sdk/Peripheral/ch32v30x_usbotg_device.c:769
                break;
    3bb0:	ae65                	j	3f68 <OTG_FS_IRQHandler+0xbd2>
E:/CODE/C/ch32v307/CHV307_Library/Example/libraries/sdk/Peripheral/ch32v30x_usbotg_device.c:758
                    if( chtype & 0x80 )
    3bb2:	fec40783          	lb	a5,-20(s0)
    3bb6:	0407d563          	bgez	a5,3c00 <OTG_FS_IRQHandler+0x86a>
E:/CODE/C/ch32v307/CHV307_Library/Example/libraries/sdk/Peripheral/ch32v30x_usbotg_device.c:760
                        len = (SetupReqLen>DevEP0SIZE) ? DevEP0SIZE : SetupReqLen;
    3bba:	8821d783          	lhu	a5,-1918(gp) # 200002a2 <SetupReqLen>
    3bbe:	01079713          	slli	a4,a5,0x10
    3bc2:	8341                	srli	a4,a4,0x10
    3bc4:	47a1                	li	a5,8
    3bc6:	00e7e963          	bltu	a5,a4,3bd8 <OTG_FS_IRQHandler+0x842>
E:/CODE/C/ch32v307/CHV307_Library/Example/libraries/sdk/Peripheral/ch32v30x_usbotg_device.c:760 (discriminator 1)
    3bca:	8821d783          	lhu	a5,-1918(gp) # 200002a2 <SetupReqLen>
    3bce:	07c2                	slli	a5,a5,0x10
    3bd0:	83c1                	srli	a5,a5,0x10
    3bd2:	0ff7f793          	andi	a5,a5,255
    3bd6:	a011                	j	3bda <OTG_FS_IRQHandler+0x844>
E:/CODE/C/ch32v307/CHV307_Library/Example/libraries/sdk/Peripheral/ch32v30x_usbotg_device.c:760 (discriminator 2)
    3bd8:	47a1                	li	a5,8
E:/CODE/C/ch32v307/CHV307_Library/Example/libraries/sdk/Peripheral/ch32v30x_usbotg_device.c:760 (discriminator 4)
    3bda:	fef407a3          	sb	a5,-17(s0)
E:/CODE/C/ch32v307/CHV307_Library/Example/libraries/sdk/Peripheral/ch32v30x_usbotg_device.c:761 (discriminator 4)
                        SetupReqLen -= len;
    3bde:	8821d783          	lhu	a5,-1918(gp) # 200002a2 <SetupReqLen>
    3be2:	01079713          	slli	a4,a5,0x10
    3be6:	8341                	srli	a4,a4,0x10
    3be8:	fef44783          	lbu	a5,-17(s0)
    3bec:	07c2                	slli	a5,a5,0x10
    3bee:	83c1                	srli	a5,a5,0x10
    3bf0:	40f707b3          	sub	a5,a4,a5
    3bf4:	01079713          	slli	a4,a5,0x10
    3bf8:	8341                	srli	a4,a4,0x10
    3bfa:	88e19123          	sh	a4,-1918(gp) # 200002a2 <SetupReqLen>
    3bfe:	a019                	j	3c04 <OTG_FS_IRQHandler+0x86e>
E:/CODE/C/ch32v307/CHV307_Library/Example/libraries/sdk/Peripheral/ch32v30x_usbotg_device.c:763
                    else  len = 0;
    3c00:	fe0407a3          	sb	zero,-17(s0)
E:/CODE/C/ch32v307/CHV307_Library/Example/libraries/sdk/Peripheral/ch32v30x_usbotg_device.c:765
                    USBOTG_FS->UEP0_TX_LEN  = len;
    3c04:	500007b7          	lui	a5,0x50000
    3c08:	fef44703          	lbu	a4,-17(s0)
    3c0c:	0742                	slli	a4,a4,0x10
    3c0e:	8341                	srli	a4,a4,0x10
    3c10:	02e79823          	sh	a4,48(a5) # 50000030 <_eusrstack+0x2fff0030>
E:/CODE/C/ch32v307/CHV307_Library/Example/libraries/sdk/Peripheral/ch32v30x_usbotg_device.c:766
                    USBOTG_FS->UEP0_TX_CTRL = USBHD_UEP_T_TOG|USBHD_UEP_T_RES_ACK;
    3c14:	500007b7          	lui	a5,0x50000
    3c18:	4711                	li	a4,4
    3c1a:	02e78923          	sb	a4,50(a5) # 50000032 <_eusrstack+0x2fff0032>
E:/CODE/C/ch32v307/CHV307_Library/Example/libraries/sdk/Peripheral/ch32v30x_usbotg_device.c:767
                    USBOTG_FS->UEP0_RX_CTRL = USBHD_UEP_R_TOG|USBHD_UEP_R_RES_ACK;
    3c1e:	500007b7          	lui	a5,0x50000
    3c22:	4711                	li	a4,4
    3c24:	02e789a3          	sb	a4,51(a5) # 50000033 <_eusrstack+0x2fff0033>
E:/CODE/C/ch32v307/CHV307_Library/Example/libraries/sdk/Peripheral/ch32v30x_usbotg_device.c:769
                break;
    3c28:	a681                	j	3f68 <OTG_FS_IRQHandler+0xbd2>
E:/CODE/C/ch32v307/CHV307_Library/Example/libraries/sdk/Peripheral/ch32v30x_usbotg_device.c:772
                switch ( USBOTG_FS->INT_ST & ( USBHD_UIS_TOKEN_MASK | USBHD_UIS_ENDP_MASK ) )
    3c2a:	500007b7          	lui	a5,0x50000
    3c2e:	0077c783          	lbu	a5,7(a5) # 50000007 <_eusrstack+0x2fff0007>
    3c32:	0ff7f793          	andi	a5,a5,255
    3c36:	03f7f793          	andi	a5,a5,63
    3c3a:	02100713          	li	a4,33
    3c3e:	12e78563          	beq	a5,a4,3d68 <OTG_FS_IRQHandler+0x9d2>
    3c42:	02200713          	li	a4,34
    3c46:	14e78d63          	beq	a5,a4,3da0 <OTG_FS_IRQHandler+0xa0a>
    3c4a:	02000713          	li	a4,32
    3c4e:	18e79e63          	bne	a5,a4,3dea <OTG_FS_IRQHandler+0xa54>
E:/CODE/C/ch32v307/CHV307_Library/Example/libraries/sdk/Peripheral/ch32v30x_usbotg_device.c:775 (discriminator 6)
                        switch( SetupReqCode )
    3c52:	8801c783          	lbu	a5,-1920(gp) # 200002a0 <SetupReqCode>
    3c56:	0ff7f793          	andi	a5,a5,255
    3c5a:	4715                	li	a4,5
    3c5c:	0ae78063          	beq	a5,a4,3cfc <OTG_FS_IRQHandler+0x966>
    3c60:	4719                	li	a4,6
    3c62:	0ee79463          	bne	a5,a4,3d4a <OTG_FS_IRQHandler+0x9b4>
E:/CODE/C/ch32v307/CHV307_Library/Example/libraries/sdk/Peripheral/ch32v30x_usbotg_device.c:778
                                    len = SetupReqLen >= DevEP0SIZE ? DevEP0SIZE : SetupReqLen;
    3c66:	8821d783          	lhu	a5,-1918(gp) # 200002a2 <SetupReqLen>
    3c6a:	01079713          	slli	a4,a5,0x10
    3c6e:	8341                	srli	a4,a4,0x10
    3c70:	479d                	li	a5,7
    3c72:	00e7e963          	bltu	a5,a4,3c84 <OTG_FS_IRQHandler+0x8ee>
E:/CODE/C/ch32v307/CHV307_Library/Example/libraries/sdk/Peripheral/ch32v30x_usbotg_device.c:778 (discriminator 1)
    3c76:	8821d783          	lhu	a5,-1918(gp) # 200002a2 <SetupReqLen>
    3c7a:	07c2                	slli	a5,a5,0x10
    3c7c:	83c1                	srli	a5,a5,0x10
    3c7e:	0ff7f793          	andi	a5,a5,255
    3c82:	a011                	j	3c86 <OTG_FS_IRQHandler+0x8f0>
E:/CODE/C/ch32v307/CHV307_Library/Example/libraries/sdk/Peripheral/ch32v30x_usbotg_device.c:778 (discriminator 2)
    3c84:	47a1                	li	a5,8
E:/CODE/C/ch32v307/CHV307_Library/Example/libraries/sdk/Peripheral/ch32v30x_usbotg_device.c:778 (discriminator 4)
    3c86:	fef407a3          	sb	a5,-17(s0)
E:/CODE/C/ch32v307/CHV307_Library/Example/libraries/sdk/Peripheral/ch32v30x_usbotg_device.c:779 (discriminator 4)
                                    memcpy( pEP0_DataBuf, pDescr, len );
    3c8a:	86c1a703          	lw	a4,-1940(gp) # 2000028c <pEP0_RAM_Addr>
    3c8e:	8781a783          	lw	a5,-1928(gp) # 20000298 <pDescr>
    3c92:	fef44683          	lbu	a3,-17(s0)
    3c96:	8636                	mv	a2,a3
    3c98:	85be                	mv	a1,a5
    3c9a:	853a                	mv	a0,a4
    3c9c:	761010ef          	jal	ra,5bfc <memcpy>
E:/CODE/C/ch32v307/CHV307_Library/Example/libraries/sdk/Peripheral/ch32v30x_usbotg_device.c:780 (discriminator 4)
                                    SetupReqLen -= len;
    3ca0:	8821d783          	lhu	a5,-1918(gp) # 200002a2 <SetupReqLen>
    3ca4:	01079713          	slli	a4,a5,0x10
    3ca8:	8341                	srli	a4,a4,0x10
    3caa:	fef44783          	lbu	a5,-17(s0)
    3cae:	07c2                	slli	a5,a5,0x10
    3cb0:	83c1                	srli	a5,a5,0x10
    3cb2:	40f707b3          	sub	a5,a4,a5
    3cb6:	01079713          	slli	a4,a5,0x10
    3cba:	8341                	srli	a4,a4,0x10
    3cbc:	88e19123          	sh	a4,-1918(gp) # 200002a2 <SetupReqLen>
E:/CODE/C/ch32v307/CHV307_Library/Example/libraries/sdk/Peripheral/ch32v30x_usbotg_device.c:781 (discriminator 4)
                                    pDescr += len;
    3cc0:	8781a703          	lw	a4,-1928(gp) # 20000298 <pDescr>
    3cc4:	fef44783          	lbu	a5,-17(s0)
    3cc8:	973e                	add	a4,a4,a5
    3cca:	86e1ac23          	sw	a4,-1928(gp) # 20000298 <pDescr>
E:/CODE/C/ch32v307/CHV307_Library/Example/libraries/sdk/Peripheral/ch32v30x_usbotg_device.c:782 (discriminator 4)
                                    USBOTG_FS->UEP0_TX_LEN   = len;
    3cce:	500007b7          	lui	a5,0x50000
    3cd2:	fef44703          	lbu	a4,-17(s0)
    3cd6:	0742                	slli	a4,a4,0x10
    3cd8:	8341                	srli	a4,a4,0x10
    3cda:	02e79823          	sh	a4,48(a5) # 50000030 <_eusrstack+0x2fff0030>
E:/CODE/C/ch32v307/CHV307_Library/Example/libraries/sdk/Peripheral/ch32v30x_usbotg_device.c:783 (discriminator 4)
                                    USBOTG_FS->UEP0_TX_CTRL ^= USBHD_UEP_T_TOG;
    3cde:	500007b7          	lui	a5,0x50000
    3ce2:	0327c783          	lbu	a5,50(a5) # 50000032 <_eusrstack+0x2fff0032>
    3ce6:	0ff7f713          	andi	a4,a5,255
    3cea:	500007b7          	lui	a5,0x50000
    3cee:	00474713          	xori	a4,a4,4
    3cf2:	0ff77713          	andi	a4,a4,255
    3cf6:	02e78923          	sb	a4,50(a5) # 50000032 <_eusrstack+0x2fff0032>
E:/CODE/C/ch32v307/CHV307_Library/Example/libraries/sdk/Peripheral/ch32v30x_usbotg_device.c:784 (discriminator 4)
                                    break;
    3cfa:	a0b5                	j	3d66 <OTG_FS_IRQHandler+0x9d0>
E:/CODE/C/ch32v307/CHV307_Library/Example/libraries/sdk/Peripheral/ch32v30x_usbotg_device.c:787
                                    USBOTG_FS->DEV_ADDR = (USBOTG_FS->DEV_ADDR&USBHD_UDA_GP_BIT) | SetupReqLen;
    3cfc:	500007b7          	lui	a5,0x50000
    3d00:	0037c783          	lbu	a5,3(a5) # 50000003 <_eusrstack+0x2fff0003>
    3d04:	0ff7f793          	andi	a5,a5,255
    3d08:	07e2                	slli	a5,a5,0x18
    3d0a:	87e1                	srai	a5,a5,0x18
    3d0c:	f807f793          	andi	a5,a5,-128
    3d10:	01879713          	slli	a4,a5,0x18
    3d14:	8761                	srai	a4,a4,0x18
    3d16:	8821d783          	lhu	a5,-1918(gp) # 200002a2 <SetupReqLen>
    3d1a:	07c2                	slli	a5,a5,0x10
    3d1c:	83c1                	srli	a5,a5,0x10
    3d1e:	07e2                	slli	a5,a5,0x18
    3d20:	87e1                	srai	a5,a5,0x18
    3d22:	8fd9                	or	a5,a5,a4
    3d24:	01879713          	slli	a4,a5,0x18
    3d28:	8761                	srai	a4,a4,0x18
    3d2a:	500007b7          	lui	a5,0x50000
    3d2e:	0ff77713          	andi	a4,a4,255
    3d32:	00e781a3          	sb	a4,3(a5) # 50000003 <_eusrstack+0x2fff0003>
E:/CODE/C/ch32v307/CHV307_Library/Example/libraries/sdk/Peripheral/ch32v30x_usbotg_device.c:788
                                    USBOTG_FS->UEP0_TX_CTRL = USBHD_UEP_T_RES_NAK;
    3d36:	500007b7          	lui	a5,0x50000
    3d3a:	4709                	li	a4,2
    3d3c:	02e78923          	sb	a4,50(a5) # 50000032 <_eusrstack+0x2fff0032>
E:/CODE/C/ch32v307/CHV307_Library/Example/libraries/sdk/Peripheral/ch32v30x_usbotg_device.c:789
                                    USBOTG_FS->UEP0_RX_CTRL = USBHD_UEP_R_RES_ACK;
    3d40:	500007b7          	lui	a5,0x50000
    3d44:	020789a3          	sb	zero,51(a5) # 50000033 <_eusrstack+0x2fff0033>
E:/CODE/C/ch32v307/CHV307_Library/Example/libraries/sdk/Peripheral/ch32v30x_usbotg_device.c:790
                                    break;
    3d48:	a839                	j	3d66 <OTG_FS_IRQHandler+0x9d0>
E:/CODE/C/ch32v307/CHV307_Library/Example/libraries/sdk/Peripheral/ch32v30x_usbotg_device.c:793
                                    USBOTG_FS->UEP0_TX_LEN = 0;
    3d4a:	500007b7          	lui	a5,0x50000
    3d4e:	02079823          	sh	zero,48(a5) # 50000030 <_eusrstack+0x2fff0030>
E:/CODE/C/ch32v307/CHV307_Library/Example/libraries/sdk/Peripheral/ch32v30x_usbotg_device.c:794
                                    USBOTG_FS->UEP0_TX_CTRL = USBHD_UEP_T_RES_NAK;
    3d52:	500007b7          	lui	a5,0x50000
    3d56:	4709                	li	a4,2
    3d58:	02e78923          	sb	a4,50(a5) # 50000032 <_eusrstack+0x2fff0032>
E:/CODE/C/ch32v307/CHV307_Library/Example/libraries/sdk/Peripheral/ch32v30x_usbotg_device.c:795
                                    USBOTG_FS->UEP0_RX_CTRL = USBHD_UEP_R_RES_ACK;
    3d5c:	500007b7          	lui	a5,0x50000
    3d60:	020789a3          	sb	zero,51(a5) # 50000033 <_eusrstack+0x2fff0033>
E:/CODE/C/ch32v307/CHV307_Library/Example/libraries/sdk/Peripheral/ch32v30x_usbotg_device.c:796
                                    break;
    3d64:	0001                	nop
E:/CODE/C/ch32v307/CHV307_Library/Example/libraries/sdk/Peripheral/ch32v30x_usbotg_device.c:799
                        break;
    3d66:	a059                	j	3dec <OTG_FS_IRQHandler+0xa56>
E:/CODE/C/ch32v307/CHV307_Library/Example/libraries/sdk/Peripheral/ch32v30x_usbotg_device.c:802
                    USBOTG_FS->UEP1_TX_CTRL  = (USBHD_UEP1_TX_CTRL & ~USBHD_UEP_T_RES_MASK) | USBHD_UEP_T_RES_ACK;
    3d68:	500007b7          	lui	a5,0x50000
    3d6c:	0367c783          	lbu	a5,54(a5) # 50000036 <_eusrstack+0x2fff0036>
    3d70:	0ff7f713          	andi	a4,a5,255
    3d74:	500007b7          	lui	a5,0x50000
    3d78:	9b71                	andi	a4,a4,-4
    3d7a:	0ff77713          	andi	a4,a4,255
    3d7e:	02e78b23          	sb	a4,54(a5) # 50000036 <_eusrstack+0x2fff0036>
E:/CODE/C/ch32v307/CHV307_Library/Example/libraries/sdk/Peripheral/ch32v30x_usbotg_device.c:803
                    USBOTG_FS->UEP1_TX_CTRL ^= USBHD_UEP_T_TOG;
    3d82:	500007b7          	lui	a5,0x50000
    3d86:	0367c783          	lbu	a5,54(a5) # 50000036 <_eusrstack+0x2fff0036>
    3d8a:	0ff7f713          	andi	a4,a5,255
    3d8e:	500007b7          	lui	a5,0x50000
    3d92:	00474713          	xori	a4,a4,4
    3d96:	0ff77713          	andi	a4,a4,255
    3d9a:	02e78b23          	sb	a4,54(a5) # 50000036 <_eusrstack+0x2fff0036>
E:/CODE/C/ch32v307/CHV307_Library/Example/libraries/sdk/Peripheral/ch32v30x_usbotg_device.c:804
                    break;
    3d9e:	a0b9                	j	3dec <OTG_FS_IRQHandler+0xa56>
E:/CODE/C/ch32v307/CHV307_Library/Example/libraries/sdk/Peripheral/ch32v30x_usbotg_device.c:807
                    USBOTG_FS->UEP2_TX_CTRL ^= USBHD_UEP_T_TOG;
    3da0:	500007b7          	lui	a5,0x50000
    3da4:	03a7c783          	lbu	a5,58(a5) # 5000003a <_eusrstack+0x2fff003a>
    3da8:	0ff7f713          	andi	a4,a5,255
    3dac:	500007b7          	lui	a5,0x50000
    3db0:	00474713          	xori	a4,a4,4
    3db4:	0ff77713          	andi	a4,a4,255
    3db8:	02e78d23          	sb	a4,58(a5) # 5000003a <_eusrstack+0x2fff003a>
E:/CODE/C/ch32v307/CHV307_Library/Example/libraries/sdk/Peripheral/ch32v30x_usbotg_device.c:808
                    USBOTG_FS->UEP2_TX_CTRL = (USBOTG_FS->UEP2_TX_CTRL & ~USBHD_UEP_T_RES_MASK) | USBHD_UEP_T_RES_NAK;
    3dbc:	500007b7          	lui	a5,0x50000
    3dc0:	03a7c783          	lbu	a5,58(a5) # 5000003a <_eusrstack+0x2fff003a>
    3dc4:	0ff7f793          	andi	a5,a5,255
    3dc8:	07e2                	slli	a5,a5,0x18
    3dca:	87e1                	srai	a5,a5,0x18
    3dcc:	9bf1                	andi	a5,a5,-4
    3dce:	07e2                	slli	a5,a5,0x18
    3dd0:	87e1                	srai	a5,a5,0x18
    3dd2:	0027e793          	ori	a5,a5,2
    3dd6:	01879713          	slli	a4,a5,0x18
    3dda:	8761                	srai	a4,a4,0x18
    3ddc:	500007b7          	lui	a5,0x50000
    3de0:	0ff77713          	andi	a4,a4,255
    3de4:	02e78d23          	sb	a4,58(a5) # 5000003a <_eusrstack+0x2fff003a>
E:/CODE/C/ch32v307/CHV307_Library/Example/libraries/sdk/Peripheral/ch32v30x_usbotg_device.c:809
                    break;
    3de8:	a011                	j	3dec <OTG_FS_IRQHandler+0xa56>
E:/CODE/C/ch32v307/CHV307_Library/Example/libraries/sdk/Peripheral/ch32v30x_usbotg_device.c:813
                    break;
    3dea:	0001                	nop
E:/CODE/C/ch32v307/CHV307_Library/Example/libraries/sdk/Peripheral/ch32v30x_usbotg_device.c:816
                break;
    3dec:	aab5                	j	3f68 <OTG_FS_IRQHandler+0xbd2>
E:/CODE/C/ch32v307/CHV307_Library/Example/libraries/sdk/Peripheral/ch32v30x_usbotg_device.c:820
                switch ( USBOTG_FS->INT_ST & ( USBHD_UIS_TOKEN_MASK | USBHD_UIS_ENDP_MASK ) )
    3dee:	500007b7          	lui	a5,0x50000
    3df2:	0077c783          	lbu	a5,7(a5) # 50000007 <_eusrstack+0x2fff0007>
    3df6:	0ff7f793          	andi	a5,a5,255
    3dfa:	03f7f793          	andi	a5,a5,63
    3dfe:	4705                	li	a4,1
    3e00:	0ce78763          	beq	a5,a4,3ece <OTG_FS_IRQHandler+0xb38>
    3e04:	4709                	li	a4,2
    3e06:	10e78663          	beq	a5,a4,3f12 <OTG_FS_IRQHandler+0xb7c>
    3e0a:	14079e63          	bnez	a5,3f66 <OTG_FS_IRQHandler+0xbd0>
E:/CODE/C/ch32v307/CHV307_Library/Example/libraries/sdk/Peripheral/ch32v30x_usbotg_device.c:823 (discriminator 7)
                        switch( SetupReqCode )
    3e0e:	8801c783          	lbu	a5,-1920(gp) # 200002a0 <SetupReqCode>
    3e12:	0ff7f793          	andi	a5,a5,255
    3e16:	873e                	mv	a4,a5
    3e18:	02000793          	li	a5,32
    3e1c:	0af71363          	bne	a4,a5,3ec2 <OTG_FS_IRQHandler+0xb2c>
E:/CODE/C/ch32v307/CHV307_Library/Example/libraries/sdk/Peripheral/ch32v30x_usbotg_device.c:826
                                if((((LINECODINGST *)pEP0_DataBuf)->dataRat[0] || ((LINECODINGST *)pEP0_DataBuf)->dataRat[1] ||
    3e20:	86c1a783          	lw	a5,-1940(gp) # 2000028c <pEP0_RAM_Addr>
    3e24:	0007c783          	lbu	a5,0(a5)
    3e28:	e385                	bnez	a5,3e48 <OTG_FS_IRQHandler+0xab2>
E:/CODE/C/ch32v307/CHV307_Library/Example/libraries/sdk/Peripheral/ch32v30x_usbotg_device.c:826 (discriminator 1)
    3e2a:	86c1a783          	lw	a5,-1940(gp) # 2000028c <pEP0_RAM_Addr>
    3e2e:	0017c783          	lbu	a5,1(a5)
    3e32:	eb99                	bnez	a5,3e48 <OTG_FS_IRQHandler+0xab2>
E:/CODE/C/ch32v307/CHV307_Library/Example/libraries/sdk/Peripheral/ch32v30x_usbotg_device.c:827 (discriminator 2)
                                  ((LINECODINGST *)pEP0_DataBuf)->dataRat[2] || ((LINECODINGST *)pEP0_DataBuf)->dataRat[3]))
    3e34:	86c1a783          	lw	a5,-1940(gp) # 2000028c <pEP0_RAM_Addr>
    3e38:	0027c783          	lbu	a5,2(a5)
E:/CODE/C/ch32v307/CHV307_Library/Example/libraries/sdk/Peripheral/ch32v30x_usbotg_device.c:826 (discriminator 2)
                                if((((LINECODINGST *)pEP0_DataBuf)->dataRat[0] || ((LINECODINGST *)pEP0_DataBuf)->dataRat[1] ||
    3e3c:	e791                	bnez	a5,3e48 <OTG_FS_IRQHandler+0xab2>
E:/CODE/C/ch32v307/CHV307_Library/Example/libraries/sdk/Peripheral/ch32v30x_usbotg_device.c:827
                                  ((LINECODINGST *)pEP0_DataBuf)->dataRat[2] || ((LINECODINGST *)pEP0_DataBuf)->dataRat[3]))
    3e3e:	86c1a783          	lw	a5,-1940(gp) # 2000028c <pEP0_RAM_Addr>
    3e42:	0037c783          	lbu	a5,3(a5)
    3e46:	cf9d                	beqz	a5,3e84 <OTG_FS_IRQHandler+0xaee>
E:/CODE/C/ch32v307/CHV307_Library/Example/libraries/sdk/Peripheral/ch32v30x_usbotg_device.c:831
                                            (((LINECODINGST *)pEP0_DataBuf)->dataRat[3] <<24) |
    3e48:	86c1a783          	lw	a5,-1940(gp) # 2000028c <pEP0_RAM_Addr>
    3e4c:	0037c783          	lbu	a5,3(a5)
    3e50:	01879713          	slli	a4,a5,0x18
E:/CODE/C/ch32v307/CHV307_Library/Example/libraries/sdk/Peripheral/ch32v30x_usbotg_device.c:832
                                            (((LINECODINGST *)pEP0_DataBuf)->dataRat[2] <<16) |
    3e54:	86c1a783          	lw	a5,-1940(gp) # 2000028c <pEP0_RAM_Addr>
    3e58:	0027c783          	lbu	a5,2(a5)
    3e5c:	07c2                	slli	a5,a5,0x10
E:/CODE/C/ch32v307/CHV307_Library/Example/libraries/sdk/Peripheral/ch32v30x_usbotg_device.c:831
                                            (((LINECODINGST *)pEP0_DataBuf)->dataRat[3] <<24) |
    3e5e:	8f5d                	or	a4,a4,a5
E:/CODE/C/ch32v307/CHV307_Library/Example/libraries/sdk/Peripheral/ch32v30x_usbotg_device.c:833
                                            (((LINECODINGST *)pEP0_DataBuf)->dataRat[1] <<8) |
    3e60:	86c1a783          	lw	a5,-1940(gp) # 2000028c <pEP0_RAM_Addr>
    3e64:	0017c783          	lbu	a5,1(a5)
    3e68:	07a2                	slli	a5,a5,0x8
E:/CODE/C/ch32v307/CHV307_Library/Example/libraries/sdk/Peripheral/ch32v30x_usbotg_device.c:832
                                            (((LINECODINGST *)pEP0_DataBuf)->dataRat[2] <<16) |
    3e6a:	8fd9                	or	a5,a5,a4
E:/CODE/C/ch32v307/CHV307_Library/Example/libraries/sdk/Peripheral/ch32v30x_usbotg_device.c:834
                                            (((LINECODINGST *)pEP0_DataBuf)->dataRat[0]));
    3e6c:	86c1a703          	lw	a4,-1940(gp) # 2000028c <pEP0_RAM_Addr>
    3e70:	00074703          	lbu	a4,0(a4)
E:/CODE/C/ch32v307/CHV307_Library/Example/libraries/sdk/Peripheral/ch32v30x_usbotg_device.c:830
                                    printf( "\nBaud Rate = %d",
    3e74:	8fd9                	or	a5,a5,a4
    3e76:	85be                	mv	a1,a5
    3e78:	67a5                	lui	a5,0x9
    3e7a:	fa078513          	addi	a0,a5,-96 # 8fa0 <_sbrk+0x1ee>
    3e7e:	02b020ef          	jal	ra,66a8 <iprintf>
E:/CODE/C/ch32v307/CHV307_Library/Example/libraries/sdk/Peripheral/ch32v30x_usbotg_device.c:843
                               break;
    3e82:	a83d                	j	3ec0 <OTG_FS_IRQHandler+0xb2a>
E:/CODE/C/ch32v307/CHV307_Library/Example/libraries/sdk/Peripheral/ch32v30x_usbotg_device.c:838
                                    printf( "\ndataBit = %d",  ((LINECODINGST *)pEP0_DataBuf)->dataBit);
    3e84:	86c1a783          	lw	a5,-1940(gp) # 2000028c <pEP0_RAM_Addr>
    3e88:	0067c783          	lbu	a5,6(a5)
    3e8c:	85be                	mv	a1,a5
    3e8e:	67a5                	lui	a5,0x9
    3e90:	fb078513          	addi	a0,a5,-80 # 8fb0 <_sbrk+0x1fe>
    3e94:	015020ef          	jal	ra,66a8 <iprintf>
E:/CODE/C/ch32v307/CHV307_Library/Example/libraries/sdk/Peripheral/ch32v30x_usbotg_device.c:839
                                    printf( "\nstopBit = %d",  ((LINECODINGST *)pEP0_DataBuf)->stopBit);
    3e98:	86c1a783          	lw	a5,-1940(gp) # 2000028c <pEP0_RAM_Addr>
    3e9c:	0047c783          	lbu	a5,4(a5)
    3ea0:	85be                	mv	a1,a5
    3ea2:	67a5                	lui	a5,0x9
    3ea4:	fc078513          	addi	a0,a5,-64 # 8fc0 <_sbrk+0x20e>
    3ea8:	001020ef          	jal	ra,66a8 <iprintf>
E:/CODE/C/ch32v307/CHV307_Library/Example/libraries/sdk/Peripheral/ch32v30x_usbotg_device.c:840
                                    printf( "\nparityType = %d",  ((LINECODINGST *)pEP0_DataBuf)->parityType);
    3eac:	86c1a783          	lw	a5,-1940(gp) # 2000028c <pEP0_RAM_Addr>
    3eb0:	0057c783          	lbu	a5,5(a5)
    3eb4:	85be                	mv	a1,a5
    3eb6:	67a5                	lui	a5,0x9
    3eb8:	fd078513          	addi	a0,a5,-48 # 8fd0 <_sbrk+0x21e>
    3ebc:	7ec020ef          	jal	ra,66a8 <iprintf>
E:/CODE/C/ch32v307/CHV307_Library/Example/libraries/sdk/Peripheral/ch32v30x_usbotg_device.c:843
                               break;
    3ec0:	0001                	nop
E:/CODE/C/ch32v307/CHV307_Library/Example/libraries/sdk/Peripheral/ch32v30x_usbotg_device.c:847
                    len = USBOTG_FS->RX_LEN;
    3ec2:	500007b7          	lui	a5,0x50000
    3ec6:	479c                	lw	a5,8(a5)
    3ec8:	fef407a3          	sb	a5,-17(s0)
E:/CODE/C/ch32v307/CHV307_Library/Example/libraries/sdk/Peripheral/ch32v30x_usbotg_device.c:848
                    break;
    3ecc:	a841                	j	3f5c <OTG_FS_IRQHandler+0xbc6>
E:/CODE/C/ch32v307/CHV307_Library/Example/libraries/sdk/Peripheral/ch32v30x_usbotg_device.c:851
                        if ( USBOTG_FS->INT_ST & USBHD_UIS_TOG_OK )
    3ece:	500007b7          	lui	a5,0x50000
    3ed2:	0077c783          	lbu	a5,7(a5) # 50000007 <_eusrstack+0x2fff0007>
    3ed6:	0ff7f793          	andi	a5,a5,255
    3eda:	0407f793          	andi	a5,a5,64
    3ede:	cfa5                	beqz	a5,3f56 <OTG_FS_IRQHandler+0xbc0>
E:/CODE/C/ch32v307/CHV307_Library/Example/libraries/sdk/Peripheral/ch32v30x_usbotg_device.c:853
                            USBOTG_FS->UEP1_RX_CTRL ^= USBHD_UEP_R_TOG;
    3ee0:	500007b7          	lui	a5,0x50000
    3ee4:	0377c783          	lbu	a5,55(a5) # 50000037 <_eusrstack+0x2fff0037>
    3ee8:	0ff7f713          	andi	a4,a5,255
    3eec:	500007b7          	lui	a5,0x50000
    3ef0:	00474713          	xori	a4,a4,4
    3ef4:	0ff77713          	andi	a4,a4,255
    3ef8:	02e78ba3          	sb	a4,55(a5) # 50000037 <_eusrstack+0x2fff0037>
E:/CODE/C/ch32v307/CHV307_Library/Example/libraries/sdk/Peripheral/ch32v30x_usbotg_device.c:854
                            len = USBOTG_FS->RX_LEN;
    3efc:	500007b7          	lui	a5,0x50000
    3f00:	479c                	lw	a5,8(a5)
    3f02:	fef407a3          	sb	a5,-17(s0)
E:/CODE/C/ch32v307/CHV307_Library/Example/libraries/sdk/Peripheral/ch32v30x_usbotg_device.c:856
                            DevEP1_OUT_Deal( len );
    3f06:	fef44783          	lbu	a5,-17(s0)
    3f0a:	853e                	mv	a0,a5
    3f0c:	bc2ff0ef          	jal	ra,32ce <DevEP1_OUT_Deal>
E:/CODE/C/ch32v307/CHV307_Library/Example/libraries/sdk/Peripheral/ch32v30x_usbotg_device.c:858
                        break;
    3f10:	a099                	j	3f56 <OTG_FS_IRQHandler+0xbc0>
E:/CODE/C/ch32v307/CHV307_Library/Example/libraries/sdk/Peripheral/ch32v30x_usbotg_device.c:861
                        if ( USBOTG_FS->INT_ST & USBHD_UIS_TOG_OK )
    3f12:	500007b7          	lui	a5,0x50000
    3f16:	0077c783          	lbu	a5,7(a5) # 50000007 <_eusrstack+0x2fff0007>
    3f1a:	0ff7f793          	andi	a5,a5,255
    3f1e:	0407f793          	andi	a5,a5,64
    3f22:	cf85                	beqz	a5,3f5a <OTG_FS_IRQHandler+0xbc4>
E:/CODE/C/ch32v307/CHV307_Library/Example/libraries/sdk/Peripheral/ch32v30x_usbotg_device.c:863
                            USBOTG_FS->UEP2_RX_CTRL ^= USBHD_UEP_R_TOG;
    3f24:	500007b7          	lui	a5,0x50000
    3f28:	03b7c783          	lbu	a5,59(a5) # 5000003b <_eusrstack+0x2fff003b>
    3f2c:	0ff7f713          	andi	a4,a5,255
    3f30:	500007b7          	lui	a5,0x50000
    3f34:	00474713          	xori	a4,a4,4
    3f38:	0ff77713          	andi	a4,a4,255
    3f3c:	02e78da3          	sb	a4,59(a5) # 5000003b <_eusrstack+0x2fff003b>
E:/CODE/C/ch32v307/CHV307_Library/Example/libraries/sdk/Peripheral/ch32v30x_usbotg_device.c:864
                            len = USBOTG_FS->RX_LEN;
    3f40:	500007b7          	lui	a5,0x50000
    3f44:	479c                	lw	a5,8(a5)
    3f46:	fef407a3          	sb	a5,-17(s0)
E:/CODE/C/ch32v307/CHV307_Library/Example/libraries/sdk/Peripheral/ch32v30x_usbotg_device.c:866
                            DevEP2_OUT_Deal( len );
    3f4a:	fef44783          	lbu	a5,-17(s0)
    3f4e:	853e                	mv	a0,a5
    3f50:	be2ff0ef          	jal	ra,3332 <DevEP2_OUT_Deal>
E:/CODE/C/ch32v307/CHV307_Library/Example/libraries/sdk/Peripheral/ch32v30x_usbotg_device.c:868
                        break;
    3f54:	a019                	j	3f5a <OTG_FS_IRQHandler+0xbc4>
E:/CODE/C/ch32v307/CHV307_Library/Example/libraries/sdk/Peripheral/ch32v30x_usbotg_device.c:858
                        break;
    3f56:	0001                	nop
    3f58:	a039                	j	3f66 <OTG_FS_IRQHandler+0xbd0>
E:/CODE/C/ch32v307/CHV307_Library/Example/libraries/sdk/Peripheral/ch32v30x_usbotg_device.c:868
                        break;
    3f5a:	0001                	nop
E:/CODE/C/ch32v307/CHV307_Library/Example/libraries/sdk/Peripheral/ch32v30x_usbotg_device.c:871
                break;
    3f5c:	a029                	j	3f66 <OTG_FS_IRQHandler+0xbd0>
E:/CODE/C/ch32v307/CHV307_Library/Example/libraries/sdk/Peripheral/ch32v30x_usbotg_device.c:875
                break;
    3f5e:	0001                	nop
    3f60:	a021                	j	3f68 <OTG_FS_IRQHandler+0xbd2>
E:/CODE/C/ch32v307/CHV307_Library/Example/libraries/sdk/Peripheral/ch32v30x_usbotg_device.c:878
                break;
    3f62:	0001                	nop
    3f64:	a011                	j	3f68 <OTG_FS_IRQHandler+0xbd2>
E:/CODE/C/ch32v307/CHV307_Library/Example/libraries/sdk/Peripheral/ch32v30x_usbotg_device.c:871
                break;
    3f66:	0001                	nop
E:/CODE/C/ch32v307/CHV307_Library/Example/libraries/sdk/Peripheral/ch32v30x_usbotg_device.c:882

        }

        USBOTG_FS->INT_FG = USBHD_UIF_TRANSFER;
    3f68:	500007b7          	lui	a5,0x50000
    3f6c:	4709                	li	a4,2
    3f6e:	00e78323          	sb	a4,6(a5) # 50000006 <_eusrstack+0x2fff0006>
E:/CODE/C/ch32v307/CHV307_Library/Example/libraries/sdk/Peripheral/ch32v30x_usbotg_device.c:908
    }
    else
    {
        USBOTG_FS->INT_FG = intflag;
    }
}
    3f72:	a079                	j	4000 <OTG_FS_IRQHandler+0xc6a>
E:/CODE/C/ch32v307/CHV307_Library/Example/libraries/sdk/Peripheral/ch32v30x_usbotg_device.c:884
    else if( intflag & USBHD_UIF_BUS_RST )
    3f74:	fed44783          	lbu	a5,-19(s0)
    3f78:	8b85                	andi	a5,a5,1
    3f7a:	cfb9                	beqz	a5,3fd8 <OTG_FS_IRQHandler+0xc42>
E:/CODE/C/ch32v307/CHV307_Library/Example/libraries/sdk/Peripheral/ch32v30x_usbotg_device.c:886
        USBOTG_FS->DEV_ADDR = 0;
    3f7c:	500007b7          	lui	a5,0x50000
    3f80:	000781a3          	sb	zero,3(a5) # 50000003 <_eusrstack+0x2fff0003>
E:/CODE/C/ch32v307/CHV307_Library/Example/libraries/sdk/Peripheral/ch32v30x_usbotg_device.c:888
        USBOTG_FS->UEP0_RX_CTRL = USBHD_UEP_R_RES_ACK;
    3f84:	500007b7          	lui	a5,0x50000
    3f88:	020789a3          	sb	zero,51(a5) # 50000033 <_eusrstack+0x2fff0033>
E:/CODE/C/ch32v307/CHV307_Library/Example/libraries/sdk/Peripheral/ch32v30x_usbotg_device.c:889
        USBOTG_FS->UEP1_RX_CTRL = USBHD_UEP_R_RES_ACK;
    3f8c:	500007b7          	lui	a5,0x50000
    3f90:	02078ba3          	sb	zero,55(a5) # 50000037 <_eusrstack+0x2fff0037>
E:/CODE/C/ch32v307/CHV307_Library/Example/libraries/sdk/Peripheral/ch32v30x_usbotg_device.c:890
        USBOTG_FS->UEP2_RX_CTRL = USBHD_UEP_R_RES_ACK;
    3f94:	500007b7          	lui	a5,0x50000
    3f98:	02078da3          	sb	zero,59(a5) # 5000003b <_eusrstack+0x2fff003b>
E:/CODE/C/ch32v307/CHV307_Library/Example/libraries/sdk/Peripheral/ch32v30x_usbotg_device.c:892
        USBOTG_FS->UEP0_TX_CTRL = USBHD_UEP_T_RES_NAK;
    3f9c:	500007b7          	lui	a5,0x50000
    3fa0:	4709                	li	a4,2
    3fa2:	02e78923          	sb	a4,50(a5) # 50000032 <_eusrstack+0x2fff0032>
E:/CODE/C/ch32v307/CHV307_Library/Example/libraries/sdk/Peripheral/ch32v30x_usbotg_device.c:893
        USBOTG_FS->UEP1_TX_CTRL = USBHD_UEP_T_RES_NAK;
    3fa6:	500007b7          	lui	a5,0x50000
    3faa:	4709                	li	a4,2
    3fac:	02e78b23          	sb	a4,54(a5) # 50000036 <_eusrstack+0x2fff0036>
E:/CODE/C/ch32v307/CHV307_Library/Example/libraries/sdk/Peripheral/ch32v30x_usbotg_device.c:894
        USBOTG_FS->UEP2_TX_CTRL = USBHD_UEP_T_RES_NAK;
    3fb0:	500007b7          	lui	a5,0x50000
    3fb4:	4709                	li	a4,2
    3fb6:	02e78d23          	sb	a4,58(a5) # 5000003a <_eusrstack+0x2fff003a>
E:/CODE/C/ch32v307/CHV307_Library/Example/libraries/sdk/Peripheral/ch32v30x_usbotg_device.c:896
        USBOTG_FS->INT_FG |= USBHD_UIF_BUS_RST;
    3fba:	500007b7          	lui	a5,0x50000
    3fbe:	0067c783          	lbu	a5,6(a5) # 50000006 <_eusrstack+0x2fff0006>
    3fc2:	0ff7f713          	andi	a4,a5,255
    3fc6:	500007b7          	lui	a5,0x50000
    3fca:	00176713          	ori	a4,a4,1
    3fce:	0ff77713          	andi	a4,a4,255
    3fd2:	00e78323          	sb	a4,6(a5) # 50000006 <_eusrstack+0x2fff0006>
E:/CODE/C/ch32v307/CHV307_Library/Example/libraries/sdk/Peripheral/ch32v30x_usbotg_device.c:908
}
    3fd6:	a02d                	j	4000 <OTG_FS_IRQHandler+0xc6a>
E:/CODE/C/ch32v307/CHV307_Library/Example/libraries/sdk/Peripheral/ch32v30x_usbotg_device.c:898
    else if( intflag & USBHD_UIF_SUSPEND )
    3fd8:	fed44783          	lbu	a5,-19(s0)
    3fdc:	8b91                	andi	a5,a5,4
    3fde:	cb99                	beqz	a5,3ff4 <OTG_FS_IRQHandler+0xc5e>
E:/CODE/C/ch32v307/CHV307_Library/Example/libraries/sdk/Peripheral/ch32v30x_usbotg_device.c:900
        if ( USBOTG_FS->MIS_ST & USBHD_UMS_SUSPEND ) {;}
    3fe0:	500007b7          	lui	a5,0x50000
    3fe4:	0057c783          	lbu	a5,5(a5) # 50000005 <_eusrstack+0x2fff0005>
E:/CODE/C/ch32v307/CHV307_Library/Example/libraries/sdk/Peripheral/ch32v30x_usbotg_device.c:902
        USBOTG_FS->INT_FG = USBHD_UIF_SUSPEND;
    3fe8:	500007b7          	lui	a5,0x50000
    3fec:	4711                	li	a4,4
    3fee:	00e78323          	sb	a4,6(a5) # 50000006 <_eusrstack+0x2fff0006>
E:/CODE/C/ch32v307/CHV307_Library/Example/libraries/sdk/Peripheral/ch32v30x_usbotg_device.c:908
}
    3ff2:	a039                	j	4000 <OTG_FS_IRQHandler+0xc6a>
E:/CODE/C/ch32v307/CHV307_Library/Example/libraries/sdk/Peripheral/ch32v30x_usbotg_device.c:906
        USBOTG_FS->INT_FG = intflag;
    3ff4:	500007b7          	lui	a5,0x50000
    3ff8:	fed44703          	lbu	a4,-19(s0)
    3ffc:	00e78323          	sb	a4,6(a5) # 50000006 <_eusrstack+0x2fff0006>
E:/CODE/C/ch32v307/CHV307_Library/Example/libraries/sdk/Peripheral/ch32v30x_usbotg_device.c:908
}
    4000:	0001                	nop
    4002:	4472                	lw	s0,28(sp)
    4004:	6105                	addi	sp,sp,32
    4006:	30200073          	mret

0000400a <__adddf3>:
__adddf3():
    400a:	00100837          	lui	a6,0x100
    400e:	1101                	addi	sp,sp,-32
    4010:	187d                	addi	a6,a6,-1
    4012:	00b87733          	and	a4,a6,a1
    4016:	ca26                	sw	s1,20(sp)
    4018:	00d87833          	and	a6,a6,a3
    401c:	0145d493          	srli	s1,a1,0x14
    4020:	0146d313          	srli	t1,a3,0x14
    4024:	00371e13          	slli	t3,a4,0x3
    4028:	c64e                	sw	s3,12(sp)
    402a:	01d55713          	srli	a4,a0,0x1d
    402e:	080e                	slli	a6,a6,0x3
    4030:	01d65793          	srli	a5,a2,0x1d
    4034:	7ff4f493          	andi	s1,s1,2047
    4038:	7ff37313          	andi	t1,t1,2047
    403c:	ce06                	sw	ra,28(sp)
    403e:	cc22                	sw	s0,24(sp)
    4040:	c84a                	sw	s2,16(sp)
    4042:	01f5d993          	srli	s3,a1,0x1f
    4046:	01f6de93          	srli	t4,a3,0x1f
    404a:	01c76733          	or	a4,a4,t3
    404e:	00351f13          	slli	t5,a0,0x3
    4052:	0107e833          	or	a6,a5,a6
    4056:	00361f93          	slli	t6,a2,0x3
    405a:	40648e33          	sub	t3,s1,t1
    405e:	19d98063          	beq	s3,t4,41de <__adddf3+0x1d4>
    4062:	13c05663          	blez	t3,418e <__adddf3+0x184>
    4066:	1c030463          	beqz	t1,422e <__adddf3+0x224>
    406a:	008006b7          	lui	a3,0x800
    406e:	7ff00793          	li	a5,2047
    4072:	00d86833          	or	a6,a6,a3
    4076:	36f48f63          	beq	s1,a5,43f4 <__adddf3+0x3ea>
    407a:	03800793          	li	a5,56
    407e:	35c7c063          	blt	a5,t3,43be <__adddf3+0x3b4>
    4082:	47fd                	li	a5,31
    4084:	47c7cd63          	blt	a5,t3,44fe <__adddf3+0x4f4>
    4088:	02000513          	li	a0,32
    408c:	41c50533          	sub	a0,a0,t3
    4090:	01cfd7b3          	srl	a5,t6,t3
    4094:	00a816b3          	sll	a3,a6,a0
    4098:	00af9933          	sll	s2,t6,a0
    409c:	8edd                	or	a3,a3,a5
    409e:	01203933          	snez	s2,s2
    40a2:	01c857b3          	srl	a5,a6,t3
    40a6:	0126e933          	or	s2,a3,s2
    40aa:	8f1d                	sub	a4,a4,a5
    40ac:	412f0933          	sub	s2,t5,s2
    40b0:	012f37b3          	sltu	a5,t5,s2
    40b4:	40f70633          	sub	a2,a4,a5
    40b8:	00861793          	slli	a5,a2,0x8
    40bc:	2407d463          	bgez	a5,4304 <__adddf3+0x2fa>
    40c0:	00800737          	lui	a4,0x800
    40c4:	177d                	addi	a4,a4,-1
    40c6:	00e67433          	and	s0,a2,a4
    40ca:	2c040c63          	beqz	s0,43a2 <__adddf3+0x398>
    40ce:	8522                	mv	a0,s0
    40d0:	2b7010ef          	jal	ra,5b86 <__clzsi2>
    40d4:	ff850713          	addi	a4,a0,-8 # 4ff8 <__muldf3+0x1ea>
    40d8:	02000793          	li	a5,32
    40dc:	8f99                	sub	a5,a5,a4
    40de:	00f957b3          	srl	a5,s2,a5
    40e2:	00e41633          	sll	a2,s0,a4
    40e6:	8fd1                	or	a5,a5,a2
    40e8:	00e91933          	sll	s2,s2,a4
    40ec:	2a974163          	blt	a4,s1,438e <__adddf3+0x384>
    40f0:	40970533          	sub	a0,a4,s1
    40f4:	00150613          	addi	a2,a0,1
    40f8:	477d                	li	a4,31
    40fa:	38c74d63          	blt	a4,a2,4494 <__adddf3+0x48a>
    40fe:	02000713          	li	a4,32
    4102:	8f11                	sub	a4,a4,a2
    4104:	00c956b3          	srl	a3,s2,a2
    4108:	00e91933          	sll	s2,s2,a4
    410c:	00e79733          	sll	a4,a5,a4
    4110:	8f55                	or	a4,a4,a3
    4112:	01203933          	snez	s2,s2
    4116:	01276933          	or	s2,a4,s2
    411a:	00c7d633          	srl	a2,a5,a2
    411e:	4481                	li	s1,0
    4120:	00797793          	andi	a5,s2,7
    4124:	cf81                	beqz	a5,413c <__adddf3+0x132>
    4126:	00f97713          	andi	a4,s2,15
    412a:	4791                	li	a5,4
    412c:	00f70863          	beq	a4,a5,413c <__adddf3+0x132>
    4130:	00490713          	addi	a4,s2,4
    4134:	01273933          	sltu	s2,a4,s2
    4138:	964a                	add	a2,a2,s2
    413a:	893a                	mv	s2,a4
    413c:	00861793          	slli	a5,a2,0x8
    4140:	1c07d663          	bgez	a5,430c <__adddf3+0x302>
    4144:	00148513          	addi	a0,s1,1
    4148:	7ff00793          	li	a5,2047
    414c:	85ce                	mv	a1,s3
    414e:	20f50463          	beq	a0,a5,4356 <__adddf3+0x34c>
    4152:	ff8007b7          	lui	a5,0xff800
    4156:	17fd                	addi	a5,a5,-1
    4158:	8ff1                	and	a5,a5,a2
    415a:	01d79893          	slli	a7,a5,0x1d
    415e:	00395913          	srli	s2,s2,0x3
    4162:	07a6                	slli	a5,a5,0x9
    4164:	0128e8b3          	or	a7,a7,s2
    4168:	83b1                	srli	a5,a5,0xc
    416a:	7ff57513          	andi	a0,a0,2047
    416e:	00c79693          	slli	a3,a5,0xc
    4172:	0552                	slli	a0,a0,0x14
    4174:	40f2                	lw	ra,28(sp)
    4176:	4462                	lw	s0,24(sp)
    4178:	82b1                	srli	a3,a3,0xc
    417a:	05fe                	slli	a1,a1,0x1f
    417c:	8ec9                	or	a3,a3,a0
    417e:	8ecd                	or	a3,a3,a1
    4180:	44d2                	lw	s1,20(sp)
    4182:	4942                	lw	s2,16(sp)
    4184:	49b2                	lw	s3,12(sp)
    4186:	8546                	mv	a0,a7
    4188:	85b6                	mv	a1,a3
    418a:	6105                	addi	sp,sp,32
    418c:	8082                	ret
    418e:	0a0e1e63          	bnez	t3,424a <__adddf3+0x240>
    4192:	00148313          	addi	t1,s1,1
    4196:	7fe37313          	andi	t1,t1,2046
    419a:	22031763          	bnez	t1,43c8 <__adddf3+0x3be>
    419e:	01e767b3          	or	a5,a4,t5
    41a2:	01f868b3          	or	a7,a6,t6
    41a6:	1a049d63          	bnez	s1,4360 <__adddf3+0x356>
    41aa:	40078763          	beqz	a5,45b8 <__adddf3+0x5ae>
    41ae:	44088663          	beqz	a7,45fa <__adddf3+0x5f0>
    41b2:	41ff0933          	sub	s2,t5,t6
    41b6:	410707b3          	sub	a5,a4,a6
    41ba:	012f3633          	sltu	a2,t5,s2
    41be:	40c78633          	sub	a2,a5,a2
    41c2:	00861793          	slli	a5,a2,0x8
    41c6:	4c07d663          	bgez	a5,4692 <__adddf3+0x688>
    41ca:	41ef8933          	sub	s2,t6,t5
    41ce:	40e807b3          	sub	a5,a6,a4
    41d2:	012fb633          	sltu	a2,t6,s2
    41d6:	40c78633          	sub	a2,a5,a2
    41da:	89f6                	mv	s3,t4
    41dc:	b791                	j	4120 <__adddf3+0x116>
    41de:	0fc05063          	blez	t3,42be <__adddf3+0x2b4>
    41e2:	0c030063          	beqz	t1,42a2 <__adddf3+0x298>
    41e6:	008006b7          	lui	a3,0x800
    41ea:	7ff00793          	li	a5,2047
    41ee:	00d86833          	or	a6,a6,a3
    41f2:	3af48a63          	beq	s1,a5,45a6 <__adddf3+0x59c>
    41f6:	03800793          	li	a5,56
    41fa:	13c7cb63          	blt	a5,t3,4330 <__adddf3+0x326>
    41fe:	47fd                	li	a5,31
    4200:	35c7df63          	bge	a5,t3,455e <__adddf3+0x554>
    4204:	fe0e0913          	addi	s2,t3,-32
    4208:	02000793          	li	a5,32
    420c:	012856b3          	srl	a3,a6,s2
    4210:	00fe0a63          	beq	t3,a5,4224 <__adddf3+0x21a>
    4214:	04000913          	li	s2,64
    4218:	41c90933          	sub	s2,s2,t3
    421c:	01281933          	sll	s2,a6,s2
    4220:	012fefb3          	or	t6,t6,s2
    4224:	01f03933          	snez	s2,t6
    4228:	00d96933          	or	s2,s2,a3
    422c:	a231                	j	4338 <__adddf3+0x32e>
    422e:	01f867b3          	or	a5,a6,t6
    4232:	1c078a63          	beqz	a5,4406 <__adddf3+0x3fc>
    4236:	fffe0793          	addi	a5,t3,-1
    423a:	38078c63          	beqz	a5,45d2 <__adddf3+0x5c8>
    423e:	7ff00693          	li	a3,2047
    4242:	1ade0963          	beq	t3,a3,43f4 <__adddf3+0x3ea>
    4246:	8e3e                	mv	t3,a5
    4248:	bd0d                	j	407a <__adddf3+0x70>
    424a:	409305b3          	sub	a1,t1,s1
    424e:	22049163          	bnez	s1,4470 <__adddf3+0x466>
    4252:	01e767b3          	or	a5,a4,t5
    4256:	32078763          	beqz	a5,4584 <__adddf3+0x57a>
    425a:	fff58793          	addi	a5,a1,-1
    425e:	44078163          	beqz	a5,46a0 <__adddf3+0x696>
    4262:	7ff00693          	li	a3,2047
    4266:	20d58c63          	beq	a1,a3,447e <__adddf3+0x474>
    426a:	85be                	mv	a1,a5
    426c:	03800793          	li	a5,56
    4270:	2ab7cc63          	blt	a5,a1,4528 <__adddf3+0x51e>
    4274:	47fd                	li	a5,31
    4276:	3cb7cf63          	blt	a5,a1,4654 <__adddf3+0x64a>
    427a:	02000793          	li	a5,32
    427e:	8f8d                	sub	a5,a5,a1
    4280:	00f71933          	sll	s2,a4,a5
    4284:	00bf56b3          	srl	a3,t5,a1
    4288:	00ff17b3          	sll	a5,t5,a5
    428c:	00d96933          	or	s2,s2,a3
    4290:	00f037b3          	snez	a5,a5
    4294:	00b75733          	srl	a4,a4,a1
    4298:	00f96933          	or	s2,s2,a5
    429c:	40e80833          	sub	a6,a6,a4
    42a0:	ac41                	j	4530 <__adddf3+0x526>
    42a2:	01f867b3          	or	a5,a6,t6
    42a6:	34078063          	beqz	a5,45e6 <__adddf3+0x5dc>
    42aa:	fffe0793          	addi	a5,t3,-1
    42ae:	20078a63          	beqz	a5,44c2 <__adddf3+0x4b8>
    42b2:	7ff00693          	li	a3,2047
    42b6:	2ede0863          	beq	t3,a3,45a6 <__adddf3+0x59c>
    42ba:	8e3e                	mv	t3,a5
    42bc:	bf2d                	j	41f6 <__adddf3+0x1ec>
    42be:	140e1e63          	bnez	t3,441a <__adddf3+0x410>
    42c2:	00148693          	addi	a3,s1,1
    42c6:	7fe6f793          	andi	a5,a3,2046
    42ca:	34079163          	bnez	a5,460c <__adddf3+0x602>
    42ce:	01e767b3          	or	a5,a4,t5
    42d2:	2c049563          	bnez	s1,459c <__adddf3+0x592>
    42d6:	3e078063          	beqz	a5,46b6 <__adddf3+0x6ac>
    42da:	01f867b3          	or	a5,a6,t6
    42de:	30078e63          	beqz	a5,45fa <__adddf3+0x5f0>
    42e2:	01ff0933          	add	s2,t5,t6
    42e6:	010707b3          	add	a5,a4,a6
    42ea:	01e93f33          	sltu	t5,s2,t5
    42ee:	01e78633          	add	a2,a5,t5
    42f2:	00861793          	slli	a5,a2,0x8
    42f6:	0007d763          	bgez	a5,4304 <__adddf3+0x2fa>
    42fa:	ff8007b7          	lui	a5,0xff800
    42fe:	17fd                	addi	a5,a5,-1
    4300:	8e7d                	and	a2,a2,a5
    4302:	4485                	li	s1,1
    4304:	00797793          	andi	a5,s2,7
    4308:	e0079fe3          	bnez	a5,4126 <__adddf3+0x11c>
    430c:	01d61793          	slli	a5,a2,0x1d
    4310:	00395893          	srli	a7,s2,0x3
    4314:	00f8e8b3          	or	a7,a7,a5
    4318:	00365793          	srli	a5,a2,0x3
    431c:	7ff00713          	li	a4,2047
    4320:	04e48d63          	beq	s1,a4,437a <__adddf3+0x370>
    4324:	07b2                	slli	a5,a5,0xc
    4326:	83b1                	srli	a5,a5,0xc
    4328:	7ff4f513          	andi	a0,s1,2047
    432c:	85ce                	mv	a1,s3
    432e:	b581                	j	416e <__adddf3+0x164>
    4330:	01f86933          	or	s2,a6,t6
    4334:	01203933          	snez	s2,s2
    4338:	997a                	add	s2,s2,t5
    433a:	01e937b3          	sltu	a5,s2,t5
    433e:	00e78633          	add	a2,a5,a4
    4342:	00861793          	slli	a5,a2,0x8
    4346:	fa07dfe3          	bgez	a5,4304 <__adddf3+0x2fa>
    434a:	0485                	addi	s1,s1,1
    434c:	7ff00793          	li	a5,2047
    4350:	18f49663          	bne	s1,a5,44dc <__adddf3+0x4d2>
    4354:	85ce                	mv	a1,s3
    4356:	7ff00513          	li	a0,2047
    435a:	4781                	li	a5,0
    435c:	4881                	li	a7,0
    435e:	bd01                	j	416e <__adddf3+0x164>
    4360:	ebc1                	bnez	a5,43f0 <__adddf3+0x3e6>
    4362:	3a088463          	beqz	a7,470a <__adddf3+0x700>
    4366:	00361693          	slli	a3,a2,0x3
    436a:	01d81793          	slli	a5,a6,0x1d
    436e:	828d                	srli	a3,a3,0x3
    4370:	00d7e8b3          	or	a7,a5,a3
    4374:	89f6                	mv	s3,t4
    4376:	00385793          	srli	a5,a6,0x3
    437a:	00f8e7b3          	or	a5,a7,a5
    437e:	dbf9                	beqz	a5,4354 <__adddf3+0x34a>
    4380:	4581                	li	a1,0
    4382:	7ff00513          	li	a0,2047
    4386:	000807b7          	lui	a5,0x80
    438a:	4881                	li	a7,0
    438c:	b3cd                	j	416e <__adddf3+0x164>
    438e:	ff800637          	lui	a2,0xff800
    4392:	167d                	addi	a2,a2,-1
    4394:	8e7d                	and	a2,a2,a5
    4396:	00797793          	andi	a5,s2,7
    439a:	8c99                	sub	s1,s1,a4
    439c:	d80795e3          	bnez	a5,4126 <__adddf3+0x11c>
    43a0:	b7b5                	j	430c <__adddf3+0x302>
    43a2:	854a                	mv	a0,s2
    43a4:	7e2010ef          	jal	ra,5b86 <__clzsi2>
    43a8:	01850713          	addi	a4,a0,24
    43ac:	47fd                	li	a5,31
    43ae:	d2e7d5e3          	bge	a5,a4,40d8 <__adddf3+0xce>
    43b2:	ff850613          	addi	a2,a0,-8
    43b6:	00c917b3          	sll	a5,s2,a2
    43ba:	4901                	li	s2,0
    43bc:	bb05                	j	40ec <__adddf3+0xe2>
    43be:	01f86933          	or	s2,a6,t6
    43c2:	01203933          	snez	s2,s2
    43c6:	b1dd                	j	40ac <__adddf3+0xa2>
    43c8:	41ff0933          	sub	s2,t5,t6
    43cc:	41070633          	sub	a2,a4,a6
    43d0:	012f3433          	sltu	s0,t5,s2
    43d4:	40860433          	sub	s0,a2,s0
    43d8:	00841793          	slli	a5,s0,0x8
    43dc:	2407cd63          	bltz	a5,4636 <__adddf3+0x62c>
    43e0:	008968b3          	or	a7,s2,s0
    43e4:	ce0893e3          	bnez	a7,40ca <__adddf3+0xc0>
    43e8:	4781                	li	a5,0
    43ea:	4981                	li	s3,0
    43ec:	4481                	li	s1,0
    43ee:	bf1d                	j	4324 <__adddf3+0x31a>
    43f0:	f80898e3          	bnez	a7,4380 <__adddf3+0x376>
    43f4:	050e                	slli	a0,a0,0x3
    43f6:	01d71793          	slli	a5,a4,0x1d
    43fa:	810d                	srli	a0,a0,0x3
    43fc:	00a7e8b3          	or	a7,a5,a0
    4400:	00375793          	srli	a5,a4,0x3
    4404:	bf9d                	j	437a <__adddf3+0x370>
    4406:	050e                	slli	a0,a0,0x3
    4408:	01d71793          	slli	a5,a4,0x1d
    440c:	810d                	srli	a0,a0,0x3
    440e:	00a7e8b3          	or	a7,a5,a0
    4412:	84f2                	mv	s1,t3
    4414:	00375793          	srli	a5,a4,0x3
    4418:	b711                	j	431c <__adddf3+0x312>
    441a:	40930533          	sub	a0,t1,s1
    441e:	12048263          	beqz	s1,4542 <__adddf3+0x538>
    4422:	008006b7          	lui	a3,0x800
    4426:	7ff00793          	li	a5,2047
    442a:	8f55                	or	a4,a4,a3
    442c:	2ef30d63          	beq	t1,a5,4726 <__adddf3+0x71c>
    4430:	03800793          	li	a5,56
    4434:	20a7cb63          	blt	a5,a0,464a <__adddf3+0x640>
    4438:	47fd                	li	a5,31
    443a:	2aa7c363          	blt	a5,a0,46e0 <__adddf3+0x6d6>
    443e:	02000793          	li	a5,32
    4442:	8f89                	sub	a5,a5,a0
    4444:	00f71933          	sll	s2,a4,a5
    4448:	00af56b3          	srl	a3,t5,a0
    444c:	00ff17b3          	sll	a5,t5,a5
    4450:	00d96933          	or	s2,s2,a3
    4454:	00f037b3          	snez	a5,a5
    4458:	00a75733          	srl	a4,a4,a0
    445c:	00f96933          	or	s2,s2,a5
    4460:	983a                	add	a6,a6,a4
    4462:	997e                	add	s2,s2,t6
    4464:	01f937b3          	sltu	a5,s2,t6
    4468:	01078633          	add	a2,a5,a6
    446c:	849a                	mv	s1,t1
    446e:	bdd1                	j	4342 <__adddf3+0x338>
    4470:	008006b7          	lui	a3,0x800
    4474:	7ff00793          	li	a5,2047
    4478:	8f55                	or	a4,a4,a3
    447a:	def319e3          	bne	t1,a5,426c <__adddf3+0x262>
    447e:	00361793          	slli	a5,a2,0x3
    4482:	838d                	srli	a5,a5,0x3
    4484:	01d81893          	slli	a7,a6,0x1d
    4488:	0117e8b3          	or	a7,a5,a7
    448c:	89f6                	mv	s3,t4
    448e:	00385793          	srli	a5,a6,0x3
    4492:	b5e5                	j	437a <__adddf3+0x370>
    4494:	fe150713          	addi	a4,a0,-31
    4498:	02000693          	li	a3,32
    449c:	00e7d733          	srl	a4,a5,a4
    44a0:	00d60a63          	beq	a2,a3,44b4 <__adddf3+0x4aa>
    44a4:	04000693          	li	a3,64
    44a8:	40c68633          	sub	a2,a3,a2
    44ac:	00c79633          	sll	a2,a5,a2
    44b0:	00c96933          	or	s2,s2,a2
    44b4:	01203933          	snez	s2,s2
    44b8:	00e96933          	or	s2,s2,a4
    44bc:	4601                	li	a2,0
    44be:	4481                	li	s1,0
    44c0:	b591                	j	4304 <__adddf3+0x2fa>
    44c2:	01ff0933          	add	s2,t5,t6
    44c6:	010707b3          	add	a5,a4,a6
    44ca:	01e93633          	sltu	a2,s2,t5
    44ce:	963e                	add	a2,a2,a5
    44d0:	00861793          	slli	a5,a2,0x8
    44d4:	4485                	li	s1,1
    44d6:	e207d7e3          	bgez	a5,4304 <__adddf3+0x2fa>
    44da:	4489                	li	s1,2
    44dc:	ff8007b7          	lui	a5,0xff800
    44e0:	17fd                	addi	a5,a5,-1
    44e2:	8ff1                	and	a5,a5,a2
    44e4:	00195713          	srli	a4,s2,0x1
    44e8:	00197913          	andi	s2,s2,1
    44ec:	01276933          	or	s2,a4,s2
    44f0:	01f79893          	slli	a7,a5,0x1f
    44f4:	0128e933          	or	s2,a7,s2
    44f8:	0017d613          	srli	a2,a5,0x1
    44fc:	b115                	j	4120 <__adddf3+0x116>
    44fe:	fe0e0913          	addi	s2,t3,-32
    4502:	02000793          	li	a5,32
    4506:	012856b3          	srl	a3,a6,s2
    450a:	00fe0a63          	beq	t3,a5,451e <__adddf3+0x514>
    450e:	04000913          	li	s2,64
    4512:	41c90933          	sub	s2,s2,t3
    4516:	01281933          	sll	s2,a6,s2
    451a:	012fefb3          	or	t6,t6,s2
    451e:	01f03933          	snez	s2,t6
    4522:	00d96933          	or	s2,s2,a3
    4526:	b659                	j	40ac <__adddf3+0xa2>
    4528:	01e76933          	or	s2,a4,t5
    452c:	01203933          	snez	s2,s2
    4530:	412f8933          	sub	s2,t6,s2
    4534:	012fb7b3          	sltu	a5,t6,s2
    4538:	40f80633          	sub	a2,a6,a5
    453c:	849a                	mv	s1,t1
    453e:	89f6                	mv	s3,t4
    4540:	bea5                	j	40b8 <__adddf3+0xae>
    4542:	01e767b3          	or	a5,a4,t5
    4546:	18078263          	beqz	a5,46ca <__adddf3+0x6c0>
    454a:	fff50793          	addi	a5,a0,-1
    454e:	1c078463          	beqz	a5,4716 <__adddf3+0x70c>
    4552:	7ff00693          	li	a3,2047
    4556:	12d50463          	beq	a0,a3,467e <__adddf3+0x674>
    455a:	853e                	mv	a0,a5
    455c:	bdd1                	j	4430 <__adddf3+0x426>
    455e:	02000793          	li	a5,32
    4562:	41c787b3          	sub	a5,a5,t3
    4566:	00f816b3          	sll	a3,a6,a5
    456a:	00ff9933          	sll	s2,t6,a5
    456e:	01cfd633          	srl	a2,t6,t3
    4572:	8ed1                	or	a3,a3,a2
    4574:	01203933          	snez	s2,s2
    4578:	01c857b3          	srl	a5,a6,t3
    457c:	0126e933          	or	s2,a3,s2
    4580:	973e                	add	a4,a4,a5
    4582:	bb5d                	j	4338 <__adddf3+0x32e>
    4584:	00361793          	slli	a5,a2,0x3
    4588:	838d                	srli	a5,a5,0x3
    458a:	01d81893          	slli	a7,a6,0x1d
    458e:	0117e8b3          	or	a7,a5,a7
    4592:	84ae                	mv	s1,a1
    4594:	00385793          	srli	a5,a6,0x3
    4598:	89f6                	mv	s3,t4
    459a:	b349                	j	431c <__adddf3+0x312>
    459c:	c3ed                	beqz	a5,467e <__adddf3+0x674>
    459e:	01f86933          	or	s2,a6,t6
    45a2:	dc091fe3          	bnez	s2,4380 <__adddf3+0x376>
    45a6:	050e                	slli	a0,a0,0x3
    45a8:	01d71793          	slli	a5,a4,0x1d
    45ac:	810d                	srli	a0,a0,0x3
    45ae:	00f568b3          	or	a7,a0,a5
    45b2:	00375793          	srli	a5,a4,0x3
    45b6:	b3d1                	j	437a <__adddf3+0x370>
    45b8:	0e088163          	beqz	a7,469a <__adddf3+0x690>
    45bc:	00361693          	slli	a3,a2,0x3
    45c0:	01d81793          	slli	a5,a6,0x1d
    45c4:	828d                	srli	a3,a3,0x3
    45c6:	00d7e8b3          	or	a7,a5,a3
    45ca:	89f6                	mv	s3,t4
    45cc:	00385793          	srli	a5,a6,0x3
    45d0:	bb91                	j	4324 <__adddf3+0x31a>
    45d2:	41ff0933          	sub	s2,t5,t6
    45d6:	410707b3          	sub	a5,a4,a6
    45da:	012f3f33          	sltu	t5,t5,s2
    45de:	41e78633          	sub	a2,a5,t5
    45e2:	4485                	li	s1,1
    45e4:	bcd1                	j	40b8 <__adddf3+0xae>
    45e6:	050e                	slli	a0,a0,0x3
    45e8:	01d71793          	slli	a5,a4,0x1d
    45ec:	810d                	srli	a0,a0,0x3
    45ee:	00f568b3          	or	a7,a0,a5
    45f2:	84f2                	mv	s1,t3
    45f4:	00375793          	srli	a5,a4,0x3
    45f8:	b315                	j	431c <__adddf3+0x312>
    45fa:	050e                	slli	a0,a0,0x3
    45fc:	01d71793          	slli	a5,a4,0x1d
    4600:	810d                	srli	a0,a0,0x3
    4602:	00a7e8b3          	or	a7,a5,a0
    4606:	00375793          	srli	a5,a4,0x3
    460a:	bb29                	j	4324 <__adddf3+0x31a>
    460c:	7ff00793          	li	a5,2047
    4610:	d4f682e3          	beq	a3,a5,4354 <__adddf3+0x34a>
    4614:	01ff0933          	add	s2,t5,t6
    4618:	01e93633          	sltu	a2,s2,t5
    461c:	010707b3          	add	a5,a4,a6
    4620:	97b2                	add	a5,a5,a2
    4622:	01f79893          	slli	a7,a5,0x1f
    4626:	00195913          	srli	s2,s2,0x1
    462a:	0128e933          	or	s2,a7,s2
    462e:	0017d613          	srli	a2,a5,0x1
    4632:	84b6                	mv	s1,a3
    4634:	b9c1                	j	4304 <__adddf3+0x2fa>
    4636:	41ef8933          	sub	s2,t6,t5
    463a:	40e80733          	sub	a4,a6,a4
    463e:	012fb633          	sltu	a2,t6,s2
    4642:	40c70433          	sub	s0,a4,a2
    4646:	89f6                	mv	s3,t4
    4648:	b449                	j	40ca <__adddf3+0xc0>
    464a:	01e76933          	or	s2,a4,t5
    464e:	01203933          	snez	s2,s2
    4652:	bd01                	j	4462 <__adddf3+0x458>
    4654:	fe058793          	addi	a5,a1,-32
    4658:	02000693          	li	a3,32
    465c:	00f757b3          	srl	a5,a4,a5
    4660:	00d58a63          	beq	a1,a3,4674 <__adddf3+0x66a>
    4664:	04000693          	li	a3,64
    4668:	40b685b3          	sub	a1,a3,a1
    466c:	00b71733          	sll	a4,a4,a1
    4670:	00ef6f33          	or	t5,t5,a4
    4674:	01e03933          	snez	s2,t5
    4678:	00f96933          	or	s2,s2,a5
    467c:	bd55                	j	4530 <__adddf3+0x526>
    467e:	00361793          	slli	a5,a2,0x3
    4682:	838d                	srli	a5,a5,0x3
    4684:	01d81893          	slli	a7,a6,0x1d
    4688:	0117e8b3          	or	a7,a5,a7
    468c:	00385793          	srli	a5,a6,0x3
    4690:	b1ed                	j	437a <__adddf3+0x370>
    4692:	00c968b3          	or	a7,s2,a2
    4696:	c60897e3          	bnez	a7,4304 <__adddf3+0x2fa>
    469a:	4781                	li	a5,0
    469c:	4981                	li	s3,0
    469e:	b159                	j	4324 <__adddf3+0x31a>
    46a0:	41ef8933          	sub	s2,t6,t5
    46a4:	40e807b3          	sub	a5,a6,a4
    46a8:	012fb633          	sltu	a2,t6,s2
    46ac:	40c78633          	sub	a2,a5,a2
    46b0:	89f6                	mv	s3,t4
    46b2:	4485                	li	s1,1
    46b4:	b411                	j	40b8 <__adddf3+0xae>
    46b6:	00361693          	slli	a3,a2,0x3
    46ba:	01d81793          	slli	a5,a6,0x1d
    46be:	828d                	srli	a3,a3,0x3
    46c0:	00d7e8b3          	or	a7,a5,a3
    46c4:	00385793          	srli	a5,a6,0x3
    46c8:	b9b1                	j	4324 <__adddf3+0x31a>
    46ca:	00361693          	slli	a3,a2,0x3
    46ce:	01d81793          	slli	a5,a6,0x1d
    46d2:	828d                	srli	a3,a3,0x3
    46d4:	00d7e8b3          	or	a7,a5,a3
    46d8:	84aa                	mv	s1,a0
    46da:	00385793          	srli	a5,a6,0x3
    46de:	b93d                	j	431c <__adddf3+0x312>
    46e0:	fe050793          	addi	a5,a0,-32
    46e4:	02000693          	li	a3,32
    46e8:	00f757b3          	srl	a5,a4,a5
    46ec:	00d50a63          	beq	a0,a3,4700 <__adddf3+0x6f6>
    46f0:	04000693          	li	a3,64
    46f4:	40a68533          	sub	a0,a3,a0
    46f8:	00a71733          	sll	a4,a4,a0
    46fc:	00ef6f33          	or	t5,t5,a4
    4700:	01e03933          	snez	s2,t5
    4704:	00f96933          	or	s2,s2,a5
    4708:	bba9                	j	4462 <__adddf3+0x458>
    470a:	4581                	li	a1,0
    470c:	7ff00513          	li	a0,2047
    4710:	000807b7          	lui	a5,0x80
    4714:	bca9                	j	416e <__adddf3+0x164>
    4716:	01ff0933          	add	s2,t5,t6
    471a:	010707b3          	add	a5,a4,a6
    471e:	01f93633          	sltu	a2,s2,t6
    4722:	963e                	add	a2,a2,a5
    4724:	b375                	j	44d0 <__adddf3+0x4c6>
    4726:	00361693          	slli	a3,a2,0x3
    472a:	01d81793          	slli	a5,a6,0x1d
    472e:	828d                	srli	a3,a3,0x3
    4730:	00d7e8b3          	or	a7,a5,a3
    4734:	00385793          	srli	a5,a6,0x3
    4738:	b189                	j	437a <__adddf3+0x370>

0000473a <__divdf3>:
__divdf3():
    473a:	7139                	addi	sp,sp,-64
    473c:	0145d793          	srli	a5,a1,0x14
    4740:	dc22                	sw	s0,56(sp)
    4742:	d84a                	sw	s2,48(sp)
    4744:	d256                	sw	s5,36(sp)
    4746:	892a                	mv	s2,a0
    4748:	00c59413          	slli	s0,a1,0xc
    474c:	de06                	sw	ra,60(sp)
    474e:	da26                	sw	s1,52(sp)
    4750:	d64e                	sw	s3,44(sp)
    4752:	d452                	sw	s4,40(sp)
    4754:	d05a                	sw	s6,32(sp)
    4756:	ce5e                	sw	s7,28(sp)
    4758:	7ff7f513          	andi	a0,a5,2047
    475c:	8031                	srli	s0,s0,0xc
    475e:	01f5da93          	srli	s5,a1,0x1f
    4762:	10050b63          	beqz	a0,4878 <__divdf3+0x13e>
    4766:	7ff00793          	li	a5,2047
    476a:	14f50b63          	beq	a0,a5,48c0 <__divdf3+0x186>
    476e:	01d95a13          	srli	s4,s2,0x1d
    4772:	040e                	slli	s0,s0,0x3
    4774:	008a6433          	or	s0,s4,s0
    4778:	00800a37          	lui	s4,0x800
    477c:	01446a33          	or	s4,s0,s4
    4780:	00391b13          	slli	s6,s2,0x3
    4784:	c0150493          	addi	s1,a0,-1023
    4788:	4401                	li	s0,0
    478a:	4b81                	li	s7,0
    478c:	0146d813          	srli	a6,a3,0x14
    4790:	00c69913          	slli	s2,a3,0xc
    4794:	7ff87813          	andi	a6,a6,2047
    4798:	88b2                	mv	a7,a2
    479a:	00c95913          	srli	s2,s2,0xc
    479e:	01f6d993          	srli	s3,a3,0x1f
    47a2:	08080e63          	beqz	a6,483e <__divdf3+0x104>
    47a6:	7ff00793          	li	a5,2047
    47aa:	04f80063          	beq	a6,a5,47ea <__divdf3+0xb0>
    47ae:	01d65713          	srli	a4,a2,0x1d
    47b2:	090e                	slli	s2,s2,0x3
    47b4:	01276933          	or	s2,a4,s2
    47b8:	c0180813          	addi	a6,a6,-1023 # ffc01 <_data_lma+0xf65dd>
    47bc:	008007b7          	lui	a5,0x800
    47c0:	00f96733          	or	a4,s2,a5
    47c4:	00361893          	slli	a7,a2,0x3
    47c8:	410484b3          	sub	s1,s1,a6
    47cc:	4581                	li	a1,0
    47ce:	47bd                	li	a5,15
    47d0:	013ac833          	xor	a6,s5,s3
    47d4:	1a87e463          	bltu	a5,s0,497c <__divdf3+0x242>
    47d8:	00005797          	auipc	a5,0x5
    47dc:	9a878793          	addi	a5,a5,-1624 # 9180 <MyUSBQUADescHD+0xc8>
    47e0:	040a                	slli	s0,s0,0x2
    47e2:	943e                	add	s0,s0,a5
    47e4:	4010                	lw	a2,0(s0)
    47e6:	963e                	add	a2,a2,a5
    47e8:	8602                	jr	a2
    47ea:	00c96733          	or	a4,s2,a2
    47ee:	80148493          	addi	s1,s1,-2047
    47f2:	10071263          	bnez	a4,48f6 <__divdf3+0x1bc>
    47f6:	00246413          	ori	s0,s0,2
    47fa:	4881                	li	a7,0
    47fc:	4589                	li	a1,2
    47fe:	bfc1                	j	47ce <__divdf3+0x94>
    4800:	7ff00613          	li	a2,2047
    4804:	4781                	li	a5,0
    4806:	4701                	li	a4,0
    4808:	07b2                	slli	a5,a5,0xc
    480a:	50f2                	lw	ra,60(sp)
    480c:	5462                	lw	s0,56(sp)
    480e:	0652                	slli	a2,a2,0x14
    4810:	83b1                	srli	a5,a5,0xc
    4812:	087e                	slli	a6,a6,0x1f
    4814:	8fd1                	or	a5,a5,a2
    4816:	0107e7b3          	or	a5,a5,a6
    481a:	54d2                	lw	s1,52(sp)
    481c:	5942                	lw	s2,48(sp)
    481e:	59b2                	lw	s3,44(sp)
    4820:	5a22                	lw	s4,40(sp)
    4822:	5a92                	lw	s5,36(sp)
    4824:	5b02                	lw	s6,32(sp)
    4826:	4bf2                	lw	s7,28(sp)
    4828:	853a                	mv	a0,a4
    482a:	85be                	mv	a1,a5
    482c:	6121                	addi	sp,sp,64
    482e:	8082                	ret
    4830:	4801                	li	a6,0
    4832:	7ff00613          	li	a2,2047
    4836:	000807b7          	lui	a5,0x80
    483a:	4701                	li	a4,0
    483c:	b7f1                	j	4808 <__divdf3+0xce>
    483e:	00c96733          	or	a4,s2,a2
    4842:	c74d                	beqz	a4,48ec <__divdf3+0x1b2>
    4844:	30090863          	beqz	s2,4b54 <__divdf3+0x41a>
    4848:	854a                	mv	a0,s2
    484a:	c432                	sw	a2,8(sp)
    484c:	33a010ef          	jal	ra,5b86 <__clzsi2>
    4850:	4622                	lw	a2,8(sp)
    4852:	ff550713          	addi	a4,a0,-11
    4856:	47f5                	li	a5,29
    4858:	ff850693          	addi	a3,a0,-8
    485c:	8f99                	sub	a5,a5,a4
    485e:	00d91933          	sll	s2,s2,a3
    4862:	00f657b3          	srl	a5,a2,a5
    4866:	0127e733          	or	a4,a5,s2
    486a:	00d618b3          	sll	a7,a2,a3
    486e:	9526                	add	a0,a0,s1
    4870:	3f350493          	addi	s1,a0,1011
    4874:	4581                	li	a1,0
    4876:	bfa1                	j	47ce <__divdf3+0x94>
    4878:	01246a33          	or	s4,s0,s2
    487c:	060a0363          	beqz	s4,48e2 <__divdf3+0x1a8>
    4880:	c636                	sw	a3,12(sp)
    4882:	c432                	sw	a2,8(sp)
    4884:	2a040663          	beqz	s0,4b30 <__divdf3+0x3f6>
    4888:	8522                	mv	a0,s0
    488a:	2fc010ef          	jal	ra,5b86 <__clzsi2>
    488e:	4622                	lw	a2,8(sp)
    4890:	46b2                	lw	a3,12(sp)
    4892:	84aa                	mv	s1,a0
    4894:	ff550713          	addi	a4,a0,-11
    4898:	4a75                	li	s4,29
    489a:	ff848b13          	addi	s6,s1,-8
    489e:	40ea0a33          	sub	s4,s4,a4
    48a2:	01641433          	sll	s0,s0,s6
    48a6:	01495a33          	srl	s4,s2,s4
    48aa:	008a6a33          	or	s4,s4,s0
    48ae:	01691b33          	sll	s6,s2,s6
    48b2:	c0d00513          	li	a0,-1011
    48b6:	409504b3          	sub	s1,a0,s1
    48ba:	4401                	li	s0,0
    48bc:	4b81                	li	s7,0
    48be:	b5f9                	j	478c <__divdf3+0x52>
    48c0:	01246a33          	or	s4,s0,s2
    48c4:	000a1863          	bnez	s4,48d4 <__divdf3+0x19a>
    48c8:	4421                	li	s0,8
    48ca:	4b01                	li	s6,0
    48cc:	7ff00493          	li	s1,2047
    48d0:	4b89                	li	s7,2
    48d2:	bd6d                	j	478c <__divdf3+0x52>
    48d4:	8a22                	mv	s4,s0
    48d6:	8b4a                	mv	s6,s2
    48d8:	4431                	li	s0,12
    48da:	7ff00493          	li	s1,2047
    48de:	4b8d                	li	s7,3
    48e0:	b575                	j	478c <__divdf3+0x52>
    48e2:	4411                	li	s0,4
    48e4:	4b01                	li	s6,0
    48e6:	4481                	li	s1,0
    48e8:	4b85                	li	s7,1
    48ea:	b54d                	j	478c <__divdf3+0x52>
    48ec:	00146413          	ori	s0,s0,1
    48f0:	4881                	li	a7,0
    48f2:	4585                	li	a1,1
    48f4:	bde9                	j	47ce <__divdf3+0x94>
    48f6:	00346413          	ori	s0,s0,3
    48fa:	874a                	mv	a4,s2
    48fc:	458d                	li	a1,3
    48fe:	bdc1                	j	47ce <__divdf3+0x94>
    4900:	2e050a63          	beqz	a0,4bf4 <__divdf3+0x4ba>
    4904:	4785                	li	a5,1
    4906:	8f89                	sub	a5,a5,a0
    4908:	03800693          	li	a3,56
    490c:	32f6dd63          	bge	a3,a5,4c46 <__divdf3+0x50c>
    4910:	4601                	li	a2,0
    4912:	4781                	li	a5,0
    4914:	4701                	li	a4,0
    4916:	bdcd                	j	4808 <__divdf3+0xce>
    4918:	86ce                	mv	a3,s3
    491a:	4789                	li	a5,2
    491c:	3af58d63          	beq	a1,a5,4cd6 <__divdf3+0x59c>
    4920:	478d                	li	a5,3
    4922:	f0f587e3          	beq	a1,a5,4830 <__divdf3+0xf6>
    4926:	4785                	li	a5,1
    4928:	8836                	mv	a6,a3
    492a:	fef583e3          	beq	a1,a5,4910 <__divdf3+0x1d6>
    492e:	3ff48513          	addi	a0,s1,1023
    4932:	fca057e3          	blez	a0,4900 <__divdf3+0x1c6>
    4936:	0078f793          	andi	a5,a7,7
    493a:	28079663          	bnez	a5,4bc6 <__divdf3+0x48c>
    493e:	0038d693          	srli	a3,a7,0x3
    4942:	00771793          	slli	a5,a4,0x7
    4946:	0007d863          	bgez	a5,4956 <__divdf3+0x21c>
    494a:	ff0007b7          	lui	a5,0xff000
    494e:	17fd                	addi	a5,a5,-1
    4950:	8f7d                	and	a4,a4,a5
    4952:	40048513          	addi	a0,s1,1024
    4956:	7fe00793          	li	a5,2046
    495a:	eaa7c3e3          	blt	a5,a0,4800 <__divdf3+0xc6>
    495e:	01d71613          	slli	a2,a4,0x1d
    4962:	00971793          	slli	a5,a4,0x9
    4966:	83b1                	srli	a5,a5,0xc
    4968:	00d66733          	or	a4,a2,a3
    496c:	7ff57613          	andi	a2,a0,2047
    4970:	bd61                	j	4808 <__divdf3+0xce>
    4972:	86d6                	mv	a3,s5
    4974:	8752                	mv	a4,s4
    4976:	88da                	mv	a7,s6
    4978:	85de                	mv	a1,s7
    497a:	b745                	j	491a <__divdf3+0x1e0>
    497c:	23476163          	bltu	a4,s4,4b9e <__divdf3+0x464>
    4980:	20ea0d63          	beq	s4,a4,4b9a <__divdf3+0x460>
    4984:	86da                	mv	a3,s6
    4986:	14fd                	addi	s1,s1,-1
    4988:	8452                	mv	s0,s4
    498a:	4b01                	li	s6,0
    498c:	00871793          	slli	a5,a4,0x8
    4990:	0188d313          	srli	t1,a7,0x18
    4994:	00f36333          	or	t1,t1,a5
    4998:	01035e93          	srli	t4,t1,0x10
    499c:	03d457b3          	divu	a5,s0,t4
    49a0:	01031f13          	slli	t5,t1,0x10
    49a4:	010f5f13          	srli	t5,t5,0x10
    49a8:	0106d593          	srli	a1,a3,0x10
    49ac:	00889e13          	slli	t3,a7,0x8
    49b0:	03d47433          	remu	s0,s0,t4
    49b4:	02ff0733          	mul	a4,t5,a5
    49b8:	0442                	slli	s0,s0,0x10
    49ba:	8dc1                	or	a1,a1,s0
    49bc:	00e5fb63          	bgeu	a1,a4,49d2 <__divdf3+0x298>
    49c0:	959a                	add	a1,a1,t1
    49c2:	fff78613          	addi	a2,a5,-1 # feffffff <_eusrstack+0xdefeffff>
    49c6:	2665ee63          	bltu	a1,t1,4c42 <__divdf3+0x508>
    49ca:	26e5fc63          	bgeu	a1,a4,4c42 <__divdf3+0x508>
    49ce:	17f9                	addi	a5,a5,-2
    49d0:	959a                	add	a1,a1,t1
    49d2:	8d99                	sub	a1,a1,a4
    49d4:	03d5d733          	divu	a4,a1,t4
    49d8:	06c2                	slli	a3,a3,0x10
    49da:	82c1                	srli	a3,a3,0x10
    49dc:	03d5f5b3          	remu	a1,a1,t4
    49e0:	02ef0633          	mul	a2,t5,a4
    49e4:	05c2                	slli	a1,a1,0x10
    49e6:	8dd5                	or	a1,a1,a3
    49e8:	00c5fb63          	bgeu	a1,a2,49fe <__divdf3+0x2c4>
    49ec:	959a                	add	a1,a1,t1
    49ee:	fff70693          	addi	a3,a4,-1 # 7fffff <_data_lma+0x7f69db>
    49f2:	2465e663          	bltu	a1,t1,4c3e <__divdf3+0x504>
    49f6:	24c5f463          	bgeu	a1,a2,4c3e <__divdf3+0x504>
    49fa:	1779                	addi	a4,a4,-2
    49fc:	959a                	add	a1,a1,t1
    49fe:	07c2                	slli	a5,a5,0x10
    4a00:	6441                	lui	s0,0x10
    4a02:	8f5d                	or	a4,a4,a5
    4a04:	fff40793          	addi	a5,s0,-1 # ffff <_data_lma+0x69db>
    4a08:	00f77533          	and	a0,a4,a5
    4a0c:	01075893          	srli	a7,a4,0x10
    4a10:	010e5f93          	srli	t6,t3,0x10
    4a14:	00fe77b3          	and	a5,t3,a5
    4a18:	02f502b3          	mul	t0,a0,a5
    4a1c:	40c586b3          	sub	a3,a1,a2
    4a20:	02f883b3          	mul	t2,a7,a5
    4a24:	0102d593          	srli	a1,t0,0x10
    4a28:	02af8633          	mul	a2,t6,a0
    4a2c:	961e                	add	a2,a2,t2
    4a2e:	962e                	add	a2,a2,a1
    4a30:	03f88533          	mul	a0,a7,t6
    4a34:	00767363          	bgeu	a2,t2,4a3a <__divdf3+0x300>
    4a38:	9522                	add	a0,a0,s0
    4a3a:	68c1                	lui	a7,0x10
    4a3c:	18fd                	addi	a7,a7,-1
    4a3e:	01065593          	srli	a1,a2,0x10
    4a42:	01167633          	and	a2,a2,a7
    4a46:	0642                	slli	a2,a2,0x10
    4a48:	0112f8b3          	and	a7,t0,a7
    4a4c:	95aa                	add	a1,a1,a0
    4a4e:	9646                	add	a2,a2,a7
    4a50:	12b6e663          	bltu	a3,a1,4b7c <__divdf3+0x442>
    4a54:	12b68263          	beq	a3,a1,4b78 <__divdf3+0x43e>
    4a58:	40cb0633          	sub	a2,s6,a2
    4a5c:	8e8d                	sub	a3,a3,a1
    4a5e:	00cb3b33          	sltu	s6,s6,a2
    4a62:	41668b33          	sub	s6,a3,s6
    4a66:	3ff48513          	addi	a0,s1,1023
    4a6a:	17630c63          	beq	t1,s6,4be2 <__divdf3+0x4a8>
    4a6e:	03db58b3          	divu	a7,s6,t4
    4a72:	01065593          	srli	a1,a2,0x10
    4a76:	03db7b33          	remu	s6,s6,t4
    4a7a:	031f06b3          	mul	a3,t5,a7
    4a7e:	0b42                	slli	s6,s6,0x10
    4a80:	0165eb33          	or	s6,a1,s6
    4a84:	00db7b63          	bgeu	s6,a3,4a9a <__divdf3+0x360>
    4a88:	9b1a                	add	s6,s6,t1
    4a8a:	fff88593          	addi	a1,a7,-1 # ffff <_data_lma+0x69db>
    4a8e:	206b6d63          	bltu	s6,t1,4ca8 <__divdf3+0x56e>
    4a92:	20db7b63          	bgeu	s6,a3,4ca8 <__divdf3+0x56e>
    4a96:	18f9                	addi	a7,a7,-2
    4a98:	9b1a                	add	s6,s6,t1
    4a9a:	40db0b33          	sub	s6,s6,a3
    4a9e:	03db56b3          	divu	a3,s6,t4
    4aa2:	0642                	slli	a2,a2,0x10
    4aa4:	8241                	srli	a2,a2,0x10
    4aa6:	03db7b33          	remu	s6,s6,t4
    4aaa:	02df0f33          	mul	t5,t5,a3
    4aae:	0b42                	slli	s6,s6,0x10
    4ab0:	01666633          	or	a2,a2,s6
    4ab4:	01e67b63          	bgeu	a2,t5,4aca <__divdf3+0x390>
    4ab8:	961a                	add	a2,a2,t1
    4aba:	fff68593          	addi	a1,a3,-1 # 7fffff <_data_lma+0x7f69db>
    4abe:	1e666763          	bltu	a2,t1,4cac <__divdf3+0x572>
    4ac2:	1fe67563          	bgeu	a2,t5,4cac <__divdf3+0x572>
    4ac6:	16f9                	addi	a3,a3,-2
    4ac8:	961a                	add	a2,a2,t1
    4aca:	08c2                	slli	a7,a7,0x10
    4acc:	00d8e8b3          	or	a7,a7,a3
    4ad0:	01089593          	slli	a1,a7,0x10
    4ad4:	0108d293          	srli	t0,a7,0x10
    4ad8:	81c1                	srli	a1,a1,0x10
    4ada:	02f58eb3          	mul	t4,a1,a5
    4ade:	41e60633          	sub	a2,a2,t5
    4ae2:	02bf85b3          	mul	a1,t6,a1
    4ae6:	010ed693          	srli	a3,t4,0x10
    4aea:	02f287b3          	mul	a5,t0,a5
    4aee:	95be                	add	a1,a1,a5
    4af0:	96ae                	add	a3,a3,a1
    4af2:	025f8fb3          	mul	t6,t6,t0
    4af6:	00f6f463          	bgeu	a3,a5,4afe <__divdf3+0x3c4>
    4afa:	67c1                	lui	a5,0x10
    4afc:	9fbe                	add	t6,t6,a5
    4afe:	65c1                	lui	a1,0x10
    4b00:	15fd                	addi	a1,a1,-1
    4b02:	0106d793          	srli	a5,a3,0x10
    4b06:	8eed                	and	a3,a3,a1
    4b08:	06c2                	slli	a3,a3,0x10
    4b0a:	00befeb3          	and	t4,t4,a1
    4b0e:	9fbe                	add	t6,t6,a5
    4b10:	96f6                	add	a3,a3,t4
    4b12:	09f67f63          	bgeu	a2,t6,4bb0 <__divdf3+0x476>
    4b16:	961a                	add	a2,a2,t1
    4b18:	fff88793          	addi	a5,a7,-1
    4b1c:	1a666963          	bltu	a2,t1,4cce <__divdf3+0x594>
    4b20:	19f66863          	bltu	a2,t6,4cb0 <__divdf3+0x576>
    4b24:	1bf60f63          	beq	a2,t6,4ce2 <__divdf3+0x5a8>
    4b28:	88be                	mv	a7,a5
    4b2a:	0018e893          	ori	a7,a7,1
    4b2e:	b511                	j	4932 <__divdf3+0x1f8>
    4b30:	854a                	mv	a0,s2
    4b32:	054010ef          	jal	ra,5b86 <__clzsi2>
    4b36:	01550713          	addi	a4,a0,21
    4b3a:	45f1                	li	a1,28
    4b3c:	02050493          	addi	s1,a0,32
    4b40:	4622                	lw	a2,8(sp)
    4b42:	46b2                	lw	a3,12(sp)
    4b44:	d4e5dae3          	bge	a1,a4,4898 <__divdf3+0x15e>
    4b48:	ff850413          	addi	s0,a0,-8
    4b4c:	00891a33          	sll	s4,s2,s0
    4b50:	4b01                	li	s6,0
    4b52:	b385                	j	48b2 <__divdf3+0x178>
    4b54:	8532                	mv	a0,a2
    4b56:	c432                	sw	a2,8(sp)
    4b58:	02e010ef          	jal	ra,5b86 <__clzsi2>
    4b5c:	01550713          	addi	a4,a0,21
    4b60:	46f1                	li	a3,28
    4b62:	87aa                	mv	a5,a0
    4b64:	4622                	lw	a2,8(sp)
    4b66:	02050513          	addi	a0,a0,32
    4b6a:	cee6d6e3          	bge	a3,a4,4856 <__divdf3+0x11c>
    4b6e:	17e1                	addi	a5,a5,-8
    4b70:	00f61733          	sll	a4,a2,a5
    4b74:	4881                	li	a7,0
    4b76:	b9e5                	j	486e <__divdf3+0x134>
    4b78:	eecb70e3          	bgeu	s6,a2,4a58 <__divdf3+0x31e>
    4b7c:	9b72                	add	s6,s6,t3
    4b7e:	01cb3533          	sltu	a0,s6,t3
    4b82:	951a                	add	a0,a0,t1
    4b84:	96aa                	add	a3,a3,a0
    4b86:	fff70513          	addi	a0,a4,-1
    4b8a:	02d37863          	bgeu	t1,a3,4bba <__divdf3+0x480>
    4b8e:	10b6e663          	bltu	a3,a1,4c9a <__divdf3+0x560>
    4b92:	10d58263          	beq	a1,a3,4c96 <__divdf3+0x55c>
    4b96:	872a                	mv	a4,a0
    4b98:	b5c1                	j	4a58 <__divdf3+0x31e>
    4b9a:	df1b65e3          	bltu	s6,a7,4984 <__divdf3+0x24a>
    4b9e:	001b5593          	srli	a1,s6,0x1
    4ba2:	01fa1693          	slli	a3,s4,0x1f
    4ba6:	001a5413          	srli	s0,s4,0x1
    4baa:	8ecd                	or	a3,a3,a1
    4bac:	0b7e                	slli	s6,s6,0x1f
    4bae:	bbf9                	j	498c <__divdf3+0x252>
    4bb0:	f7f61de3          	bne	a2,t6,4b2a <__divdf3+0x3f0>
    4bb4:	d6068fe3          	beqz	a3,4932 <__divdf3+0x1f8>
    4bb8:	bfb9                	j	4b16 <__divdf3+0x3dc>
    4bba:	fcd31ee3          	bne	t1,a3,4b96 <__divdf3+0x45c>
    4bbe:	fdcb78e3          	bgeu	s6,t3,4b8e <__divdf3+0x454>
    4bc2:	872a                	mv	a4,a0
    4bc4:	bd51                	j	4a58 <__divdf3+0x31e>
    4bc6:	00f8f793          	andi	a5,a7,15
    4bca:	4691                	li	a3,4
    4bcc:	d6d789e3          	beq	a5,a3,493e <__divdf3+0x204>
    4bd0:	ffc8b793          	sltiu	a5,a7,-4
    4bd4:	00488693          	addi	a3,a7,4
    4bd8:	0017c793          	xori	a5,a5,1
    4bdc:	828d                	srli	a3,a3,0x3
    4bde:	973e                	add	a4,a4,a5
    4be0:	b38d                	j	4942 <__divdf3+0x208>
    4be2:	4681                	li	a3,0
    4be4:	4785                	li	a5,1
    4be6:	fea04ce3          	bgtz	a0,4bde <__divdf3+0x4a4>
    4bea:	58fd                	li	a7,-1
    4bec:	d0051ce3          	bnez	a0,4904 <__divdf3+0x1ca>
    4bf0:	c0100493          	li	s1,-1023
    4bf4:	4785                	li	a5,1
    4bf6:	41e48513          	addi	a0,s1,1054
    4bfa:	00a716b3          	sll	a3,a4,a0
    4bfe:	00f8d633          	srl	a2,a7,a5
    4c02:	00a89533          	sll	a0,a7,a0
    4c06:	8ed1                	or	a3,a3,a2
    4c08:	00a03533          	snez	a0,a0
    4c0c:	8ec9                	or	a3,a3,a0
    4c0e:	0076f613          	andi	a2,a3,7
    4c12:	00f75733          	srl	a4,a4,a5
    4c16:	ce01                	beqz	a2,4c2e <__divdf3+0x4f4>
    4c18:	00f6f793          	andi	a5,a3,15
    4c1c:	4611                	li	a2,4
    4c1e:	00c78863          	beq	a5,a2,4c2e <__divdf3+0x4f4>
    4c22:	00468793          	addi	a5,a3,4
    4c26:	00d7b6b3          	sltu	a3,a5,a3
    4c2a:	9736                	add	a4,a4,a3
    4c2c:	86be                	mv	a3,a5
    4c2e:	00871793          	slli	a5,a4,0x8
    4c32:	0407d863          	bgez	a5,4c82 <__divdf3+0x548>
    4c36:	4605                	li	a2,1
    4c38:	4781                	li	a5,0
    4c3a:	4701                	li	a4,0
    4c3c:	b6f1                	j	4808 <__divdf3+0xce>
    4c3e:	8736                	mv	a4,a3
    4c40:	bb7d                	j	49fe <__divdf3+0x2c4>
    4c42:	87b2                	mv	a5,a2
    4c44:	b379                	j	49d2 <__divdf3+0x298>
    4c46:	46fd                	li	a3,31
    4c48:	faf6d7e3          	bge	a3,a5,4bf6 <__divdf3+0x4bc>
    4c4c:	5605                	li	a2,-31
    4c4e:	8e09                	sub	a2,a2,a0
    4c50:	02000693          	li	a3,32
    4c54:	00c75633          	srl	a2,a4,a2
    4c58:	00d78863          	beq	a5,a3,4c68 <__divdf3+0x52e>
    4c5c:	43e48793          	addi	a5,s1,1086
    4c60:	00f717b3          	sll	a5,a4,a5
    4c64:	00f8e8b3          	or	a7,a7,a5
    4c68:	011036b3          	snez	a3,a7
    4c6c:	8ed1                	or	a3,a3,a2
    4c6e:	0076f613          	andi	a2,a3,7
    4c72:	4781                	li	a5,0
    4c74:	ce01                	beqz	a2,4c8c <__divdf3+0x552>
    4c76:	00f6f793          	andi	a5,a3,15
    4c7a:	4611                	li	a2,4
    4c7c:	4701                	li	a4,0
    4c7e:	fac792e3          	bne	a5,a2,4c22 <__divdf3+0x4e8>
    4c82:	00971793          	slli	a5,a4,0x9
    4c86:	01d71613          	slli	a2,a4,0x1d
    4c8a:	83b1                	srli	a5,a5,0xc
    4c8c:	0036d713          	srli	a4,a3,0x3
    4c90:	8f51                	or	a4,a4,a2
    4c92:	4601                	li	a2,0
    4c94:	be95                	j	4808 <__divdf3+0xce>
    4c96:	f0cb70e3          	bgeu	s6,a2,4b96 <__divdf3+0x45c>
    4c9a:	9b72                	add	s6,s6,t3
    4c9c:	01cb3533          	sltu	a0,s6,t3
    4ca0:	951a                	add	a0,a0,t1
    4ca2:	1779                	addi	a4,a4,-2
    4ca4:	96aa                	add	a3,a3,a0
    4ca6:	bb4d                	j	4a58 <__divdf3+0x31e>
    4ca8:	88ae                	mv	a7,a1
    4caa:	bbc5                	j	4a9a <__divdf3+0x360>
    4cac:	86ae                	mv	a3,a1
    4cae:	bd31                	j	4aca <__divdf3+0x390>
    4cb0:	001e1793          	slli	a5,t3,0x1
    4cb4:	01c7be33          	sltu	t3,a5,t3
    4cb8:	9372                	add	t1,t1,t3
    4cba:	961a                	add	a2,a2,t1
    4cbc:	18f9                	addi	a7,a7,-2
    4cbe:	8e3e                	mv	t3,a5
    4cc0:	e7f615e3          	bne	a2,t6,4b2a <__divdf3+0x3f0>
    4cc4:	c6de07e3          	beq	t3,a3,4932 <__divdf3+0x1f8>
    4cc8:	0018e893          	ori	a7,a7,1
    4ccc:	b19d                	j	4932 <__divdf3+0x1f8>
    4cce:	88be                	mv	a7,a5
    4cd0:	fff60ae3          	beq	a2,t6,4cc4 <__divdf3+0x58a>
    4cd4:	bd99                	j	4b2a <__divdf3+0x3f0>
    4cd6:	8836                	mv	a6,a3
    4cd8:	7ff00613          	li	a2,2047
    4cdc:	4781                	li	a5,0
    4cde:	4701                	li	a4,0
    4ce0:	b625                	j	4808 <__divdf3+0xce>
    4ce2:	fcde67e3          	bltu	t3,a3,4cb0 <__divdf3+0x576>
    4ce6:	88be                	mv	a7,a5
    4ce8:	fede10e3          	bne	t3,a3,4cc8 <__divdf3+0x58e>
    4cec:	b199                	j	4932 <__divdf3+0x1f8>

00004cee <__eqdf2>:
__eqdf2():
    4cee:	0145d713          	srli	a4,a1,0x14
    4cf2:	001007b7          	lui	a5,0x100
    4cf6:	17fd                	addi	a5,a5,-1
    4cf8:	0146d813          	srli	a6,a3,0x14
    4cfc:	7ff77713          	andi	a4,a4,2047
    4d00:	7ff00893          	li	a7,2047
    4d04:	00b7fe33          	and	t3,a5,a1
    4d08:	8eaa                	mv	t4,a0
    4d0a:	8ff5                	and	a5,a5,a3
    4d0c:	81fd                	srli	a1,a1,0x1f
    4d0e:	8f32                	mv	t5,a2
    4d10:	7ff87813          	andi	a6,a6,2047
    4d14:	82fd                	srli	a3,a3,0x1f
    4d16:	01170b63          	beq	a4,a7,4d2c <__eqdf2+0x3e>
    4d1a:	4305                	li	t1,1
    4d1c:	01180663          	beq	a6,a7,4d28 <__eqdf2+0x3a>
    4d20:	01071463          	bne	a4,a6,4d28 <__eqdf2+0x3a>
    4d24:	00fe0d63          	beq	t3,a5,4d3e <__eqdf2+0x50>
    4d28:	851a                	mv	a0,t1
    4d2a:	8082                	ret
    4d2c:	00ae68b3          	or	a7,t3,a0
    4d30:	4305                	li	t1,1
    4d32:	fe089be3          	bnez	a7,4d28 <__eqdf2+0x3a>
    4d36:	fee819e3          	bne	a6,a4,4d28 <__eqdf2+0x3a>
    4d3a:	8fd1                	or	a5,a5,a2
    4d3c:	f7f5                	bnez	a5,4d28 <__eqdf2+0x3a>
    4d3e:	4305                	li	t1,1
    4d40:	ffee94e3          	bne	t4,t5,4d28 <__eqdf2+0x3a>
    4d44:	4301                	li	t1,0
    4d46:	fed581e3          	beq	a1,a3,4d28 <__eqdf2+0x3a>
    4d4a:	4305                	li	t1,1
    4d4c:	ff71                	bnez	a4,4d28 <__eqdf2+0x3a>
    4d4e:	00ae6533          	or	a0,t3,a0
    4d52:	00a03333          	snez	t1,a0
    4d56:	bfc9                	j	4d28 <__eqdf2+0x3a>

00004d58 <__ledf2>:
__ltdf2():
    4d58:	0145d713          	srli	a4,a1,0x14
    4d5c:	001007b7          	lui	a5,0x100
    4d60:	17fd                	addi	a5,a5,-1
    4d62:	0146d813          	srli	a6,a3,0x14
    4d66:	7ff77713          	andi	a4,a4,2047
    4d6a:	7ff00893          	li	a7,2047
    4d6e:	00b7fe33          	and	t3,a5,a1
    4d72:	8eaa                	mv	t4,a0
    4d74:	8ff5                	and	a5,a5,a3
    4d76:	81fd                	srli	a1,a1,0x1f
    4d78:	8f32                	mv	t5,a2
    4d7a:	7ff87813          	andi	a6,a6,2047
    4d7e:	82fd                	srli	a3,a3,0x1f
    4d80:	03170e63          	beq	a4,a7,4dbc <__ledf2+0x64>
    4d84:	01180d63          	beq	a6,a7,4d9e <__ledf2+0x46>
    4d88:	e329                	bnez	a4,4dca <__ledf2+0x72>
    4d8a:	00ae68b3          	or	a7,t3,a0
    4d8e:	00081f63          	bnez	a6,4dac <__ledf2+0x54>
    4d92:	8e5d                	or	a2,a2,a5
    4d94:	ee01                	bnez	a2,4dac <__ledf2+0x54>
    4d96:	4301                	li	t1,0
    4d98:	04088c63          	beqz	a7,4df0 <__ledf2+0x98>
    4d9c:	a821                	j	4db4 <__ledf2+0x5c>
    4d9e:	00c7e8b3          	or	a7,a5,a2
    4da2:	4309                	li	t1,2
    4da4:	04089663          	bnez	a7,4df0 <__ledf2+0x98>
    4da8:	d36d                	beqz	a4,4d8a <__ledf2+0x32>
    4daa:	a005                	j	4dca <__ledf2+0x72>
    4dac:	04088463          	beqz	a7,4df4 <__ledf2+0x9c>
    4db0:	02d58563          	beq	a1,a3,4dda <__ledf2+0x82>
    4db4:	4305                	li	t1,1
    4db6:	cd8d                	beqz	a1,4df0 <__ledf2+0x98>
    4db8:	537d                	li	t1,-1
    4dba:	a81d                	j	4df0 <__ledf2+0x98>
    4dbc:	00ae68b3          	or	a7,t3,a0
    4dc0:	4309                	li	t1,2
    4dc2:	02089763          	bnez	a7,4df0 <__ledf2+0x98>
    4dc6:	02e80a63          	beq	a6,a4,4dfa <__ledf2+0xa2>
    4dca:	00081463          	bnez	a6,4dd2 <__ledf2+0x7a>
    4dce:	8e5d                	or	a2,a2,a5
    4dd0:	d275                	beqz	a2,4db4 <__ledf2+0x5c>
    4dd2:	fed591e3          	bne	a1,a3,4db4 <__ledf2+0x5c>
    4dd6:	fce84fe3          	blt	a6,a4,4db4 <__ledf2+0x5c>
    4dda:	01074963          	blt	a4,a6,4dec <__ledf2+0x94>
    4dde:	fdc7ebe3          	bltu	a5,t3,4db4 <__ledf2+0x5c>
    4de2:	00fe0f63          	beq	t3,a5,4e00 <__ledf2+0xa8>
    4de6:	4301                	li	t1,0
    4de8:	00fe7463          	bgeu	t3,a5,4df0 <__ledf2+0x98>
    4dec:	d5f1                	beqz	a1,4db8 <__ledf2+0x60>
    4dee:	4305                	li	t1,1
    4df0:	851a                	mv	a0,t1
    4df2:	8082                	ret
    4df4:	feed                	bnez	a3,4dee <__ledf2+0x96>
    4df6:	537d                	li	t1,-1
    4df8:	bfe5                	j	4df0 <__ledf2+0x98>
    4dfa:	8e5d                	or	a2,a2,a5
    4dfc:	da79                	beqz	a2,4dd2 <__ledf2+0x7a>
    4dfe:	bfcd                	j	4df0 <__ledf2+0x98>
    4e00:	fbdf6ae3          	bltu	t5,t4,4db4 <__ledf2+0x5c>
    4e04:	4301                	li	t1,0
    4e06:	ffeef5e3          	bgeu	t4,t5,4df0 <__ledf2+0x98>
    4e0a:	f1f5                	bnez	a1,4dee <__ledf2+0x96>
    4e0c:	b775                	j	4db8 <__ledf2+0x60>

00004e0e <__muldf3>:
__muldf3():
    4e0e:	7139                	addi	sp,sp,-64
    4e10:	d84a                	sw	s2,48(sp)
    4e12:	0145d913          	srli	s2,a1,0x14
    4e16:	d64e                	sw	s3,44(sp)
    4e18:	d452                	sw	s4,40(sp)
    4e1a:	d256                	sw	s5,36(sp)
    4e1c:	00c59993          	slli	s3,a1,0xc
    4e20:	de06                	sw	ra,60(sp)
    4e22:	dc22                	sw	s0,56(sp)
    4e24:	da26                	sw	s1,52(sp)
    4e26:	d05a                	sw	s6,32(sp)
    4e28:	ce5e                	sw	s7,28(sp)
    4e2a:	7ff97913          	andi	s2,s2,2047
    4e2e:	8a2a                	mv	s4,a0
    4e30:	00c9d993          	srli	s3,s3,0xc
    4e34:	01f5da93          	srli	s5,a1,0x1f
    4e38:	0e090d63          	beqz	s2,4f32 <__muldf3+0x124>
    4e3c:	7ff00793          	li	a5,2047
    4e40:	18f90663          	beq	s2,a5,4fcc <__muldf3+0x1be>
    4e44:	01d55413          	srli	s0,a0,0x1d
    4e48:	098e                	slli	s3,s3,0x3
    4e4a:	013469b3          	or	s3,s0,s3
    4e4e:	00800437          	lui	s0,0x800
    4e52:	0089e433          	or	s0,s3,s0
    4e56:	00351493          	slli	s1,a0,0x3
    4e5a:	c0190913          	addi	s2,s2,-1023
    4e5e:	4981                	li	s3,0
    4e60:	4b81                	li	s7,0
    4e62:	0146d713          	srli	a4,a3,0x14
    4e66:	00c69a13          	slli	s4,a3,0xc
    4e6a:	7ff77713          	andi	a4,a4,2047
    4e6e:	85b2                	mv	a1,a2
    4e70:	00ca5a13          	srli	s4,s4,0xc
    4e74:	01f6db13          	srli	s6,a3,0x1f
    4e78:	10070b63          	beqz	a4,4f8e <__muldf3+0x180>
    4e7c:	7ff00793          	li	a5,2047
    4e80:	04f70363          	beq	a4,a5,4ec6 <__muldf3+0xb8>
    4e84:	01d65793          	srli	a5,a2,0x1d
    4e88:	0a0e                	slli	s4,s4,0x3
    4e8a:	0147ea33          	or	s4,a5,s4
    4e8e:	c0170713          	addi	a4,a4,-1023
    4e92:	008007b7          	lui	a5,0x800
    4e96:	00fa67b3          	or	a5,s4,a5
    4e9a:	00361593          	slli	a1,a2,0x3
    4e9e:	993a                	add	s2,s2,a4
    4ea0:	4881                	li	a7,0
    4ea2:	016ac733          	xor	a4,s5,s6
    4ea6:	46bd                	li	a3,15
    4ea8:	853a                	mv	a0,a4
    4eaa:	00190813          	addi	a6,s2,1
    4eae:	1736e863          	bltu	a3,s3,501e <__muldf3+0x210>
    4eb2:	00004617          	auipc	a2,0x4
    4eb6:	30e60613          	addi	a2,a2,782 # 91c0 <MyUSBQUADescHD+0x108>
    4eba:	098a                	slli	s3,s3,0x2
    4ebc:	99b2                	add	s3,s3,a2
    4ebe:	0009a683          	lw	a3,0(s3)
    4ec2:	96b2                	add	a3,a3,a2
    4ec4:	8682                	jr	a3
    4ec6:	00ca67b3          	or	a5,s4,a2
    4eca:	7ff90913          	addi	s2,s2,2047
    4ece:	12079963          	bnez	a5,5000 <__muldf3+0x1f2>
    4ed2:	0029e993          	ori	s3,s3,2
    4ed6:	4581                	li	a1,0
    4ed8:	4889                	li	a7,2
    4eda:	b7e1                	j	4ea2 <__muldf3+0x94>
    4edc:	4701                	li	a4,0
    4ede:	7ff00793          	li	a5,2047
    4ee2:	00080437          	lui	s0,0x80
    4ee6:	4481                	li	s1,0
    4ee8:	0432                	slli	s0,s0,0xc
    4eea:	07d2                	slli	a5,a5,0x14
    4eec:	8031                	srli	s0,s0,0xc
    4eee:	077e                	slli	a4,a4,0x1f
    4ef0:	8c5d                	or	s0,s0,a5
    4ef2:	8c59                	or	s0,s0,a4
    4ef4:	85a2                	mv	a1,s0
    4ef6:	50f2                	lw	ra,60(sp)
    4ef8:	5462                	lw	s0,56(sp)
    4efa:	8526                	mv	a0,s1
    4efc:	5942                	lw	s2,48(sp)
    4efe:	54d2                	lw	s1,52(sp)
    4f00:	59b2                	lw	s3,44(sp)
    4f02:	5a22                	lw	s4,40(sp)
    4f04:	5a92                	lw	s5,36(sp)
    4f06:	5b02                	lw	s6,32(sp)
    4f08:	4bf2                	lw	s7,28(sp)
    4f0a:	6121                	addi	sp,sp,64
    4f0c:	8082                	ret
    4f0e:	855a                	mv	a0,s6
    4f10:	843e                	mv	s0,a5
    4f12:	84ae                	mv	s1,a1
    4f14:	8bc6                	mv	s7,a7
    4f16:	4789                	li	a5,2
    4f18:	0efb8d63          	beq	s7,a5,5012 <__muldf3+0x204>
    4f1c:	478d                	li	a5,3
    4f1e:	fafb8fe3          	beq	s7,a5,4edc <__muldf3+0xce>
    4f22:	4785                	li	a5,1
    4f24:	872a                	mv	a4,a0
    4f26:	38fb9e63          	bne	s7,a5,52c2 <__muldf3+0x4b4>
    4f2a:	4781                	li	a5,0
    4f2c:	4401                	li	s0,0
    4f2e:	4481                	li	s1,0
    4f30:	bf65                	j	4ee8 <__muldf3+0xda>
    4f32:	00a9e433          	or	s0,s3,a0
    4f36:	c061                	beqz	s0,4ff6 <__muldf3+0x1e8>
    4f38:	c636                	sw	a3,12(sp)
    4f3a:	c432                	sw	a2,8(sp)
    4f3c:	2a098c63          	beqz	s3,51f4 <__muldf3+0x3e6>
    4f40:	854e                	mv	a0,s3
    4f42:	445000ef          	jal	ra,5b86 <__clzsi2>
    4f46:	4622                	lw	a2,8(sp)
    4f48:	46b2                	lw	a3,12(sp)
    4f4a:	87aa                	mv	a5,a0
    4f4c:	ff550713          	addi	a4,a0,-11
    4f50:	4475                	li	s0,29
    4f52:	ff878493          	addi	s1,a5,-8 # 7ffff8 <_data_lma+0x7f69d4>
    4f56:	8c19                	sub	s0,s0,a4
    4f58:	009999b3          	sll	s3,s3,s1
    4f5c:	008a5433          	srl	s0,s4,s0
    4f60:	01346433          	or	s0,s0,s3
    4f64:	009a14b3          	sll	s1,s4,s1
    4f68:	0146d713          	srli	a4,a3,0x14
    4f6c:	c0d00913          	li	s2,-1011
    4f70:	00c69a13          	slli	s4,a3,0xc
    4f74:	7ff77713          	andi	a4,a4,2047
    4f78:	40f90933          	sub	s2,s2,a5
    4f7c:	4981                	li	s3,0
    4f7e:	4b81                	li	s7,0
    4f80:	85b2                	mv	a1,a2
    4f82:	00ca5a13          	srli	s4,s4,0xc
    4f86:	01f6db13          	srli	s6,a3,0x1f
    4f8a:	ee0719e3          	bnez	a4,4e7c <__muldf3+0x6e>
    4f8e:	00ca67b3          	or	a5,s4,a2
    4f92:	c7b1                	beqz	a5,4fde <__muldf3+0x1d0>
    4f94:	220a0f63          	beqz	s4,51d2 <__muldf3+0x3c4>
    4f98:	8552                	mv	a0,s4
    4f9a:	c432                	sw	a2,8(sp)
    4f9c:	3eb000ef          	jal	ra,5b86 <__clzsi2>
    4fa0:	4622                	lw	a2,8(sp)
    4fa2:	872a                	mv	a4,a0
    4fa4:	ff550693          	addi	a3,a0,-11
    4fa8:	47f5                	li	a5,29
    4faa:	ff870593          	addi	a1,a4,-8
    4fae:	8f95                	sub	a5,a5,a3
    4fb0:	00ba1a33          	sll	s4,s4,a1
    4fb4:	00f657b3          	srl	a5,a2,a5
    4fb8:	0147e7b3          	or	a5,a5,s4
    4fbc:	00b615b3          	sll	a1,a2,a1
    4fc0:	40e90933          	sub	s2,s2,a4
    4fc4:	c0d90913          	addi	s2,s2,-1011
    4fc8:	4881                	li	a7,0
    4fca:	bde1                	j	4ea2 <__muldf3+0x94>
    4fcc:	00a9e433          	or	s0,s3,a0
    4fd0:	ec01                	bnez	s0,4fe8 <__muldf3+0x1da>
    4fd2:	49a1                	li	s3,8
    4fd4:	4481                	li	s1,0
    4fd6:	7ff00913          	li	s2,2047
    4fda:	4b89                	li	s7,2
    4fdc:	b559                	j	4e62 <__muldf3+0x54>
    4fde:	0019e993          	ori	s3,s3,1
    4fe2:	4581                	li	a1,0
    4fe4:	4885                	li	a7,1
    4fe6:	bd75                	j	4ea2 <__muldf3+0x94>
    4fe8:	844e                	mv	s0,s3
    4fea:	84aa                	mv	s1,a0
    4fec:	49b1                	li	s3,12
    4fee:	7ff00913          	li	s2,2047
    4ff2:	4b8d                	li	s7,3
    4ff4:	b5bd                	j	4e62 <__muldf3+0x54>
    4ff6:	4991                	li	s3,4
    4ff8:	4481                	li	s1,0
    4ffa:	4901                	li	s2,0
    4ffc:	4b85                	li	s7,1
    4ffe:	b595                	j	4e62 <__muldf3+0x54>
    5000:	0039e993          	ori	s3,s3,3
    5004:	87d2                	mv	a5,s4
    5006:	488d                	li	a7,3
    5008:	bd69                	j	4ea2 <__muldf3+0x94>
    500a:	4789                	li	a5,2
    500c:	8556                	mv	a0,s5
    500e:	f0fb97e3          	bne	s7,a5,4f1c <__muldf3+0x10e>
    5012:	872a                	mv	a4,a0
    5014:	7ff00793          	li	a5,2047
    5018:	4401                	li	s0,0
    501a:	4481                	li	s1,0
    501c:	b5f1                	j	4ee8 <__muldf3+0xda>
    501e:	6ec1                	lui	t4,0x10
    5020:	fffe8613          	addi	a2,t4,-1 # ffff <_data_lma+0x69db>
    5024:	0104d693          	srli	a3,s1,0x10
    5028:	0105de13          	srli	t3,a1,0x10
    502c:	8cf1                	and	s1,s1,a2
    502e:	8df1                	and	a1,a1,a2
    5030:	02958633          	mul	a2,a1,s1
    5034:	02b68333          	mul	t1,a3,a1
    5038:	01065893          	srli	a7,a2,0x10
    503c:	029e0533          	mul	a0,t3,s1
    5040:	951a                	add	a0,a0,t1
    5042:	98aa                	add	a7,a7,a0
    5044:	03c682b3          	mul	t0,a3,t3
    5048:	0068f363          	bgeu	a7,t1,504e <__muldf3+0x240>
    504c:	92f6                	add	t0,t0,t4
    504e:	6fc1                	lui	t6,0x10
    5050:	ffff8313          	addi	t1,t6,-1 # ffff <_data_lma+0x69db>
    5054:	0067f533          	and	a0,a5,t1
    5058:	0107d393          	srli	t2,a5,0x10
    505c:	0068f7b3          	and	a5,a7,t1
    5060:	07c2                	slli	a5,a5,0x10
    5062:	00667333          	and	t1,a2,t1
    5066:	933e                	add	t1,t1,a5
    5068:	02950633          	mul	a2,a0,s1
    506c:	0108d893          	srli	a7,a7,0x10
    5070:	02a687b3          	mul	a5,a3,a0
    5074:	01065f13          	srli	t5,a2,0x10
    5078:	029384b3          	mul	s1,t2,s1
    507c:	94be                	add	s1,s1,a5
    507e:	94fa                	add	s1,s1,t5
    5080:	02768eb3          	mul	t4,a3,t2
    5084:	00f4f363          	bgeu	s1,a5,508a <__muldf3+0x27c>
    5088:	9efe                	add	t4,t4,t6
    508a:	6a41                	lui	s4,0x10
    508c:	fffa0793          	addi	a5,s4,-1 # ffff <_data_lma+0x69db>
    5090:	01045f93          	srli	t6,s0,0x10
    5094:	00f476b3          	and	a3,s0,a5
    5098:	00f4f9b3          	and	s3,s1,a5
    509c:	8e7d                	and	a2,a2,a5
    509e:	80c1                	srli	s1,s1,0x10
    50a0:	02d58433          	mul	s0,a1,a3
    50a4:	09c2                	slli	s3,s3,0x10
    50a6:	01d48f33          	add	t5,s1,t4
    50aa:	99b2                	add	s3,s3,a2
    50ac:	98ce                	add	a7,a7,s3
    50ae:	02de07b3          	mul	a5,t3,a3
    50b2:	01045e93          	srli	t4,s0,0x10
    50b6:	02bf85b3          	mul	a1,t6,a1
    50ba:	97ae                	add	a5,a5,a1
    50bc:	9ebe                	add	t4,t4,a5
    50be:	03fe0e33          	mul	t3,t3,t6
    50c2:	00bef363          	bgeu	t4,a1,50c8 <__muldf3+0x2ba>
    50c6:	9e52                	add	t3,t3,s4
    50c8:	67c1                	lui	a5,0x10
    50ca:	fff78593          	addi	a1,a5,-1 # ffff <_data_lma+0x69db>
    50ce:	00bef633          	and	a2,t4,a1
    50d2:	8c6d                	and	s0,s0,a1
    50d4:	0642                	slli	a2,a2,0x10
    50d6:	9622                	add	a2,a2,s0
    50d8:	010ede93          	srli	t4,t4,0x10
    50dc:	02d505b3          	mul	a1,a0,a3
    50e0:	9e76                	add	t3,t3,t4
    50e2:	02af8533          	mul	a0,t6,a0
    50e6:	0105d413          	srli	s0,a1,0x10
    50ea:	02d386b3          	mul	a3,t2,a3
    50ee:	96aa                	add	a3,a3,a0
    50f0:	96a2                	add	a3,a3,s0
    50f2:	03f38fb3          	mul	t6,t2,t6
    50f6:	00a6f363          	bgeu	a3,a0,50fc <__muldf3+0x2ee>
    50fa:	9fbe                	add	t6,t6,a5
    50fc:	6541                	lui	a0,0x10
    50fe:	157d                	addi	a0,a0,-1
    5100:	00a6f7b3          	and	a5,a3,a0
    5104:	07c2                	slli	a5,a5,0x10
    5106:	8d6d                	and	a0,a0,a1
    5108:	97aa                	add	a5,a5,a0
    510a:	005885b3          	add	a1,a7,t0
    510e:	0135b9b3          	sltu	s3,a1,s3
    5112:	97fa                	add	a5,a5,t5
    5114:	95b2                	add	a1,a1,a2
    5116:	01378433          	add	s0,a5,s3
    511a:	00c5b633          	sltu	a2,a1,a2
    511e:	01c40eb3          	add	t4,s0,t3
    5122:	00ce8533          	add	a0,t4,a2
    5126:	01343433          	sltu	s0,s0,s3
    512a:	01e7b7b3          	sltu	a5,a5,t5
    512e:	8fc1                	or	a5,a5,s0
    5130:	01cebe33          	sltu	t3,t4,t3
    5134:	0106d413          	srli	s0,a3,0x10
    5138:	00c53633          	sltu	a2,a0,a2
    513c:	943e                	add	s0,s0,a5
    513e:	00ce6633          	or	a2,t3,a2
    5142:	00959493          	slli	s1,a1,0x9
    5146:	9432                	add	s0,s0,a2
    5148:	947e                	add	s0,s0,t6
    514a:	0064e4b3          	or	s1,s1,t1
    514e:	0426                	slli	s0,s0,0x9
    5150:	01755693          	srli	a3,a0,0x17
    5154:	009034b3          	snez	s1,s1
    5158:	81dd                	srli	a1,a1,0x17
    515a:	00951793          	slli	a5,a0,0x9
    515e:	8ccd                	or	s1,s1,a1
    5160:	8c55                	or	s0,s0,a3
    5162:	8cdd                	or	s1,s1,a5
    5164:	00741793          	slli	a5,s0,0x7
    5168:	0007db63          	bgez	a5,517e <__muldf3+0x370>
    516c:	0014d793          	srli	a5,s1,0x1
    5170:	8885                	andi	s1,s1,1
    5172:	01f41693          	slli	a3,s0,0x1f
    5176:	8cdd                	or	s1,s1,a5
    5178:	8cd5                	or	s1,s1,a3
    517a:	8005                	srli	s0,s0,0x1
    517c:	8942                	mv	s2,a6
    517e:	3ff90793          	addi	a5,s2,1023
    5182:	08f05963          	blez	a5,5214 <__muldf3+0x406>
    5186:	0074f693          	andi	a3,s1,7
    518a:	ce81                	beqz	a3,51a2 <__muldf3+0x394>
    518c:	00f4f693          	andi	a3,s1,15
    5190:	4611                	li	a2,4
    5192:	00c68863          	beq	a3,a2,51a2 <__muldf3+0x394>
    5196:	00448693          	addi	a3,s1,4
    519a:	0096b4b3          	sltu	s1,a3,s1
    519e:	9426                	add	s0,s0,s1
    51a0:	84b6                	mv	s1,a3
    51a2:	00741693          	slli	a3,s0,0x7
    51a6:	0006d863          	bgez	a3,51b6 <__muldf3+0x3a8>
    51aa:	ff0007b7          	lui	a5,0xff000
    51ae:	17fd                	addi	a5,a5,-1
    51b0:	8c7d                	and	s0,s0,a5
    51b2:	40090793          	addi	a5,s2,1024
    51b6:	7fe00693          	li	a3,2046
    51ba:	0ef6cf63          	blt	a3,a5,52b8 <__muldf3+0x4aa>
    51be:	0034d693          	srli	a3,s1,0x3
    51c2:	01d41493          	slli	s1,s0,0x1d
    51c6:	0426                	slli	s0,s0,0x9
    51c8:	8cd5                	or	s1,s1,a3
    51ca:	8031                	srli	s0,s0,0xc
    51cc:	7ff7f793          	andi	a5,a5,2047
    51d0:	bb21                	j	4ee8 <__muldf3+0xda>
    51d2:	8532                	mv	a0,a2
    51d4:	c432                	sw	a2,8(sp)
    51d6:	1b1000ef          	jal	ra,5b86 <__clzsi2>
    51da:	01550693          	addi	a3,a0,21 # 10015 <_data_lma+0x69f1>
    51de:	47f1                	li	a5,28
    51e0:	02050713          	addi	a4,a0,32
    51e4:	4622                	lw	a2,8(sp)
    51e6:	dcd7d1e3          	bge	a5,a3,4fa8 <__muldf3+0x19a>
    51ea:	1561                	addi	a0,a0,-8
    51ec:	00a617b3          	sll	a5,a2,a0
    51f0:	4581                	li	a1,0
    51f2:	b3f9                	j	4fc0 <__muldf3+0x1b2>
    51f4:	193000ef          	jal	ra,5b86 <__clzsi2>
    51f8:	01550713          	addi	a4,a0,21
    51fc:	45f1                	li	a1,28
    51fe:	02050793          	addi	a5,a0,32
    5202:	4622                	lw	a2,8(sp)
    5204:	46b2                	lw	a3,12(sp)
    5206:	d4e5d5e3          	bge	a1,a4,4f50 <__muldf3+0x142>
    520a:	1561                	addi	a0,a0,-8
    520c:	00aa1433          	sll	s0,s4,a0
    5210:	4481                	li	s1,0
    5212:	bb99                	j	4f68 <__muldf3+0x15a>
    5214:	4685                	li	a3,1
    5216:	8e9d                	sub	a3,a3,a5
    5218:	e7b1                	bnez	a5,5264 <__muldf3+0x456>
    521a:	41e90913          	addi	s2,s2,1054
    521e:	012497b3          	sll	a5,s1,s2
    5222:	00d4d4b3          	srl	s1,s1,a3
    5226:	01241933          	sll	s2,s0,s2
    522a:	00f037b3          	snez	a5,a5
    522e:	009964b3          	or	s1,s2,s1
    5232:	8cdd                	or	s1,s1,a5
    5234:	0074f793          	andi	a5,s1,7
    5238:	00d456b3          	srl	a3,s0,a3
    523c:	cf81                	beqz	a5,5254 <__muldf3+0x446>
    523e:	00f4f793          	andi	a5,s1,15
    5242:	4611                	li	a2,4
    5244:	00c78863          	beq	a5,a2,5254 <__muldf3+0x446>
    5248:	00448793          	addi	a5,s1,4
    524c:	0097b4b3          	sltu	s1,a5,s1
    5250:	96a6                	add	a3,a3,s1
    5252:	84be                	mv	s1,a5
    5254:	00869793          	slli	a5,a3,0x8
    5258:	0407d863          	bgez	a5,52a8 <__muldf3+0x49a>
    525c:	4785                	li	a5,1
    525e:	4401                	li	s0,0
    5260:	4481                	li	s1,0
    5262:	b159                	j	4ee8 <__muldf3+0xda>
    5264:	03800613          	li	a2,56
    5268:	ccd641e3          	blt	a2,a3,4f2a <__muldf3+0x11c>
    526c:	467d                	li	a2,31
    526e:	fad656e3          	bge	a2,a3,521a <__muldf3+0x40c>
    5272:	5605                	li	a2,-31
    5274:	40f607b3          	sub	a5,a2,a5
    5278:	02000593          	li	a1,32
    527c:	00f45633          	srl	a2,s0,a5
    5280:	00b68763          	beq	a3,a1,528e <__muldf3+0x480>
    5284:	43e90913          	addi	s2,s2,1086
    5288:	012417b3          	sll	a5,s0,s2
    528c:	8cdd                	or	s1,s1,a5
    528e:	009034b3          	snez	s1,s1
    5292:	8cd1                	or	s1,s1,a2
    5294:	0074f693          	andi	a3,s1,7
    5298:	4401                	li	s0,0
    529a:	ca99                	beqz	a3,52b0 <__muldf3+0x4a2>
    529c:	00f4f793          	andi	a5,s1,15
    52a0:	4611                	li	a2,4
    52a2:	4681                	li	a3,0
    52a4:	fac792e3          	bne	a5,a2,5248 <__muldf3+0x43a>
    52a8:	00969413          	slli	s0,a3,0x9
    52ac:	8031                	srli	s0,s0,0xc
    52ae:	06f6                	slli	a3,a3,0x1d
    52b0:	808d                	srli	s1,s1,0x3
    52b2:	8cd5                	or	s1,s1,a3
    52b4:	4781                	li	a5,0
    52b6:	b90d                	j	4ee8 <__muldf3+0xda>
    52b8:	7ff00793          	li	a5,2047
    52bc:	4401                	li	s0,0
    52be:	4481                	li	s1,0
    52c0:	b125                	j	4ee8 <__muldf3+0xda>
    52c2:	8942                	mv	s2,a6
    52c4:	bd6d                	j	517e <__muldf3+0x370>

000052c6 <__subdf3>:
__subdf3():
    52c6:	00100737          	lui	a4,0x100
    52ca:	177d                	addi	a4,a4,-1
    52cc:	1101                	addi	sp,sp,-32
    52ce:	00b77333          	and	t1,a4,a1
    52d2:	0146d893          	srli	a7,a3,0x14
    52d6:	8f75                	and	a4,a4,a3
    52d8:	01d65e93          	srli	t4,a2,0x1d
    52dc:	cc22                	sw	s0,24(sp)
    52de:	ca26                	sw	s1,20(sp)
    52e0:	030e                	slli	t1,t1,0x3
    52e2:	0145d493          	srli	s1,a1,0x14
    52e6:	01d55793          	srli	a5,a0,0x1d
    52ea:	070e                	slli	a4,a4,0x3
    52ec:	ce06                	sw	ra,28(sp)
    52ee:	c84a                	sw	s2,16(sp)
    52f0:	c64e                	sw	s3,12(sp)
    52f2:	7ff8f893          	andi	a7,a7,2047
    52f6:	7ff00e13          	li	t3,2047
    52fa:	00eee733          	or	a4,t4,a4
    52fe:	7ff4f493          	andi	s1,s1,2047
    5302:	01f5d413          	srli	s0,a1,0x1f
    5306:	0067e333          	or	t1,a5,t1
    530a:	00351f13          	slli	t5,a0,0x3
    530e:	82fd                	srli	a3,a3,0x1f
    5310:	00361e93          	slli	t4,a2,0x3
    5314:	19c88063          	beq	a7,t3,5494 <__subdf3+0x1ce>
    5318:	0016c693          	xori	a3,a3,1
    531c:	411485b3          	sub	a1,s1,a7
    5320:	12d40563          	beq	s0,a3,544a <__subdf3+0x184>
    5324:	18b05163          	blez	a1,54a6 <__subdf3+0x1e0>
    5328:	1a088b63          	beqz	a7,54de <__subdf3+0x218>
    532c:	008007b7          	lui	a5,0x800
    5330:	8f5d                	or	a4,a4,a5
    5332:	59c48063          	beq	s1,t3,58b2 <__subdf3+0x5ec>
    5336:	03800793          	li	a5,56
    533a:	34b7c363          	blt	a5,a1,5680 <__subdf3+0x3ba>
    533e:	47fd                	li	a5,31
    5340:	48b7c463          	blt	a5,a1,57c8 <__subdf3+0x502>
    5344:	02000793          	li	a5,32
    5348:	8f8d                	sub	a5,a5,a1
    534a:	00bed9b3          	srl	s3,t4,a1
    534e:	00f71833          	sll	a6,a4,a5
    5352:	00fe9eb3          	sll	t4,t4,a5
    5356:	01386833          	or	a6,a6,s3
    535a:	00b75733          	srl	a4,a4,a1
    535e:	01d039b3          	snez	s3,t4
    5362:	01386833          	or	a6,a6,s3
    5366:	40e30333          	sub	t1,t1,a4
    536a:	410f09b3          	sub	s3,t5,a6
    536e:	013f37b3          	sltu	a5,t5,s3
    5372:	40f30633          	sub	a2,t1,a5
    5376:	00861793          	slli	a5,a2,0x8
    537a:	2407d363          	bgez	a5,55c0 <__subdf3+0x2fa>
    537e:	00800937          	lui	s2,0x800
    5382:	197d                	addi	s2,s2,-1
    5384:	01267933          	and	s2,a2,s2
    5388:	2c090f63          	beqz	s2,5666 <__subdf3+0x3a0>
    538c:	854a                	mv	a0,s2
    538e:	7f8000ef          	jal	ra,5b86 <__clzsi2>
    5392:	ff850713          	addi	a4,a0,-8
    5396:	02000793          	li	a5,32
    539a:	8f99                	sub	a5,a5,a4
    539c:	00f9d7b3          	srl	a5,s3,a5
    53a0:	00e91633          	sll	a2,s2,a4
    53a4:	8fd1                	or	a5,a5,a2
    53a6:	00e999b3          	sll	s3,s3,a4
    53aa:	2a974463          	blt	a4,s1,5652 <__subdf3+0x38c>
    53ae:	8f05                	sub	a4,a4,s1
    53b0:	00170613          	addi	a2,a4,1 # 100001 <_data_lma+0xf69dd>
    53b4:	46fd                	li	a3,31
    53b6:	3ac6c463          	blt	a3,a2,575e <__subdf3+0x498>
    53ba:	02000713          	li	a4,32
    53be:	8f11                	sub	a4,a4,a2
    53c0:	00c9d6b3          	srl	a3,s3,a2
    53c4:	00e99833          	sll	a6,s3,a4
    53c8:	00e79733          	sll	a4,a5,a4
    53cc:	8f55                	or	a4,a4,a3
    53ce:	01003833          	snez	a6,a6
    53d2:	010769b3          	or	s3,a4,a6
    53d6:	00c7d633          	srl	a2,a5,a2
    53da:	4481                	li	s1,0
    53dc:	0079f793          	andi	a5,s3,7
    53e0:	cf81                	beqz	a5,53f8 <__subdf3+0x132>
    53e2:	00f9f693          	andi	a3,s3,15
    53e6:	4791                	li	a5,4
    53e8:	00f68863          	beq	a3,a5,53f8 <__subdf3+0x132>
    53ec:	00498693          	addi	a3,s3,4
    53f0:	0136b833          	sltu	a6,a3,s3
    53f4:	9642                	add	a2,a2,a6
    53f6:	89b6                	mv	s3,a3
    53f8:	00861793          	slli	a5,a2,0x8
    53fc:	1c07d663          	bgez	a5,55c8 <__subdf3+0x302>
    5400:	00148713          	addi	a4,s1,1
    5404:	7ff00793          	li	a5,2047
    5408:	8805                	andi	s0,s0,1
    540a:	20f70663          	beq	a4,a5,5616 <__subdf3+0x350>
    540e:	ff8007b7          	lui	a5,0xff800
    5412:	17fd                	addi	a5,a5,-1
    5414:	8ff1                	and	a5,a5,a2
    5416:	01d79813          	slli	a6,a5,0x1d
    541a:	0039d993          	srli	s3,s3,0x3
    541e:	07a6                	slli	a5,a5,0x9
    5420:	01386833          	or	a6,a6,s3
    5424:	83b1                	srli	a5,a5,0xc
    5426:	7ff77713          	andi	a4,a4,2047
    542a:	00c79693          	slli	a3,a5,0xc
    542e:	0752                	slli	a4,a4,0x14
    5430:	82b1                	srli	a3,a3,0xc
    5432:	047e                	slli	s0,s0,0x1f
    5434:	8ed9                	or	a3,a3,a4
    5436:	8ec1                	or	a3,a3,s0
    5438:	40f2                	lw	ra,28(sp)
    543a:	4462                	lw	s0,24(sp)
    543c:	44d2                	lw	s1,20(sp)
    543e:	4942                	lw	s2,16(sp)
    5440:	49b2                	lw	s3,12(sp)
    5442:	8542                	mv	a0,a6
    5444:	85b6                	mv	a1,a3
    5446:	6105                	addi	sp,sp,32
    5448:	8082                	ret
    544a:	0ab05663          	blez	a1,54f6 <__subdf3+0x230>
    544e:	12088a63          	beqz	a7,5582 <__subdf3+0x2bc>
    5452:	008007b7          	lui	a5,0x800
    5456:	8f5d                	or	a4,a4,a5
    5458:	2dc48663          	beq	s1,t3,5724 <__subdf3+0x45e>
    545c:	03800793          	li	a5,56
    5460:	18b7c763          	blt	a5,a1,55ee <__subdf3+0x328>
    5464:	47fd                	li	a5,31
    5466:	3cb7d163          	bge	a5,a1,5828 <__subdf3+0x562>
    546a:	fe058813          	addi	a6,a1,-32 # ffe0 <_data_lma+0x69bc>
    546e:	02000793          	li	a5,32
    5472:	010759b3          	srl	s3,a4,a6
    5476:	00f58a63          	beq	a1,a5,548a <__subdf3+0x1c4>
    547a:	04000793          	li	a5,64
    547e:	40b785b3          	sub	a1,a5,a1
    5482:	00b71733          	sll	a4,a4,a1
    5486:	00eeeeb3          	or	t4,t4,a4
    548a:	01d03833          	snez	a6,t4
    548e:	01386833          	or	a6,a6,s3
    5492:	a295                	j	55f6 <__subdf3+0x330>
    5494:	01d767b3          	or	a5,a4,t4
    5498:	80148593          	addi	a1,s1,-2047
    549c:	e399                	bnez	a5,54a2 <__subdf3+0x1dc>
    549e:	0016c693          	xori	a3,a3,1
    54a2:	04d40a63          	beq	s0,a3,54f6 <__subdf3+0x230>
    54a6:	e1d1                	bnez	a1,552a <__subdf3+0x264>
    54a8:	00148793          	addi	a5,s1,1
    54ac:	7fe7f793          	andi	a5,a5,2046
    54b0:	1e079863          	bnez	a5,56a0 <__subdf3+0x3da>
    54b4:	01e367b3          	or	a5,t1,t5
    54b8:	01d76833          	or	a6,a4,t4
    54bc:	16049263          	bnez	s1,5620 <__subdf3+0x35a>
    54c0:	3c078163          	beqz	a5,5882 <__subdf3+0x5bc>
    54c4:	42081563          	bnez	a6,58ee <__subdf3+0x628>
    54c8:	00351813          	slli	a6,a0,0x3
    54cc:	01d31693          	slli	a3,t1,0x1d
    54d0:	00385813          	srli	a6,a6,0x3
    54d4:	0106e833          	or	a6,a3,a6
    54d8:	00335793          	srli	a5,t1,0x3
    54dc:	a219                	j	55e2 <__subdf3+0x31c>
    54de:	01d767b3          	or	a5,a4,t4
    54e2:	1a078463          	beqz	a5,568a <__subdf3+0x3c4>
    54e6:	fff58793          	addi	a5,a1,-1
    54ea:	3a078a63          	beqz	a5,589e <__subdf3+0x5d8>
    54ee:	23c58b63          	beq	a1,t3,5724 <__subdf3+0x45e>
    54f2:	85be                	mv	a1,a5
    54f4:	b589                	j	5336 <__subdf3+0x70>
    54f6:	1c059863          	bnez	a1,56c6 <__subdf3+0x400>
    54fa:	00148693          	addi	a3,s1,1
    54fe:	7fe6f793          	andi	a5,a3,2046
    5502:	efc1                	bnez	a5,559a <__subdf3+0x2d4>
    5504:	01e367b3          	or	a5,t1,t5
    5508:	34049f63          	bnez	s1,5866 <__subdf3+0x5a0>
    550c:	44078c63          	beqz	a5,5964 <__subdf3+0x69e>
    5510:	01d767b3          	or	a5,a4,t4
    5514:	46079363          	bnez	a5,597a <__subdf3+0x6b4>
    5518:	050e                	slli	a0,a0,0x3
    551a:	01d31813          	slli	a6,t1,0x1d
    551e:	810d                	srli	a0,a0,0x3
    5520:	00a86833          	or	a6,a6,a0
    5524:	00335793          	srli	a5,t1,0x3
    5528:	a86d                	j	55e2 <__subdf3+0x31c>
    552a:	409885b3          	sub	a1,a7,s1
    552e:	20049663          	bnez	s1,573a <__subdf3+0x474>
    5532:	01e367b3          	or	a5,t1,t5
    5536:	30078c63          	beqz	a5,584e <__subdf3+0x588>
    553a:	fff58793          	addi	a5,a1,-1
    553e:	40078863          	beqz	a5,594e <__subdf3+0x688>
    5542:	7ff00513          	li	a0,2047
    5546:	20a58263          	beq	a1,a0,574a <__subdf3+0x484>
    554a:	85be                	mv	a1,a5
    554c:	03800793          	li	a5,56
    5550:	2ab7c163          	blt	a5,a1,57f2 <__subdf3+0x52c>
    5554:	47fd                	li	a5,31
    5556:	3cb7c763          	blt	a5,a1,5924 <__subdf3+0x65e>
    555a:	02000793          	li	a5,32
    555e:	8f8d                	sub	a5,a5,a1
    5560:	00f31833          	sll	a6,t1,a5
    5564:	00bf5633          	srl	a2,t5,a1
    5568:	00ff17b3          	sll	a5,t5,a5
    556c:	00c86833          	or	a6,a6,a2
    5570:	00f039b3          	snez	s3,a5
    5574:	00b35333          	srl	t1,t1,a1
    5578:	01386833          	or	a6,a6,s3
    557c:	40670733          	sub	a4,a4,t1
    5580:	acad                	j	57fa <__subdf3+0x534>
    5582:	01d767b3          	or	a5,a4,t4
    5586:	10078263          	beqz	a5,568a <__subdf3+0x3c4>
    558a:	fff58793          	addi	a5,a1,-1
    558e:	1e078e63          	beqz	a5,578a <__subdf3+0x4c4>
    5592:	2dc58f63          	beq	a1,t3,5870 <__subdf3+0x5aa>
    5596:	85be                	mv	a1,a5
    5598:	b5d1                	j	545c <__subdf3+0x196>
    559a:	7ff00793          	li	a5,2047
    559e:	06f68b63          	beq	a3,a5,5614 <__subdf3+0x34e>
    55a2:	9efa                	add	t4,t4,t5
    55a4:	01eeb633          	sltu	a2,t4,t5
    55a8:	00e307b3          	add	a5,t1,a4
    55ac:	97b2                	add	a5,a5,a2
    55ae:	01f79813          	slli	a6,a5,0x1f
    55b2:	001ede93          	srli	t4,t4,0x1
    55b6:	01d869b3          	or	s3,a6,t4
    55ba:	0017d613          	srli	a2,a5,0x1
    55be:	84b6                	mv	s1,a3
    55c0:	0079f793          	andi	a5,s3,7
    55c4:	e0079fe3          	bnez	a5,53e2 <__subdf3+0x11c>
    55c8:	01d61793          	slli	a5,a2,0x1d
    55cc:	0039d813          	srli	a6,s3,0x3
    55d0:	00f86833          	or	a6,a6,a5
    55d4:	85a6                	mv	a1,s1
    55d6:	00365793          	srli	a5,a2,0x3
    55da:	7ff00713          	li	a4,2047
    55de:	06e58063          	beq	a1,a4,563e <__subdf3+0x378>
    55e2:	07b2                	slli	a5,a5,0xc
    55e4:	83b1                	srli	a5,a5,0xc
    55e6:	7ff5f713          	andi	a4,a1,2047
    55ea:	8805                	andi	s0,s0,1
    55ec:	bd3d                	j	542a <__subdf3+0x164>
    55ee:	01d76733          	or	a4,a4,t4
    55f2:	00e03833          	snez	a6,a4
    55f6:	01e809b3          	add	s3,a6,t5
    55fa:	01e9b7b3          	sltu	a5,s3,t5
    55fe:	00678633          	add	a2,a5,t1
    5602:	00861793          	slli	a5,a2,0x8
    5606:	fa07dde3          	bgez	a5,55c0 <__subdf3+0x2fa>
    560a:	0485                	addi	s1,s1,1
    560c:	7ff00793          	li	a5,2047
    5610:	18f49b63          	bne	s1,a5,57a6 <__subdf3+0x4e0>
    5614:	8805                	andi	s0,s0,1
    5616:	7ff00713          	li	a4,2047
    561a:	4781                	li	a5,0
    561c:	4801                	li	a6,0
    561e:	b531                	j	542a <__subdf3+0x164>
    5620:	10079063          	bnez	a5,5720 <__subdf3+0x45a>
    5624:	3c080063          	beqz	a6,59e4 <__subdf3+0x71e>
    5628:	00361813          	slli	a6,a2,0x3
    562c:	01d71793          	slli	a5,a4,0x1d
    5630:	00385813          	srli	a6,a6,0x3
    5634:	00f86833          	or	a6,a6,a5
    5638:	8436                	mv	s0,a3
    563a:	00375793          	srli	a5,a4,0x3
    563e:	00f867b3          	or	a5,a6,a5
    5642:	dbe9                	beqz	a5,5614 <__subdf3+0x34e>
    5644:	4401                	li	s0,0
    5646:	7ff00713          	li	a4,2047
    564a:	000807b7          	lui	a5,0x80
    564e:	4801                	li	a6,0
    5650:	bbe9                	j	542a <__subdf3+0x164>
    5652:	ff800637          	lui	a2,0xff800
    5656:	167d                	addi	a2,a2,-1
    5658:	8e7d                	and	a2,a2,a5
    565a:	0079f793          	andi	a5,s3,7
    565e:	8c99                	sub	s1,s1,a4
    5660:	d80791e3          	bnez	a5,53e2 <__subdf3+0x11c>
    5664:	b795                	j	55c8 <__subdf3+0x302>
    5666:	854e                	mv	a0,s3
    5668:	2b39                	jal	5b86 <__clzsi2>
    566a:	01850713          	addi	a4,a0,24
    566e:	47fd                	li	a5,31
    5670:	d2e7d3e3          	bge	a5,a4,5396 <__subdf3+0xd0>
    5674:	ff850613          	addi	a2,a0,-8
    5678:	00c997b3          	sll	a5,s3,a2
    567c:	4981                	li	s3,0
    567e:	b335                	j	53aa <__subdf3+0xe4>
    5680:	01d76833          	or	a6,a4,t4
    5684:	01003833          	snez	a6,a6
    5688:	b1cd                	j	536a <__subdf3+0xa4>
    568a:	00351813          	slli	a6,a0,0x3
    568e:	01d31793          	slli	a5,t1,0x1d
    5692:	00385813          	srli	a6,a6,0x3
    5696:	00f86833          	or	a6,a6,a5
    569a:	00335793          	srli	a5,t1,0x3
    569e:	bf35                	j	55da <__subdf3+0x314>
    56a0:	41df09b3          	sub	s3,t5,t4
    56a4:	40e30933          	sub	s2,t1,a4
    56a8:	013f3633          	sltu	a2,t5,s3
    56ac:	40c90933          	sub	s2,s2,a2
    56b0:	00891793          	slli	a5,s2,0x8
    56b4:	2007ca63          	bltz	a5,58c8 <__subdf3+0x602>
    56b8:	0129e833          	or	a6,s3,s2
    56bc:	cc0816e3          	bnez	a6,5388 <__subdf3+0xc2>
    56c0:	4781                	li	a5,0
    56c2:	4401                	li	s0,0
    56c4:	bf39                	j	55e2 <__subdf3+0x31c>
    56c6:	409885b3          	sub	a1,a7,s1
    56ca:	14048163          	beqz	s1,580c <__subdf3+0x546>
    56ce:	008006b7          	lui	a3,0x800
    56d2:	7ff00793          	li	a5,2047
    56d6:	00d36333          	or	t1,t1,a3
    56da:	20f88163          	beq	a7,a5,58dc <__subdf3+0x616>
    56de:	03800793          	li	a5,56
    56e2:	22b7cc63          	blt	a5,a1,591a <__subdf3+0x654>
    56e6:	47fd                	li	a5,31
    56e8:	2cb7c963          	blt	a5,a1,59ba <__subdf3+0x6f4>
    56ec:	02000793          	li	a5,32
    56f0:	8f8d                	sub	a5,a5,a1
    56f2:	00f31833          	sll	a6,t1,a5
    56f6:	00bf56b3          	srl	a3,t5,a1
    56fa:	00ff17b3          	sll	a5,t5,a5
    56fe:	00d86833          	or	a6,a6,a3
    5702:	00f039b3          	snez	s3,a5
    5706:	00b35333          	srl	t1,t1,a1
    570a:	01386833          	or	a6,a6,s3
    570e:	971a                	add	a4,a4,t1
    5710:	01d809b3          	add	s3,a6,t4
    5714:	01d9b7b3          	sltu	a5,s3,t4
    5718:	00e78633          	add	a2,a5,a4
    571c:	84c6                	mv	s1,a7
    571e:	b5d5                	j	5602 <__subdf3+0x33c>
    5720:	f20812e3          	bnez	a6,5644 <__subdf3+0x37e>
    5724:	00351813          	slli	a6,a0,0x3
    5728:	01d31793          	slli	a5,t1,0x1d
    572c:	00385813          	srli	a6,a6,0x3
    5730:	00f86833          	or	a6,a6,a5
    5734:	00335793          	srli	a5,t1,0x3
    5738:	b719                	j	563e <__subdf3+0x378>
    573a:	00800537          	lui	a0,0x800
    573e:	7ff00793          	li	a5,2047
    5742:	00a36333          	or	t1,t1,a0
    5746:	e0f893e3          	bne	a7,a5,554c <__subdf3+0x286>
    574a:	060e                	slli	a2,a2,0x3
    574c:	01d71813          	slli	a6,a4,0x1d
    5750:	820d                	srli	a2,a2,0x3
    5752:	00c86833          	or	a6,a6,a2
    5756:	00375793          	srli	a5,a4,0x3
    575a:	8436                	mv	s0,a3
    575c:	b5cd                	j	563e <__subdf3+0x378>
    575e:	1705                	addi	a4,a4,-31
    5760:	02000693          	li	a3,32
    5764:	00e7d733          	srl	a4,a5,a4
    5768:	00d60a63          	beq	a2,a3,577c <__subdf3+0x4b6>
    576c:	04000693          	li	a3,64
    5770:	40c68633          	sub	a2,a3,a2
    5774:	00c79633          	sll	a2,a5,a2
    5778:	00c9e9b3          	or	s3,s3,a2
    577c:	01303833          	snez	a6,s3
    5780:	00e869b3          	or	s3,a6,a4
    5784:	4601                	li	a2,0
    5786:	4481                	li	s1,0
    5788:	bd25                	j	55c0 <__subdf3+0x2fa>
    578a:	01df09b3          	add	s3,t5,t4
    578e:	00e307b3          	add	a5,t1,a4
    5792:	01e9bf33          	sltu	t5,s3,t5
    5796:	01e78633          	add	a2,a5,t5
    579a:	00861793          	slli	a5,a2,0x8
    579e:	4485                	li	s1,1
    57a0:	e207d0e3          	bgez	a5,55c0 <__subdf3+0x2fa>
    57a4:	4489                	li	s1,2
    57a6:	ff8007b7          	lui	a5,0xff800
    57aa:	17fd                	addi	a5,a5,-1
    57ac:	8ff1                	and	a5,a5,a2
    57ae:	0019d713          	srli	a4,s3,0x1
    57b2:	0019f813          	andi	a6,s3,1
    57b6:	01076833          	or	a6,a4,a6
    57ba:	01f79993          	slli	s3,a5,0x1f
    57be:	0109e9b3          	or	s3,s3,a6
    57c2:	0017d613          	srli	a2,a5,0x1
    57c6:	b919                	j	53dc <__subdf3+0x116>
    57c8:	fe058813          	addi	a6,a1,-32
    57cc:	02000793          	li	a5,32
    57d0:	010759b3          	srl	s3,a4,a6
    57d4:	00f58a63          	beq	a1,a5,57e8 <__subdf3+0x522>
    57d8:	04000793          	li	a5,64
    57dc:	40b785b3          	sub	a1,a5,a1
    57e0:	00b71733          	sll	a4,a4,a1
    57e4:	00eeeeb3          	or	t4,t4,a4
    57e8:	01d03833          	snez	a6,t4
    57ec:	01386833          	or	a6,a6,s3
    57f0:	bead                	j	536a <__subdf3+0xa4>
    57f2:	01e36333          	or	t1,t1,t5
    57f6:	00603833          	snez	a6,t1
    57fa:	410e89b3          	sub	s3,t4,a6
    57fe:	013eb7b3          	sltu	a5,t4,s3
    5802:	40f70633          	sub	a2,a4,a5
    5806:	84c6                	mv	s1,a7
    5808:	8436                	mv	s0,a3
    580a:	b6b5                	j	5376 <__subdf3+0xb0>
    580c:	01e367b3          	or	a5,t1,t5
    5810:	18078763          	beqz	a5,599e <__subdf3+0x6d8>
    5814:	fff58793          	addi	a5,a1,-1
    5818:	1c078c63          	beqz	a5,59f0 <__subdf3+0x72a>
    581c:	7ff00693          	li	a3,2047
    5820:	0ad58e63          	beq	a1,a3,58dc <__subdf3+0x616>
    5824:	85be                	mv	a1,a5
    5826:	bd65                	j	56de <__subdf3+0x418>
    5828:	02000793          	li	a5,32
    582c:	8f8d                	sub	a5,a5,a1
    582e:	00bed9b3          	srl	s3,t4,a1
    5832:	00f71833          	sll	a6,a4,a5
    5836:	00fe9eb3          	sll	t4,t4,a5
    583a:	01386833          	or	a6,a6,s3
    583e:	00b75733          	srl	a4,a4,a1
    5842:	01d039b3          	snez	s3,t4
    5846:	01386833          	or	a6,a6,s3
    584a:	933a                	add	t1,t1,a4
    584c:	b36d                	j	55f6 <__subdf3+0x330>
    584e:	00361813          	slli	a6,a2,0x3
    5852:	01d71793          	slli	a5,a4,0x1d
    5856:	00385813          	srli	a6,a6,0x3
    585a:	0107e833          	or	a6,a5,a6
    585e:	8436                	mv	s0,a3
    5860:	00375793          	srli	a5,a4,0x3
    5864:	bb9d                	j	55da <__subdf3+0x314>
    5866:	cbbd                	beqz	a5,58dc <__subdf3+0x616>
    5868:	01d76733          	or	a4,a4,t4
    586c:	dc071ce3          	bnez	a4,5644 <__subdf3+0x37e>
    5870:	050e                	slli	a0,a0,0x3
    5872:	01d31813          	slli	a6,t1,0x1d
    5876:	810d                	srli	a0,a0,0x3
    5878:	00a86833          	or	a6,a6,a0
    587c:	00335793          	srli	a5,t1,0x3
    5880:	bb7d                	j	563e <__subdf3+0x378>
    5882:	e2080fe3          	beqz	a6,56c0 <__subdf3+0x3fa>
    5886:	00361813          	slli	a6,a2,0x3
    588a:	01d71793          	slli	a5,a4,0x1d
    588e:	00385813          	srli	a6,a6,0x3
    5892:	00f86833          	or	a6,a6,a5
    5896:	8436                	mv	s0,a3
    5898:	00375793          	srli	a5,a4,0x3
    589c:	b399                	j	55e2 <__subdf3+0x31c>
    589e:	41df09b3          	sub	s3,t5,t4
    58a2:	40e307b3          	sub	a5,t1,a4
    58a6:	013f3f33          	sltu	t5,t5,s3
    58aa:	41e78633          	sub	a2,a5,t5
    58ae:	4485                	li	s1,1
    58b0:	b4d9                	j	5376 <__subdf3+0xb0>
    58b2:	00351813          	slli	a6,a0,0x3
    58b6:	01d31693          	slli	a3,t1,0x1d
    58ba:	00385813          	srli	a6,a6,0x3
    58be:	0106e833          	or	a6,a3,a6
    58c2:	00335793          	srli	a5,t1,0x3
    58c6:	bba5                	j	563e <__subdf3+0x378>
    58c8:	41ee89b3          	sub	s3,t4,t5
    58cc:	40670633          	sub	a2,a4,t1
    58d0:	013eb933          	sltu	s2,t4,s3
    58d4:	41260933          	sub	s2,a2,s2
    58d8:	8436                	mv	s0,a3
    58da:	b47d                	j	5388 <__subdf3+0xc2>
    58dc:	060e                	slli	a2,a2,0x3
    58de:	01d71813          	slli	a6,a4,0x1d
    58e2:	820d                	srli	a2,a2,0x3
    58e4:	00c86833          	or	a6,a6,a2
    58e8:	00375793          	srli	a5,a4,0x3
    58ec:	bb89                	j	563e <__subdf3+0x378>
    58ee:	41df09b3          	sub	s3,t5,t4
    58f2:	40e307b3          	sub	a5,t1,a4
    58f6:	013f3633          	sltu	a2,t5,s3
    58fa:	40c78633          	sub	a2,a5,a2
    58fe:	00861793          	slli	a5,a2,0x8
    5902:	0a07d763          	bgez	a5,59b0 <__subdf3+0x6ea>
    5906:	41ee89b3          	sub	s3,t4,t5
    590a:	406707b3          	sub	a5,a4,t1
    590e:	013ebeb3          	sltu	t4,t4,s3
    5912:	41d78633          	sub	a2,a5,t4
    5916:	8436                	mv	s0,a3
    5918:	b4d1                	j	53dc <__subdf3+0x116>
    591a:	01e36333          	or	t1,t1,t5
    591e:	00603833          	snez	a6,t1
    5922:	b3fd                	j	5710 <__subdf3+0x44a>
    5924:	fe058813          	addi	a6,a1,-32
    5928:	02000793          	li	a5,32
    592c:	010359b3          	srl	s3,t1,a6
    5930:	00f58a63          	beq	a1,a5,5944 <__subdf3+0x67e>
    5934:	04000793          	li	a5,64
    5938:	40b785b3          	sub	a1,a5,a1
    593c:	00b31333          	sll	t1,t1,a1
    5940:	006f6f33          	or	t5,t5,t1
    5944:	01e03833          	snez	a6,t5
    5948:	01386833          	or	a6,a6,s3
    594c:	b57d                	j	57fa <__subdf3+0x534>
    594e:	41ee89b3          	sub	s3,t4,t5
    5952:	406707b3          	sub	a5,a4,t1
    5956:	013ebeb3          	sltu	t4,t4,s3
    595a:	41d78633          	sub	a2,a5,t4
    595e:	8436                	mv	s0,a3
    5960:	4485                	li	s1,1
    5962:	bc11                	j	5376 <__subdf3+0xb0>
    5964:	00361813          	slli	a6,a2,0x3
    5968:	01d71793          	slli	a5,a4,0x1d
    596c:	00385813          	srli	a6,a6,0x3
    5970:	00f86833          	or	a6,a6,a5
    5974:	00375793          	srli	a5,a4,0x3
    5978:	b1ad                	j	55e2 <__subdf3+0x31c>
    597a:	01df09b3          	add	s3,t5,t4
    597e:	00e307b3          	add	a5,t1,a4
    5982:	01e9bf33          	sltu	t5,s3,t5
    5986:	01e78633          	add	a2,a5,t5
    598a:	00861793          	slli	a5,a2,0x8
    598e:	c207d9e3          	bgez	a5,55c0 <__subdf3+0x2fa>
    5992:	ff8007b7          	lui	a5,0xff800
    5996:	17fd                	addi	a5,a5,-1
    5998:	8e7d                	and	a2,a2,a5
    599a:	4485                	li	s1,1
    599c:	b115                	j	55c0 <__subdf3+0x2fa>
    599e:	060e                	slli	a2,a2,0x3
    59a0:	01d71813          	slli	a6,a4,0x1d
    59a4:	820d                	srli	a2,a2,0x3
    59a6:	00c86833          	or	a6,a6,a2
    59aa:	00375793          	srli	a5,a4,0x3
    59ae:	b135                	j	55da <__subdf3+0x314>
    59b0:	00c9e833          	or	a6,s3,a2
    59b4:	d00806e3          	beqz	a6,56c0 <__subdf3+0x3fa>
    59b8:	b121                	j	55c0 <__subdf3+0x2fa>
    59ba:	fe058813          	addi	a6,a1,-32
    59be:	02000793          	li	a5,32
    59c2:	010359b3          	srl	s3,t1,a6
    59c6:	00f58a63          	beq	a1,a5,59da <__subdf3+0x714>
    59ca:	04000793          	li	a5,64
    59ce:	40b785b3          	sub	a1,a5,a1
    59d2:	00b31333          	sll	t1,t1,a1
    59d6:	006f6f33          	or	t5,t5,t1
    59da:	01e03833          	snez	a6,t5
    59de:	01386833          	or	a6,a6,s3
    59e2:	b33d                	j	5710 <__subdf3+0x44a>
    59e4:	4401                	li	s0,0
    59e6:	7ff00713          	li	a4,2047
    59ea:	000807b7          	lui	a5,0x80
    59ee:	bc35                	j	542a <__subdf3+0x164>
    59f0:	01df09b3          	add	s3,t5,t4
    59f4:	00e307b3          	add	a5,t1,a4
    59f8:	01d9beb3          	sltu	t4,s3,t4
    59fc:	01d78633          	add	a2,a5,t4
    5a00:	bb69                	j	579a <__subdf3+0x4d4>

00005a02 <__fixdfsi>:
__fixdfsi():
    5a02:	0145d793          	srli	a5,a1,0x14
    5a06:	001006b7          	lui	a3,0x100
    5a0a:	fff68713          	addi	a4,a3,-1 # fffff <_data_lma+0xf69db>
    5a0e:	7ff7f793          	andi	a5,a5,2047
    5a12:	3fe00613          	li	a2,1022
    5a16:	8f6d                	and	a4,a4,a1
    5a18:	81fd                	srli	a1,a1,0x1f
    5a1a:	00f65c63          	bge	a2,a5,5a32 <__fixdfsi+0x30>
    5a1e:	41d00613          	li	a2,1053
    5a22:	00f65a63          	bge	a2,a5,5a36 <__fixdfsi+0x34>
    5a26:	80000537          	lui	a0,0x80000
    5a2a:	fff54513          	not	a0,a0
    5a2e:	952e                	add	a0,a0,a1
    5a30:	8082                	ret
    5a32:	4501                	li	a0,0
    5a34:	8082                	ret
    5a36:	43300613          	li	a2,1075
    5a3a:	8e1d                	sub	a2,a2,a5
    5a3c:	487d                	li	a6,31
    5a3e:	8f55                	or	a4,a4,a3
    5a40:	00c85d63          	bge	a6,a2,5a5a <__fixdfsi+0x58>
    5a44:	41300693          	li	a3,1043
    5a48:	40f687b3          	sub	a5,a3,a5
    5a4c:	00f757b3          	srl	a5,a4,a5
    5a50:	40f00533          	neg	a0,a5
    5a54:	f1e5                	bnez	a1,5a34 <__fixdfsi+0x32>
    5a56:	853e                	mv	a0,a5
    5a58:	8082                	ret
    5a5a:	bed78793          	addi	a5,a5,-1043 # 7fbed <_data_lma+0x765c9>
    5a5e:	00f717b3          	sll	a5,a4,a5
    5a62:	00c55533          	srl	a0,a0,a2
    5a66:	8fc9                	or	a5,a5,a0
    5a68:	b7e5                	j	5a50 <__fixdfsi+0x4e>

00005a6a <__floatsidf>:
__floatsidf():
    5a6a:	1141                	addi	sp,sp,-16
    5a6c:	c606                	sw	ra,12(sp)
    5a6e:	c422                	sw	s0,8(sp)
    5a70:	c226                	sw	s1,4(sp)
    5a72:	cd05                	beqz	a0,5aaa <__floatsidf+0x40>
    5a74:	41f55793          	srai	a5,a0,0x1f
    5a78:	00a7c4b3          	xor	s1,a5,a0
    5a7c:	8c9d                	sub	s1,s1,a5
    5a7e:	842a                	mv	s0,a0
    5a80:	8526                	mv	a0,s1
    5a82:	2211                	jal	5b86 <__clzsi2>
    5a84:	41e00693          	li	a3,1054
    5a88:	8e89                	sub	a3,a3,a0
    5a8a:	47a9                	li	a5,10
    5a8c:	807d                	srli	s0,s0,0x1f
    5a8e:	7ff6f693          	andi	a3,a3,2047
    5a92:	02a7cd63          	blt	a5,a0,5acc <__floatsidf+0x62>
    5a96:	472d                	li	a4,11
    5a98:	8f09                	sub	a4,a4,a0
    5a9a:	00e4d7b3          	srl	a5,s1,a4
    5a9e:	0555                	addi	a0,a0,21
    5aa0:	07b2                	slli	a5,a5,0xc
    5aa2:	00a494b3          	sll	s1,s1,a0
    5aa6:	83b1                	srli	a5,a5,0xc
    5aa8:	a029                	j	5ab2 <__floatsidf+0x48>
    5aaa:	4401                	li	s0,0
    5aac:	4681                	li	a3,0
    5aae:	4781                	li	a5,0
    5ab0:	4481                	li	s1,0
    5ab2:	07b2                	slli	a5,a5,0xc
    5ab4:	06d2                	slli	a3,a3,0x14
    5ab6:	83b1                	srli	a5,a5,0xc
    5ab8:	047e                	slli	s0,s0,0x1f
    5aba:	8fd5                	or	a5,a5,a3
    5abc:	8fc1                	or	a5,a5,s0
    5abe:	40b2                	lw	ra,12(sp)
    5ac0:	4422                	lw	s0,8(sp)
    5ac2:	8526                	mv	a0,s1
    5ac4:	85be                	mv	a1,a5
    5ac6:	4492                	lw	s1,4(sp)
    5ac8:	0141                	addi	sp,sp,16
    5aca:	8082                	ret
    5acc:	1555                	addi	a0,a0,-11
    5ace:	00a497b3          	sll	a5,s1,a0
    5ad2:	07b2                	slli	a5,a5,0xc
    5ad4:	83b1                	srli	a5,a5,0xc
    5ad6:	4481                	li	s1,0
    5ad8:	bfe9                	j	5ab2 <__floatsidf+0x48>

00005ada <__extendsfdf2>:
__extendsfdf2():
    5ada:	01755713          	srli	a4,a0,0x17
    5ade:	0ff77713          	andi	a4,a4,255
    5ae2:	1141                	addi	sp,sp,-16
    5ae4:	00170793          	addi	a5,a4,1
    5ae8:	c422                	sw	s0,8(sp)
    5aea:	c226                	sw	s1,4(sp)
    5aec:	00951413          	slli	s0,a0,0x9
    5af0:	c606                	sw	ra,12(sp)
    5af2:	0fe7f793          	andi	a5,a5,254
    5af6:	8025                	srli	s0,s0,0x9
    5af8:	01f55493          	srli	s1,a0,0x1f
    5afc:	c785                	beqz	a5,5b24 <__extendsfdf2+0x4a>
    5afe:	00345793          	srli	a5,s0,0x3
    5b02:	38070713          	addi	a4,a4,896
    5b06:	0476                	slli	s0,s0,0x1d
    5b08:	07b2                	slli	a5,a5,0xc
    5b0a:	0752                	slli	a4,a4,0x14
    5b0c:	83b1                	srli	a5,a5,0xc
    5b0e:	01f49513          	slli	a0,s1,0x1f
    5b12:	8fd9                	or	a5,a5,a4
    5b14:	8fc9                	or	a5,a5,a0
    5b16:	40b2                	lw	ra,12(sp)
    5b18:	8522                	mv	a0,s0
    5b1a:	4422                	lw	s0,8(sp)
    5b1c:	4492                	lw	s1,4(sp)
    5b1e:	85be                	mv	a1,a5
    5b20:	0141                	addi	sp,sp,16
    5b22:	8082                	ret
    5b24:	eb05                	bnez	a4,5b54 <__extendsfdf2+0x7a>
    5b26:	c439                	beqz	s0,5b74 <__extendsfdf2+0x9a>
    5b28:	8522                	mv	a0,s0
    5b2a:	28b1                	jal	5b86 <__clzsi2>
    5b2c:	47a9                	li	a5,10
    5b2e:	04a7c663          	blt	a5,a0,5b7a <__extendsfdf2+0xa0>
    5b32:	472d                	li	a4,11
    5b34:	8f09                	sub	a4,a4,a0
    5b36:	01550793          	addi	a5,a0,21 # 80000015 <_eusrstack+0x5fff0015>
    5b3a:	00e45733          	srl	a4,s0,a4
    5b3e:	00f41433          	sll	s0,s0,a5
    5b42:	00c71793          	slli	a5,a4,0xc
    5b46:	38900713          	li	a4,905
    5b4a:	8f09                	sub	a4,a4,a0
    5b4c:	83b1                	srli	a5,a5,0xc
    5b4e:	7ff77713          	andi	a4,a4,2047
    5b52:	bf5d                	j	5b08 <__extendsfdf2+0x2e>
    5b54:	cc01                	beqz	s0,5b6c <__extendsfdf2+0x92>
    5b56:	00345713          	srli	a4,s0,0x3
    5b5a:	000807b7          	lui	a5,0x80
    5b5e:	8fd9                	or	a5,a5,a4
    5b60:	07b2                	slli	a5,a5,0xc
    5b62:	0476                	slli	s0,s0,0x1d
    5b64:	83b1                	srli	a5,a5,0xc
    5b66:	7ff00713          	li	a4,2047
    5b6a:	bf79                	j	5b08 <__extendsfdf2+0x2e>
    5b6c:	7ff00713          	li	a4,2047
    5b70:	4781                	li	a5,0
    5b72:	bf59                	j	5b08 <__extendsfdf2+0x2e>
    5b74:	4701                	li	a4,0
    5b76:	4781                	li	a5,0
    5b78:	bf41                	j	5b08 <__extendsfdf2+0x2e>
    5b7a:	ff550713          	addi	a4,a0,-11
    5b7e:	00e41733          	sll	a4,s0,a4
    5b82:	4401                	li	s0,0
    5b84:	bf7d                	j	5b42 <__extendsfdf2+0x68>

00005b86 <__clzsi2>:
__clzsi2():
    5b86:	67c1                	lui	a5,0x10
    5b88:	02f57e63          	bgeu	a0,a5,5bc4 <__clzsi2+0x3e>
    5b8c:	0ff00793          	li	a5,255
    5b90:	02000713          	li	a4,32
    5b94:	00a7ec63          	bltu	a5,a0,5bac <__clzsi2+0x26>
    5b98:	00003797          	auipc	a5,0x3
    5b9c:	66878793          	addi	a5,a5,1640 # 9200 <__clz_tab>
    5ba0:	97aa                	add	a5,a5,a0
    5ba2:	0007c503          	lbu	a0,0(a5)
    5ba6:	40a70533          	sub	a0,a4,a0
    5baa:	8082                	ret
    5bac:	8121                	srli	a0,a0,0x8
    5bae:	00003797          	auipc	a5,0x3
    5bb2:	65278793          	addi	a5,a5,1618 # 9200 <__clz_tab>
    5bb6:	97aa                	add	a5,a5,a0
    5bb8:	0007c503          	lbu	a0,0(a5)
    5bbc:	4761                	li	a4,24
    5bbe:	40a70533          	sub	a0,a4,a0
    5bc2:	8082                	ret
    5bc4:	010007b7          	lui	a5,0x1000
    5bc8:	00f56e63          	bltu	a0,a5,5be4 <__clzsi2+0x5e>
    5bcc:	8161                	srli	a0,a0,0x18
    5bce:	00003797          	auipc	a5,0x3
    5bd2:	63278793          	addi	a5,a5,1586 # 9200 <__clz_tab>
    5bd6:	97aa                	add	a5,a5,a0
    5bd8:	0007c503          	lbu	a0,0(a5)
    5bdc:	4721                	li	a4,8
    5bde:	40a70533          	sub	a0,a4,a0
    5be2:	8082                	ret
    5be4:	8141                	srli	a0,a0,0x10
    5be6:	00003797          	auipc	a5,0x3
    5bea:	61a78793          	addi	a5,a5,1562 # 9200 <__clz_tab>
    5bee:	97aa                	add	a5,a5,a0
    5bf0:	0007c503          	lbu	a0,0(a5)
    5bf4:	4741                	li	a4,16
    5bf6:	40a70533          	sub	a0,a4,a0
    5bfa:	8082                	ret

00005bfc <memcpy>:
memcpy():
    5bfc:	00a5c7b3          	xor	a5,a1,a0
    5c00:	8b8d                	andi	a5,a5,3
    5c02:	00c50733          	add	a4,a0,a2
    5c06:	e781                	bnez	a5,5c0e <memcpy+0x12>
    5c08:	478d                	li	a5,3
    5c0a:	00c7ee63          	bltu	a5,a2,5c26 <memcpy+0x2a>
    5c0e:	87aa                	mv	a5,a0
    5c10:	0ae57063          	bgeu	a0,a4,5cb0 <memcpy+0xb4>
    5c14:	0005c683          	lbu	a3,0(a1)
    5c18:	0785                	addi	a5,a5,1
    5c1a:	0585                	addi	a1,a1,1
    5c1c:	fed78fa3          	sb	a3,-1(a5)
    5c20:	fee7eae3          	bltu	a5,a4,5c14 <memcpy+0x18>
    5c24:	8082                	ret
    5c26:	00357693          	andi	a3,a0,3
    5c2a:	87aa                	mv	a5,a0
    5c2c:	ca91                	beqz	a3,5c40 <memcpy+0x44>
    5c2e:	0005c683          	lbu	a3,0(a1)
    5c32:	0785                	addi	a5,a5,1
    5c34:	0585                	addi	a1,a1,1
    5c36:	fed78fa3          	sb	a3,-1(a5)
    5c3a:	0037f693          	andi	a3,a5,3
    5c3e:	b7fd                	j	5c2c <memcpy+0x30>
    5c40:	ffc77693          	andi	a3,a4,-4
    5c44:	fe068613          	addi	a2,a3,-32
    5c48:	06c7f063          	bgeu	a5,a2,5ca8 <memcpy+0xac>
    5c4c:	0005a383          	lw	t2,0(a1)
    5c50:	0045a283          	lw	t0,4(a1)
    5c54:	0085af83          	lw	t6,8(a1)
    5c58:	00c5af03          	lw	t5,12(a1)
    5c5c:	0105ae83          	lw	t4,16(a1)
    5c60:	0145ae03          	lw	t3,20(a1)
    5c64:	0185a303          	lw	t1,24(a1)
    5c68:	01c5a883          	lw	a7,28(a1)
    5c6c:	02458593          	addi	a1,a1,36
    5c70:	0077a023          	sw	t2,0(a5)
    5c74:	ffc5a803          	lw	a6,-4(a1)
    5c78:	0057a223          	sw	t0,4(a5)
    5c7c:	01f7a423          	sw	t6,8(a5)
    5c80:	01e7a623          	sw	t5,12(a5)
    5c84:	01d7a823          	sw	t4,16(a5)
    5c88:	01c7aa23          	sw	t3,20(a5)
    5c8c:	0067ac23          	sw	t1,24(a5)
    5c90:	0117ae23          	sw	a7,28(a5)
    5c94:	02478793          	addi	a5,a5,36
    5c98:	ff07ae23          	sw	a6,-4(a5)
    5c9c:	b775                	j	5c48 <memcpy+0x4c>
    5c9e:	4190                	lw	a2,0(a1)
    5ca0:	0791                	addi	a5,a5,4
    5ca2:	0591                	addi	a1,a1,4
    5ca4:	fec7ae23          	sw	a2,-4(a5)
    5ca8:	fed7ebe3          	bltu	a5,a3,5c9e <memcpy+0xa2>
    5cac:	f6e7e4e3          	bltu	a5,a4,5c14 <memcpy+0x18>
    5cb0:	8082                	ret

00005cb2 <__cvt>:
__cvt():
    5cb2:	7179                	addi	sp,sp,-48
    5cb4:	d422                	sw	s0,40(sp)
    5cb6:	d04a                	sw	s2,32(sp)
    5cb8:	cc52                	sw	s4,24(sp)
    5cba:	ca56                	sw	s5,20(sp)
    5cbc:	c85a                	sw	s6,16(sp)
    5cbe:	d606                	sw	ra,44(sp)
    5cc0:	d226                	sw	s1,36(sp)
    5cc2:	ce4e                	sw	s3,28(sp)
    5cc4:	8a3a                	mv	s4,a4
    5cc6:	8aae                	mv	s5,a1
    5cc8:	8432                	mv	s0,a2
    5cca:	8936                	mv	s2,a3
    5ccc:	8b42                	mv	s6,a6
    5cce:	4701                	li	a4,0
    5cd0:	00065863          	bgez	a2,5ce0 <__cvt+0x2e>
    5cd4:	80000737          	lui	a4,0x80000
    5cd8:	00c74433          	xor	s0,a4,a2
    5cdc:	02d00713          	li	a4,45
    5ce0:	00e78023          	sb	a4,0(a5)
    5ce4:	fdf8f493          	andi	s1,a7,-33
    5ce8:	04600793          	li	a5,70
    5cec:	468d                	li	a3,3
    5cee:	00f48863          	beq	s1,a5,5cfe <__cvt+0x4c>
    5cf2:	04500793          	li	a5,69
    5cf6:	4689                	li	a3,2
    5cf8:	00f49363          	bne	s1,a5,5cfe <__cvt+0x4c>
    5cfc:	0905                	addi	s2,s2,1
    5cfe:	87da                	mv	a5,s6
    5d00:	00c10893          	addi	a7,sp,12
    5d04:	00810813          	addi	a6,sp,8
    5d08:	874a                	mv	a4,s2
    5d0a:	85d6                	mv	a1,s5
    5d0c:	8622                	mv	a2,s0
    5d0e:	5eb000ef          	jal	ra,6af8 <_dtoa_r>
    5d12:	04700793          	li	a5,71
    5d16:	89aa                	mv	s3,a0
    5d18:	00f49663          	bne	s1,a5,5d24 <__cvt+0x72>
    5d1c:	001a7a13          	andi	s4,s4,1
    5d20:	040a0a63          	beqz	s4,5d74 <__cvt+0xc2>
    5d24:	04600793          	li	a5,70
    5d28:	01298a33          	add	s4,s3,s2
    5d2c:	02f49763          	bne	s1,a5,5d5a <__cvt+0xa8>
    5d30:	0009c703          	lbu	a4,0(s3)
    5d34:	03000793          	li	a5,48
    5d38:	00f71e63          	bne	a4,a5,5d54 <__cvt+0xa2>
    5d3c:	4601                	li	a2,0
    5d3e:	4681                	li	a3,0
    5d40:	8556                	mv	a0,s5
    5d42:	85a2                	mv	a1,s0
    5d44:	fabfe0ef          	jal	ra,4cee <__eqdf2>
    5d48:	c511                	beqz	a0,5d54 <__cvt+0xa2>
    5d4a:	4785                	li	a5,1
    5d4c:	41278933          	sub	s2,a5,s2
    5d50:	012b2023          	sw	s2,0(s6)
    5d54:	000b2783          	lw	a5,0(s6)
    5d58:	9a3e                	add	s4,s4,a5
    5d5a:	4601                	li	a2,0
    5d5c:	4681                	li	a3,0
    5d5e:	8556                	mv	a0,s5
    5d60:	85a2                	mv	a1,s0
    5d62:	f8dfe0ef          	jal	ra,4cee <__eqdf2>
    5d66:	e111                	bnez	a0,5d6a <__cvt+0xb8>
    5d68:	c652                	sw	s4,12(sp)
    5d6a:	03000713          	li	a4,48
    5d6e:	47b2                	lw	a5,12(sp)
    5d70:	0347e263          	bltu	a5,s4,5d94 <__cvt+0xe2>
    5d74:	47b2                	lw	a5,12(sp)
    5d76:	5742                	lw	a4,48(sp)
    5d78:	50b2                	lw	ra,44(sp)
    5d7a:	5422                	lw	s0,40(sp)
    5d7c:	413787b3          	sub	a5,a5,s3
    5d80:	c31c                	sw	a5,0(a4)
    5d82:	854e                	mv	a0,s3
    5d84:	5492                	lw	s1,36(sp)
    5d86:	5902                	lw	s2,32(sp)
    5d88:	49f2                	lw	s3,28(sp)
    5d8a:	4a62                	lw	s4,24(sp)
    5d8c:	4ad2                	lw	s5,20(sp)
    5d8e:	4b42                	lw	s6,16(sp)
    5d90:	6145                	addi	sp,sp,48
    5d92:	8082                	ret
    5d94:	00178693          	addi	a3,a5,1
    5d98:	c636                	sw	a3,12(sp)
    5d9a:	00e78023          	sb	a4,0(a5)
    5d9e:	bfc1                	j	5d6e <__cvt+0xbc>

00005da0 <__exponent>:
__exponent():
    5da0:	00c50023          	sb	a2,0(a0)
    5da4:	00250713          	addi	a4,a0,2
    5da8:	02b00793          	li	a5,43
    5dac:	0005d663          	bgez	a1,5db8 <__exponent+0x18>
    5db0:	40b005b3          	neg	a1,a1
    5db4:	02d00793          	li	a5,45
    5db8:	00f500a3          	sb	a5,1(a0)
    5dbc:	47a5                	li	a5,9
    5dbe:	04b7da63          	bge	a5,a1,5e12 <__exponent+0x72>
    5dc2:	1141                	addi	sp,sp,-16
    5dc4:	00f10793          	addi	a5,sp,15
    5dc8:	88be                	mv	a7,a5
    5dca:	4829                	li	a6,10
    5dcc:	06300313          	li	t1,99
    5dd0:	0305e6b3          	rem	a3,a1,a6
    5dd4:	fff78613          	addi	a2,a5,-1
    5dd8:	03068693          	addi	a3,a3,48
    5ddc:	fed78fa3          	sb	a3,-1(a5)
    5de0:	0305c6b3          	div	a3,a1,a6
    5de4:	00b34d63          	blt	t1,a1,5dfe <__exponent+0x5e>
    5de8:	03068693          	addi	a3,a3,48
    5dec:	17f9                	addi	a5,a5,-2
    5dee:	fed60fa3          	sb	a3,-1(a2) # ff7fffff <_eusrstack+0xdf7effff>
    5df2:	0117e963          	bltu	a5,a7,5e04 <__exponent+0x64>
    5df6:	40a70533          	sub	a0,a4,a0
    5dfa:	0141                	addi	sp,sp,16
    5dfc:	8082                	ret
    5dfe:	87b2                	mv	a5,a2
    5e00:	85b6                	mv	a1,a3
    5e02:	b7f9                	j	5dd0 <__exponent+0x30>
    5e04:	0785                	addi	a5,a5,1
    5e06:	fff7c683          	lbu	a3,-1(a5)
    5e0a:	0705                	addi	a4,a4,1
    5e0c:	fed70fa3          	sb	a3,-1(a4) # 7fffffff <_eusrstack+0x5ffeffff>
    5e10:	b7cd                	j	5df2 <__exponent+0x52>
    5e12:	03000793          	li	a5,48
    5e16:	00450713          	addi	a4,a0,4
    5e1a:	03058593          	addi	a1,a1,48
    5e1e:	00f50123          	sb	a5,2(a0)
    5e22:	00b501a3          	sb	a1,3(a0)
    5e26:	40a70533          	sub	a0,a4,a0
    5e2a:	8082                	ret

00005e2c <_printf_float>:
_printf_float():
    5e2c:	7119                	addi	sp,sp,-128
    5e2e:	ce3a                	sw	a4,28(sp)
    5e30:	de86                	sw	ra,124(sp)
    5e32:	dca2                	sw	s0,120(sp)
    5e34:	daa6                	sw	s1,116(sp)
    5e36:	842e                	mv	s0,a1
    5e38:	d8ca                	sw	s2,112(sp)
    5e3a:	d6ce                	sw	s3,108(sp)
    5e3c:	d4d2                	sw	s4,104(sp)
    5e3e:	89b6                	mv	s3,a3
    5e40:	d0da                	sw	s6,96(sp)
    5e42:	cede                	sw	s7,92(sp)
    5e44:	cce2                	sw	s8,88(sp)
    5e46:	8932                	mv	s2,a2
    5e48:	d2d6                	sw	s5,100(sp)
    5e4a:	cae6                	sw	s9,84(sp)
    5e4c:	c8ea                	sw	s10,80(sp)
    5e4e:	c6ee                	sw	s11,76(sp)
    5e50:	84aa                	mv	s1,a0
    5e52:	49d010ef          	jal	ra,7aee <_localeconv_r>
    5e56:	00052b83          	lw	s7,0(a0)
    5e5a:	855e                	mv	a0,s7
    5e5c:	179000ef          	jal	ra,67d4 <strlen>
    5e60:	00042b03          	lw	s6,0(s0) # 80000 <_data_lma+0x769dc>
    5e64:	4772                	lw	a4,28(sp)
    5e66:	dc02                	sw	zero,56(sp)
    5e68:	100b7693          	andi	a3,s6,256
    5e6c:	8c2a                	mv	s8,a0
    5e6e:	01844a03          	lbu	s4,24(s0)
    5e72:	431c                	lw	a5,0(a4)
    5e74:	caf1                	beqz	a3,5f48 <_printf_float+0x11c>
    5e76:	00478693          	addi	a3,a5,4
    5e7a:	c314                	sw	a3,0(a4)
    5e7c:	439c                	lw	a5,0(a5)
    5e7e:	1008                	addi	a0,sp,32
    5e80:	4398                	lw	a4,0(a5)
    5e82:	d03a                	sw	a4,32(sp)
    5e84:	43d8                	lw	a4,4(a5)
    5e86:	d23a                	sw	a4,36(sp)
    5e88:	4798                	lw	a4,8(a5)
    5e8a:	d43a                	sw	a4,40(sp)
    5e8c:	47dc                	lw	a5,12(a5)
    5e8e:	d63e                	sw	a5,44(sp)
    5e90:	4c9020ef          	jal	ra,8b58 <__trunctfdf2>
    5e94:	c428                	sw	a0,72(s0)
    5e96:	c46c                	sw	a1,76(s0)
    5e98:	04c42c83          	lw	s9,76(s0)
    5e9c:	00003717          	auipc	a4,0x3
    5ea0:	46470713          	addi	a4,a4,1124 # 9300 <__clz_tab+0x100>
    5ea4:	04842a83          	lw	s5,72(s0)
    5ea8:	00072d03          	lw	s10,0(a4)
    5eac:	00472d83          	lw	s11,4(a4)
    5eb0:	001c9793          	slli	a5,s9,0x1
    5eb4:	8385                	srli	a5,a5,0x1
    5eb6:	866a                	mv	a2,s10
    5eb8:	86ee                	mv	a3,s11
    5eba:	8556                	mv	a0,s5
    5ebc:	85be                	mv	a1,a5
    5ebe:	ce3e                	sw	a5,28(sp)
    5ec0:	3f5020ef          	jal	ra,8ab4 <__unorddf2>
    5ec4:	ed41                	bnez	a0,5f5c <_printf_float+0x130>
    5ec6:	47f2                	lw	a5,28(sp)
    5ec8:	866a                	mv	a2,s10
    5eca:	86ee                	mv	a3,s11
    5ecc:	8556                	mv	a0,s5
    5ece:	85be                	mv	a1,a5
    5ed0:	e89fe0ef          	jal	ra,4d58 <__ledf2>
    5ed4:	08a05463          	blez	a0,5f5c <_printf_float+0x130>
    5ed8:	4601                	li	a2,0
    5eda:	4681                	li	a3,0
    5edc:	8556                	mv	a0,s5
    5ede:	85e6                	mv	a1,s9
    5ee0:	e79fe0ef          	jal	ra,4d58 <__ledf2>
    5ee4:	00055663          	bgez	a0,5ef0 <_printf_float+0xc4>
    5ee8:	02d00793          	li	a5,45
    5eec:	04f401a3          	sb	a5,67(s0)
    5ef0:	04700793          	li	a5,71
    5ef4:	00003a97          	auipc	s5,0x3
    5ef8:	414a8a93          	addi	s5,s5,1044 # 9308 <__clz_tab+0x108>
    5efc:	0147f663          	bgeu	a5,s4,5f08 <_printf_float+0xdc>
    5f00:	00003a97          	auipc	s5,0x3
    5f04:	40ca8a93          	addi	s5,s5,1036 # 930c <__clz_tab+0x10c>
    5f08:	ffbb7b13          	andi	s6,s6,-5
    5f0c:	478d                	li	a5,3
    5f0e:	01642023          	sw	s6,0(s0)
    5f12:	c81c                	sw	a5,16(s0)
    5f14:	4b01                	li	s6,0
    5f16:	874e                	mv	a4,s3
    5f18:	86ca                	mv	a3,s2
    5f1a:	1870                	addi	a2,sp,60
    5f1c:	85a2                	mv	a1,s0
    5f1e:	8526                	mv	a0,s1
    5f20:	2ec1                	jal	62f0 <_printf_common>
    5f22:	5cfd                	li	s9,-1
    5f24:	15951e63          	bne	a0,s9,6080 <_printf_float+0x254>
    5f28:	557d                	li	a0,-1
    5f2a:	50f6                	lw	ra,124(sp)
    5f2c:	5466                	lw	s0,120(sp)
    5f2e:	54d6                	lw	s1,116(sp)
    5f30:	5946                	lw	s2,112(sp)
    5f32:	59b6                	lw	s3,108(sp)
    5f34:	5a26                	lw	s4,104(sp)
    5f36:	5a96                	lw	s5,100(sp)
    5f38:	5b06                	lw	s6,96(sp)
    5f3a:	4bf6                	lw	s7,92(sp)
    5f3c:	4c66                	lw	s8,88(sp)
    5f3e:	4cd6                	lw	s9,84(sp)
    5f40:	4d46                	lw	s10,80(sp)
    5f42:	4db6                	lw	s11,76(sp)
    5f44:	6109                	addi	sp,sp,128
    5f46:	8082                	ret
    5f48:	079d                	addi	a5,a5,7
    5f4a:	9be1                	andi	a5,a5,-8
    5f4c:	00878693          	addi	a3,a5,8
    5f50:	c314                	sw	a3,0(a4)
    5f52:	4398                	lw	a4,0(a5)
    5f54:	43dc                	lw	a5,4(a5)
    5f56:	c438                	sw	a4,72(s0)
    5f58:	c47c                	sw	a5,76(s0)
    5f5a:	bf3d                	j	5e98 <_printf_float+0x6c>
    5f5c:	8656                	mv	a2,s5
    5f5e:	86e6                	mv	a3,s9
    5f60:	8556                	mv	a0,s5
    5f62:	85e6                	mv	a1,s9
    5f64:	351020ef          	jal	ra,8ab4 <__unorddf2>
    5f68:	cd11                	beqz	a0,5f84 <_printf_float+0x158>
    5f6a:	04700793          	li	a5,71
    5f6e:	00003a97          	auipc	s5,0x3
    5f72:	3a2a8a93          	addi	s5,s5,930 # 9310 <__clz_tab+0x110>
    5f76:	f947f9e3          	bgeu	a5,s4,5f08 <_printf_float+0xdc>
    5f7a:	00003a97          	auipc	s5,0x3
    5f7e:	39aa8a93          	addi	s5,s5,922 # 9314 <__clz_tab+0x114>
    5f82:	b759                	j	5f08 <_printf_float+0xdc>
    5f84:	405c                	lw	a5,4(s0)
    5f86:	577d                	li	a4,-1
    5f88:	0dfa7d13          	andi	s10,s4,223
    5f8c:	08e79563          	bne	a5,a4,6016 <_printf_float+0x1ea>
    5f90:	4799                	li	a5,6
    5f92:	c05c                	sw	a5,4(s0)
    5f94:	4054                	lw	a3,4(s0)
    5f96:	400b6713          	ori	a4,s6,1024
    5f9a:	183c                	addi	a5,sp,56
    5f9c:	85d6                	mv	a1,s5
    5f9e:	c03e                	sw	a5,0(sp)
    5fa0:	c018                	sw	a4,0(s0)
    5fa2:	03310793          	addi	a5,sp,51
    5fa6:	c202                	sw	zero,4(sp)
    5fa8:	88d2                	mv	a7,s4
    5faa:	03410813          	addi	a6,sp,52
    5fae:	8666                	mv	a2,s9
    5fb0:	8526                	mv	a0,s1
    5fb2:	d01ff0ef          	jal	ra,5cb2 <__cvt>
    5fb6:	04700793          	li	a5,71
    5fba:	8aaa                	mv	s5,a0
    5fbc:	55d2                	lw	a1,52(sp)
    5fbe:	00fd1b63          	bne	s10,a5,5fd4 <_printf_float+0x1a8>
    5fc2:	57f5                	li	a5,-3
    5fc4:	00f5c563          	blt	a1,a5,5fce <_printf_float+0x1a2>
    5fc8:	405c                	lw	a5,4(s0)
    5fca:	08b7d863          	bge	a5,a1,605a <_printf_float+0x22e>
    5fce:	1a79                	addi	s4,s4,-2
    5fd0:	0ffa7a13          	andi	s4,s4,255
    5fd4:	06500793          	li	a5,101
    5fd8:	0547e663          	bltu	a5,s4,6024 <_printf_float+0x1f8>
    5fdc:	15fd                	addi	a1,a1,-1
    5fde:	8652                	mv	a2,s4
    5fe0:	05040513          	addi	a0,s0,80
    5fe4:	da2e                	sw	a1,52(sp)
    5fe6:	dbbff0ef          	jal	ra,5da0 <__exponent>
    5fea:	5762                	lw	a4,56(sp)
    5fec:	4685                	li	a3,1
    5fee:	8b2a                	mv	s6,a0
    5ff0:	00a707b3          	add	a5,a4,a0
    5ff4:	c81c                	sw	a5,16(s0)
    5ff6:	00e6c563          	blt	a3,a4,6000 <_printf_float+0x1d4>
    5ffa:	4018                	lw	a4,0(s0)
    5ffc:	8b05                	andi	a4,a4,1
    5ffe:	c319                	beqz	a4,6004 <_printf_float+0x1d8>
    6000:	0785                	addi	a5,a5,1
    6002:	c81c                	sw	a5,16(s0)
    6004:	03314783          	lbu	a5,51(sp)
    6008:	f00787e3          	beqz	a5,5f16 <_printf_float+0xea>
    600c:	02d00793          	li	a5,45
    6010:	04f401a3          	sb	a5,67(s0)
    6014:	b709                	j	5f16 <_printf_float+0xea>
    6016:	04700713          	li	a4,71
    601a:	f6ed1de3          	bne	s10,a4,5f94 <_printf_float+0x168>
    601e:	fbbd                	bnez	a5,5f94 <_printf_float+0x168>
    6020:	4785                	li	a5,1
    6022:	bf85                	j	5f92 <_printf_float+0x166>
    6024:	06600793          	li	a5,102
    6028:	02fa1b63          	bne	s4,a5,605e <_printf_float+0x232>
    602c:	405c                	lw	a5,4(s0)
    602e:	00b05b63          	blez	a1,6044 <_printf_float+0x218>
    6032:	c80c                	sw	a1,16(s0)
    6034:	e781                	bnez	a5,603c <_printf_float+0x210>
    6036:	4018                	lw	a4,0(s0)
    6038:	8b05                	andi	a4,a4,1
    603a:	cf09                	beqz	a4,6054 <_printf_float+0x228>
    603c:	0785                	addi	a5,a5,1
    603e:	97ae                	add	a5,a5,a1
    6040:	c81c                	sw	a5,16(s0)
    6042:	a809                	j	6054 <_printf_float+0x228>
    6044:	e789                	bnez	a5,604e <_printf_float+0x222>
    6046:	4018                	lw	a4,0(s0)
    6048:	4685                	li	a3,1
    604a:	8b05                	andi	a4,a4,1
    604c:	c319                	beqz	a4,6052 <_printf_float+0x226>
    604e:	00278693          	addi	a3,a5,2
    6052:	c814                	sw	a3,16(s0)
    6054:	cc2c                	sw	a1,88(s0)
    6056:	4b01                	li	s6,0
    6058:	b775                	j	6004 <_printf_float+0x1d8>
    605a:	06700a13          	li	s4,103
    605e:	57e2                	lw	a5,56(sp)
    6060:	00f5c963          	blt	a1,a5,6072 <_printf_float+0x246>
    6064:	401c                	lw	a5,0(s0)
    6066:	c80c                	sw	a1,16(s0)
    6068:	8b85                	andi	a5,a5,1
    606a:	d7ed                	beqz	a5,6054 <_printf_float+0x228>
    606c:	00158793          	addi	a5,a1,1
    6070:	bfc1                	j	6040 <_printf_float+0x214>
    6072:	4705                	li	a4,1
    6074:	00b04463          	bgtz	a1,607c <_printf_float+0x250>
    6078:	4709                	li	a4,2
    607a:	8f0d                	sub	a4,a4,a1
    607c:	97ba                	add	a5,a5,a4
    607e:	b7c9                	j	6040 <_printf_float+0x214>
    6080:	401c                	lw	a5,0(s0)
    6082:	4007f713          	andi	a4,a5,1024
    6086:	e315                	bnez	a4,60aa <_printf_float+0x27e>
    6088:	4814                	lw	a3,16(s0)
    608a:	8656                	mv	a2,s5
    608c:	85ca                	mv	a1,s2
    608e:	8526                	mv	a0,s1
    6090:	9982                	jalr	s3
    6092:	e9950be3          	beq	a0,s9,5f28 <_printf_float+0xfc>
    6096:	401c                	lw	a5,0(s0)
    6098:	8b89                	andi	a5,a5,2
    609a:	24079663          	bnez	a5,62e6 <_printf_float+0x4ba>
    609e:	57f2                	lw	a5,60(sp)
    60a0:	4448                	lw	a0,12(s0)
    60a2:	e8f554e3          	bge	a0,a5,5f2a <_printf_float+0xfe>
    60a6:	853e                	mv	a0,a5
    60a8:	b549                	j	5f2a <_printf_float+0xfe>
    60aa:	06500713          	li	a4,101
    60ae:	19477b63          	bgeu	a4,s4,6244 <_printf_float+0x418>
    60b2:	4428                	lw	a0,72(s0)
    60b4:	446c                	lw	a1,76(s0)
    60b6:	4601                	li	a2,0
    60b8:	4681                	li	a3,0
    60ba:	c35fe0ef          	jal	ra,4cee <__eqdf2>
    60be:	e939                	bnez	a0,6114 <_printf_float+0x2e8>
    60c0:	4685                	li	a3,1
    60c2:	00003617          	auipc	a2,0x3
    60c6:	25660613          	addi	a2,a2,598 # 9318 <__clz_tab+0x118>
    60ca:	85ca                	mv	a1,s2
    60cc:	8526                	mv	a0,s1
    60ce:	9982                	jalr	s3
    60d0:	e5950ce3          	beq	a0,s9,5f28 <_printf_float+0xfc>
    60d4:	5752                	lw	a4,52(sp)
    60d6:	57e2                	lw	a5,56(sp)
    60d8:	00f74563          	blt	a4,a5,60e2 <_printf_float+0x2b6>
    60dc:	401c                	lw	a5,0(s0)
    60de:	8b85                	andi	a5,a5,1
    60e0:	dbdd                	beqz	a5,6096 <_printf_float+0x26a>
    60e2:	86e2                	mv	a3,s8
    60e4:	865e                	mv	a2,s7
    60e6:	85ca                	mv	a1,s2
    60e8:	8526                	mv	a0,s1
    60ea:	9982                	jalr	s3
    60ec:	57fd                	li	a5,-1
    60ee:	e2f50de3          	beq	a0,a5,5f28 <_printf_float+0xfc>
    60f2:	4a01                	li	s4,0
    60f4:	01a40a93          	addi	s5,s0,26
    60f8:	5b7d                	li	s6,-1
    60fa:	57e2                	lw	a5,56(sp)
    60fc:	17fd                	addi	a5,a5,-1
    60fe:	f8fa5ce3          	bge	s4,a5,6096 <_printf_float+0x26a>
    6102:	4685                	li	a3,1
    6104:	8656                	mv	a2,s5
    6106:	85ca                	mv	a1,s2
    6108:	8526                	mv	a0,s1
    610a:	9982                	jalr	s3
    610c:	e1650ee3          	beq	a0,s6,5f28 <_printf_float+0xfc>
    6110:	0a05                	addi	s4,s4,1
    6112:	b7e5                	j	60fa <_printf_float+0x2ce>
    6114:	57d2                	lw	a5,52(sp)
    6116:	06f04663          	bgtz	a5,6182 <_printf_float+0x356>
    611a:	4685                	li	a3,1
    611c:	00003617          	auipc	a2,0x3
    6120:	1fc60613          	addi	a2,a2,508 # 9318 <__clz_tab+0x118>
    6124:	85ca                	mv	a1,s2
    6126:	8526                	mv	a0,s1
    6128:	9982                	jalr	s3
    612a:	df950fe3          	beq	a0,s9,5f28 <_printf_float+0xfc>
    612e:	57d2                	lw	a5,52(sp)
    6130:	5762                	lw	a4,56(sp)
    6132:	8fd9                	or	a5,a5,a4
    6134:	e781                	bnez	a5,613c <_printf_float+0x310>
    6136:	401c                	lw	a5,0(s0)
    6138:	8b85                	andi	a5,a5,1
    613a:	dfb1                	beqz	a5,6096 <_printf_float+0x26a>
    613c:	86e2                	mv	a3,s8
    613e:	865e                	mv	a2,s7
    6140:	85ca                	mv	a1,s2
    6142:	8526                	mv	a0,s1
    6144:	9982                	jalr	s3
    6146:	57fd                	li	a5,-1
    6148:	def500e3          	beq	a0,a5,5f28 <_printf_float+0xfc>
    614c:	4a01                	li	s4,0
    614e:	01a40b13          	addi	s6,s0,26
    6152:	5bfd                	li	s7,-1
    6154:	57d2                	lw	a5,52(sp)
    6156:	40f007b3          	neg	a5,a5
    615a:	00fa4b63          	blt	s4,a5,6170 <_printf_float+0x344>
    615e:	56e2                	lw	a3,56(sp)
    6160:	8656                	mv	a2,s5
    6162:	85ca                	mv	a1,s2
    6164:	8526                	mv	a0,s1
    6166:	9982                	jalr	s3
    6168:	57fd                	li	a5,-1
    616a:	f2f516e3          	bne	a0,a5,6096 <_printf_float+0x26a>
    616e:	bb6d                	j	5f28 <_printf_float+0xfc>
    6170:	4685                	li	a3,1
    6172:	865a                	mv	a2,s6
    6174:	85ca                	mv	a1,s2
    6176:	8526                	mv	a0,s1
    6178:	9982                	jalr	s3
    617a:	db7507e3          	beq	a0,s7,5f28 <_printf_float+0xfc>
    617e:	0a05                	addi	s4,s4,1
    6180:	bfd1                	j	6154 <_printf_float+0x328>
    6182:	4c3c                	lw	a5,88(s0)
    6184:	5a62                	lw	s4,56(sp)
    6186:	0147d363          	bge	a5,s4,618c <_printf_float+0x360>
    618a:	8a3e                	mv	s4,a5
    618c:	01405a63          	blez	s4,61a0 <_printf_float+0x374>
    6190:	86d2                	mv	a3,s4
    6192:	8656                	mv	a2,s5
    6194:	85ca                	mv	a1,s2
    6196:	8526                	mv	a0,s1
    6198:	9982                	jalr	s3
    619a:	57fd                	li	a5,-1
    619c:	d8f506e3          	beq	a0,a5,5f28 <_printf_float+0xfc>
    61a0:	4c81                	li	s9,0
    61a2:	01a40d13          	addi	s10,s0,26
    61a6:	5dfd                	li	s11,-1
    61a8:	a809                	j	61ba <_printf_float+0x38e>
    61aa:	4685                	li	a3,1
    61ac:	866a                	mv	a2,s10
    61ae:	85ca                	mv	a1,s2
    61b0:	8526                	mv	a0,s1
    61b2:	9982                	jalr	s3
    61b4:	d7b50ae3          	beq	a0,s11,5f28 <_printf_float+0xfc>
    61b8:	0c85                	addi	s9,s9,1
    61ba:	05842b03          	lw	s6,88(s0)
    61be:	87d2                	mv	a5,s4
    61c0:	000a5363          	bgez	s4,61c6 <_printf_float+0x39a>
    61c4:	4781                	li	a5,0
    61c6:	40fb07b3          	sub	a5,s6,a5
    61ca:	fefcc0e3          	blt	s9,a5,61aa <_printf_float+0x37e>
    61ce:	5752                	lw	a4,52(sp)
    61d0:	57e2                	lw	a5,56(sp)
    61d2:	02f74d63          	blt	a4,a5,620c <_printf_float+0x3e0>
    61d6:	401c                	lw	a5,0(s0)
    61d8:	8b85                	andi	a5,a5,1
    61da:	eb8d                	bnez	a5,620c <_printf_float+0x3e0>
    61dc:	57e2                	lw	a5,56(sp)
    61de:	5752                	lw	a4,52(sp)
    61e0:	40e78a33          	sub	s4,a5,a4
    61e4:	00eb4463          	blt	s6,a4,61ec <_printf_float+0x3c0>
    61e8:	41678a33          	sub	s4,a5,s6
    61ec:	01405b63          	blez	s4,6202 <_printf_float+0x3d6>
    61f0:	86d2                	mv	a3,s4
    61f2:	016a8633          	add	a2,s5,s6
    61f6:	85ca                	mv	a1,s2
    61f8:	8526                	mv	a0,s1
    61fa:	9982                	jalr	s3
    61fc:	57fd                	li	a5,-1
    61fe:	d2f505e3          	beq	a0,a5,5f28 <_printf_float+0xfc>
    6202:	4a81                	li	s5,0
    6204:	01a40b13          	addi	s6,s0,26
    6208:	5bfd                	li	s7,-1
    620a:	a015                	j	622e <_printf_float+0x402>
    620c:	86e2                	mv	a3,s8
    620e:	865e                	mv	a2,s7
    6210:	85ca                	mv	a1,s2
    6212:	8526                	mv	a0,s1
    6214:	9982                	jalr	s3
    6216:	57fd                	li	a5,-1
    6218:	fcf512e3          	bne	a0,a5,61dc <_printf_float+0x3b0>
    621c:	b331                	j	5f28 <_printf_float+0xfc>
    621e:	4685                	li	a3,1
    6220:	865a                	mv	a2,s6
    6222:	85ca                	mv	a1,s2
    6224:	8526                	mv	a0,s1
    6226:	9982                	jalr	s3
    6228:	d17500e3          	beq	a0,s7,5f28 <_printf_float+0xfc>
    622c:	0a85                	addi	s5,s5,1
    622e:	5752                	lw	a4,52(sp)
    6230:	57e2                	lw	a5,56(sp)
    6232:	8f99                	sub	a5,a5,a4
    6234:	8752                	mv	a4,s4
    6236:	000a5363          	bgez	s4,623c <_printf_float+0x410>
    623a:	4701                	li	a4,0
    623c:	8f99                	sub	a5,a5,a4
    623e:	fefac0e3          	blt	s5,a5,621e <_printf_float+0x3f2>
    6242:	bd91                	j	6096 <_printf_float+0x26a>
    6244:	56e2                	lw	a3,56(sp)
    6246:	4705                	li	a4,1
    6248:	00d74463          	blt	a4,a3,6250 <_printf_float+0x424>
    624c:	8b85                	andi	a5,a5,1
    624e:	c7b5                	beqz	a5,62ba <_printf_float+0x48e>
    6250:	4685                	li	a3,1
    6252:	8656                	mv	a2,s5
    6254:	85ca                	mv	a1,s2
    6256:	8526                	mv	a0,s1
    6258:	9982                	jalr	s3
    625a:	5a7d                	li	s4,-1
    625c:	cd4506e3          	beq	a0,s4,5f28 <_printf_float+0xfc>
    6260:	86e2                	mv	a3,s8
    6262:	865e                	mv	a2,s7
    6264:	85ca                	mv	a1,s2
    6266:	8526                	mv	a0,s1
    6268:	9982                	jalr	s3
    626a:	cb450fe3          	beq	a0,s4,5f28 <_printf_float+0xfc>
    626e:	4428                	lw	a0,72(s0)
    6270:	446c                	lw	a1,76(s0)
    6272:	4601                	li	a2,0
    6274:	4681                	li	a3,0
    6276:	a79fe0ef          	jal	ra,4cee <__eqdf2>
    627a:	c91d                	beqz	a0,62b0 <_printf_float+0x484>
    627c:	56e2                	lw	a3,56(sp)
    627e:	001a8613          	addi	a2,s5,1
    6282:	85ca                	mv	a1,s2
    6284:	16fd                	addi	a3,a3,-1
    6286:	8526                	mv	a0,s1
    6288:	9982                	jalr	s3
    628a:	c9450fe3          	beq	a0,s4,5f28 <_printf_float+0xfc>
    628e:	86da                	mv	a3,s6
    6290:	05040613          	addi	a2,s0,80
    6294:	b5f9                	j	6162 <_printf_float+0x336>
    6296:	4685                	li	a3,1
    6298:	8656                	mv	a2,s5
    629a:	85ca                	mv	a1,s2
    629c:	8526                	mv	a0,s1
    629e:	9982                	jalr	s3
    62a0:	c97504e3          	beq	a0,s7,5f28 <_printf_float+0xfc>
    62a4:	0a05                	addi	s4,s4,1
    62a6:	57e2                	lw	a5,56(sp)
    62a8:	17fd                	addi	a5,a5,-1
    62aa:	fefa46e3          	blt	s4,a5,6296 <_printf_float+0x46a>
    62ae:	b7c5                	j	628e <_printf_float+0x462>
    62b0:	4a01                	li	s4,0
    62b2:	01a40a93          	addi	s5,s0,26
    62b6:	5bfd                	li	s7,-1
    62b8:	b7fd                	j	62a6 <_printf_float+0x47a>
    62ba:	4685                	li	a3,1
    62bc:	8656                	mv	a2,s5
    62be:	85ca                	mv	a1,s2
    62c0:	8526                	mv	a0,s1
    62c2:	9982                	jalr	s3
    62c4:	fd9515e3          	bne	a0,s9,628e <_printf_float+0x462>
    62c8:	b185                	j	5f28 <_printf_float+0xfc>
    62ca:	4685                	li	a3,1
    62cc:	8656                	mv	a2,s5
    62ce:	85ca                	mv	a1,s2
    62d0:	8526                	mv	a0,s1
    62d2:	9982                	jalr	s3
    62d4:	c5650ae3          	beq	a0,s6,5f28 <_printf_float+0xfc>
    62d8:	0a05                	addi	s4,s4,1
    62da:	445c                	lw	a5,12(s0)
    62dc:	5772                	lw	a4,60(sp)
    62de:	8f99                	sub	a5,a5,a4
    62e0:	fefa45e3          	blt	s4,a5,62ca <_printf_float+0x49e>
    62e4:	bb6d                	j	609e <_printf_float+0x272>
    62e6:	4a01                	li	s4,0
    62e8:	01940a93          	addi	s5,s0,25
    62ec:	5b7d                	li	s6,-1
    62ee:	b7f5                	j	62da <_printf_float+0x4ae>

000062f0 <_printf_common>:
_printf_common():
    62f0:	7179                	addi	sp,sp,-48
    62f2:	ca56                	sw	s5,20(sp)
    62f4:	499c                	lw	a5,16(a1)
    62f6:	8aba                	mv	s5,a4
    62f8:	4598                	lw	a4,8(a1)
    62fa:	d422                	sw	s0,40(sp)
    62fc:	d226                	sw	s1,36(sp)
    62fe:	ce4e                	sw	s3,28(sp)
    6300:	cc52                	sw	s4,24(sp)
    6302:	d606                	sw	ra,44(sp)
    6304:	d04a                	sw	s2,32(sp)
    6306:	c85a                	sw	s6,16(sp)
    6308:	c65e                	sw	s7,12(sp)
    630a:	89aa                	mv	s3,a0
    630c:	842e                	mv	s0,a1
    630e:	84b2                	mv	s1,a2
    6310:	8a36                	mv	s4,a3
    6312:	00e7d363          	bge	a5,a4,6318 <_printf_common+0x28>
    6316:	87ba                	mv	a5,a4
    6318:	c09c                	sw	a5,0(s1)
    631a:	04344703          	lbu	a4,67(s0)
    631e:	c319                	beqz	a4,6324 <_printf_common+0x34>
    6320:	0785                	addi	a5,a5,1
    6322:	c09c                	sw	a5,0(s1)
    6324:	401c                	lw	a5,0(s0)
    6326:	0207f793          	andi	a5,a5,32
    632a:	c781                	beqz	a5,6332 <_printf_common+0x42>
    632c:	409c                	lw	a5,0(s1)
    632e:	0789                	addi	a5,a5,2
    6330:	c09c                	sw	a5,0(s1)
    6332:	00042903          	lw	s2,0(s0)
    6336:	00697913          	andi	s2,s2,6
    633a:	00091a63          	bnez	s2,634e <_printf_common+0x5e>
    633e:	01940b13          	addi	s6,s0,25
    6342:	5bfd                	li	s7,-1
    6344:	445c                	lw	a5,12(s0)
    6346:	4098                	lw	a4,0(s1)
    6348:	8f99                	sub	a5,a5,a4
    634a:	04f94c63          	blt	s2,a5,63a2 <_printf_common+0xb2>
    634e:	401c                	lw	a5,0(s0)
    6350:	04344683          	lbu	a3,67(s0)
    6354:	0207f793          	andi	a5,a5,32
    6358:	00d036b3          	snez	a3,a3
    635c:	eba5                	bnez	a5,63cc <_printf_common+0xdc>
    635e:	04340613          	addi	a2,s0,67
    6362:	85d2                	mv	a1,s4
    6364:	854e                	mv	a0,s3
    6366:	9a82                	jalr	s5
    6368:	57fd                	li	a5,-1
    636a:	04f50363          	beq	a0,a5,63b0 <_printf_common+0xc0>
    636e:	401c                	lw	a5,0(s0)
    6370:	4611                	li	a2,4
    6372:	4098                	lw	a4,0(s1)
    6374:	8b99                	andi	a5,a5,6
    6376:	4454                	lw	a3,12(s0)
    6378:	4481                	li	s1,0
    637a:	00c79763          	bne	a5,a2,6388 <_printf_common+0x98>
    637e:	40e684b3          	sub	s1,a3,a4
    6382:	0004d363          	bgez	s1,6388 <_printf_common+0x98>
    6386:	4481                	li	s1,0
    6388:	441c                	lw	a5,8(s0)
    638a:	4818                	lw	a4,16(s0)
    638c:	00f75463          	bge	a4,a5,6394 <_printf_common+0xa4>
    6390:	8f99                	sub	a5,a5,a4
    6392:	94be                	add	s1,s1,a5
    6394:	4901                	li	s2,0
    6396:	0469                	addi	s0,s0,26
    6398:	5b7d                	li	s6,-1
    639a:	05249863          	bne	s1,s2,63ea <_printf_common+0xfa>
    639e:	4501                	li	a0,0
    63a0:	a809                	j	63b2 <_printf_common+0xc2>
    63a2:	4685                	li	a3,1
    63a4:	865a                	mv	a2,s6
    63a6:	85d2                	mv	a1,s4
    63a8:	854e                	mv	a0,s3
    63aa:	9a82                	jalr	s5
    63ac:	01751e63          	bne	a0,s7,63c8 <_printf_common+0xd8>
    63b0:	557d                	li	a0,-1
    63b2:	50b2                	lw	ra,44(sp)
    63b4:	5422                	lw	s0,40(sp)
    63b6:	5492                	lw	s1,36(sp)
    63b8:	5902                	lw	s2,32(sp)
    63ba:	49f2                	lw	s3,28(sp)
    63bc:	4a62                	lw	s4,24(sp)
    63be:	4ad2                	lw	s5,20(sp)
    63c0:	4b42                	lw	s6,16(sp)
    63c2:	4bb2                	lw	s7,12(sp)
    63c4:	6145                	addi	sp,sp,48
    63c6:	8082                	ret
    63c8:	0905                	addi	s2,s2,1
    63ca:	bfad                	j	6344 <_printf_common+0x54>
    63cc:	00d40733          	add	a4,s0,a3
    63d0:	03000613          	li	a2,48
    63d4:	04c701a3          	sb	a2,67(a4)
    63d8:	04544703          	lbu	a4,69(s0)
    63dc:	00168793          	addi	a5,a3,1
    63e0:	97a2                	add	a5,a5,s0
    63e2:	0689                	addi	a3,a3,2
    63e4:	04e781a3          	sb	a4,67(a5)
    63e8:	bf9d                	j	635e <_printf_common+0x6e>
    63ea:	4685                	li	a3,1
    63ec:	8622                	mv	a2,s0
    63ee:	85d2                	mv	a1,s4
    63f0:	854e                	mv	a0,s3
    63f2:	9a82                	jalr	s5
    63f4:	fb650ee3          	beq	a0,s6,63b0 <_printf_common+0xc0>
    63f8:	0905                	addi	s2,s2,1
    63fa:	b745                	j	639a <_printf_common+0xaa>

000063fc <_printf_i>:
_printf_i():
    63fc:	7179                	addi	sp,sp,-48
    63fe:	d422                	sw	s0,40(sp)
    6400:	d226                	sw	s1,36(sp)
    6402:	d04a                	sw	s2,32(sp)
    6404:	ce4e                	sw	s3,28(sp)
    6406:	d606                	sw	ra,44(sp)
    6408:	cc52                	sw	s4,24(sp)
    640a:	ca56                	sw	s5,20(sp)
    640c:	c85a                	sw	s6,16(sp)
    640e:	89b6                	mv	s3,a3
    6410:	0185c683          	lbu	a3,24(a1)
    6414:	06900793          	li	a5,105
    6418:	8932                	mv	s2,a2
    641a:	84aa                	mv	s1,a0
    641c:	842e                	mv	s0,a1
    641e:	04358613          	addi	a2,a1,67
    6422:	02f68d63          	beq	a3,a5,645c <_printf_i+0x60>
    6426:	06d7e263          	bltu	a5,a3,648a <_printf_i+0x8e>
    642a:	05800793          	li	a5,88
    642e:	18f68963          	beq	a3,a5,65c0 <_printf_i+0x1c4>
    6432:	00d7ed63          	bltu	a5,a3,644c <_printf_i+0x50>
    6436:	22068263          	beqz	a3,665a <_printf_i+0x25e>
    643a:	04300793          	li	a5,67
    643e:	0af68f63          	beq	a3,a5,64fc <_printf_i+0x100>
    6442:	04240a93          	addi	s5,s0,66
    6446:	04d40123          	sb	a3,66(s0)
    644a:	a0d1                	j	650e <_printf_i+0x112>
    644c:	06300793          	li	a5,99
    6450:	0af68663          	beq	a3,a5,64fc <_printf_i+0x100>
    6454:	06400793          	li	a5,100
    6458:	fef695e3          	bne	a3,a5,6442 <_printf_i+0x46>
    645c:	401c                	lw	a5,0(s0)
    645e:	4308                	lw	a0,0(a4)
    6460:	0807f693          	andi	a3,a5,128
    6464:	00450593          	addi	a1,a0,4
    6468:	c6cd                	beqz	a3,6512 <_printf_i+0x116>
    646a:	411c                	lw	a5,0(a0)
    646c:	c30c                	sw	a1,0(a4)
    646e:	0007d863          	bgez	a5,647e <_printf_i+0x82>
    6472:	02d00713          	li	a4,45
    6476:	40f007b3          	neg	a5,a5
    647a:	04e401a3          	sb	a4,67(s0)
    647e:	00003697          	auipc	a3,0x3
    6482:	e9e68693          	addi	a3,a3,-354 # 931c <__clz_tab+0x11c>
    6486:	4729                	li	a4,10
    6488:	a875                	j	6544 <_printf_i+0x148>
    648a:	07000793          	li	a5,112
    648e:	16f68563          	beq	a3,a5,65f8 <_printf_i+0x1fc>
    6492:	02d7e563          	bltu	a5,a3,64bc <_printf_i+0xc0>
    6496:	06e00793          	li	a5,110
    649a:	18f68c63          	beq	a3,a5,6632 <_printf_i+0x236>
    649e:	06f00793          	li	a5,111
    64a2:	faf690e3          	bne	a3,a5,6442 <_printf_i+0x46>
    64a6:	400c                	lw	a1,0(s0)
    64a8:	431c                	lw	a5,0(a4)
    64aa:	0805f813          	andi	a6,a1,128
    64ae:	00478513          	addi	a0,a5,4
    64b2:	06080863          	beqz	a6,6522 <_printf_i+0x126>
    64b6:	c308                	sw	a0,0(a4)
    64b8:	439c                	lw	a5,0(a5)
    64ba:	a895                	j	652e <_printf_i+0x132>
    64bc:	07500793          	li	a5,117
    64c0:	fef683e3          	beq	a3,a5,64a6 <_printf_i+0xaa>
    64c4:	07800793          	li	a5,120
    64c8:	12f68c63          	beq	a3,a5,6600 <_printf_i+0x204>
    64cc:	07300793          	li	a5,115
    64d0:	f6f699e3          	bne	a3,a5,6442 <_printf_i+0x46>
    64d4:	431c                	lw	a5,0(a4)
    64d6:	41d0                	lw	a2,4(a1)
    64d8:	4581                	li	a1,0
    64da:	00478693          	addi	a3,a5,4
    64de:	c314                	sw	a3,0(a4)
    64e0:	0007aa83          	lw	s5,0(a5)
    64e4:	8556                	mv	a0,s5
    64e6:	728010ef          	jal	ra,7c0e <memchr>
    64ea:	c501                	beqz	a0,64f2 <_printf_i+0xf6>
    64ec:	41550533          	sub	a0,a0,s5
    64f0:	c048                	sw	a0,4(s0)
    64f2:	405c                	lw	a5,4(s0)
    64f4:	c81c                	sw	a5,16(s0)
    64f6:	040401a3          	sb	zero,67(s0)
    64fa:	a871                	j	6596 <_printf_i+0x19a>
    64fc:	431c                	lw	a5,0(a4)
    64fe:	04240a93          	addi	s5,s0,66
    6502:	00478693          	addi	a3,a5,4
    6506:	439c                	lw	a5,0(a5)
    6508:	c314                	sw	a3,0(a4)
    650a:	04f40123          	sb	a5,66(s0)
    650e:	4785                	li	a5,1
    6510:	b7d5                	j	64f4 <_printf_i+0xf8>
    6512:	0407f693          	andi	a3,a5,64
    6516:	411c                	lw	a5,0(a0)
    6518:	c30c                	sw	a1,0(a4)
    651a:	dab1                	beqz	a3,646e <_printf_i+0x72>
    651c:	07c2                	slli	a5,a5,0x10
    651e:	87c1                	srai	a5,a5,0x10
    6520:	b7b9                	j	646e <_printf_i+0x72>
    6522:	0405f593          	andi	a1,a1,64
    6526:	c308                	sw	a0,0(a4)
    6528:	d9c1                	beqz	a1,64b8 <_printf_i+0xbc>
    652a:	0007d783          	lhu	a5,0(a5)
    652e:	06f00713          	li	a4,111
    6532:	0ee68863          	beq	a3,a4,6622 <_printf_i+0x226>
    6536:	00003697          	auipc	a3,0x3
    653a:	de668693          	addi	a3,a3,-538 # 931c <__clz_tab+0x11c>
    653e:	4729                	li	a4,10
    6540:	040401a3          	sb	zero,67(s0)
    6544:	404c                	lw	a1,4(s0)
    6546:	c40c                	sw	a1,8(s0)
    6548:	0005c563          	bltz	a1,6552 <_printf_i+0x156>
    654c:	4008                	lw	a0,0(s0)
    654e:	996d                	andi	a0,a0,-5
    6550:	c008                	sw	a0,0(s0)
    6552:	e399                	bnez	a5,6558 <_printf_i+0x15c>
    6554:	8ab2                	mv	s5,a2
    6556:	cd91                	beqz	a1,6572 <_printf_i+0x176>
    6558:	8ab2                	mv	s5,a2
    655a:	02e7f5b3          	remu	a1,a5,a4
    655e:	1afd                	addi	s5,s5,-1
    6560:	95b6                	add	a1,a1,a3
    6562:	0005c583          	lbu	a1,0(a1)
    6566:	00ba8023          	sb	a1,0(s5)
    656a:	02e7d5b3          	divu	a1,a5,a4
    656e:	0ce7f063          	bgeu	a5,a4,662e <_printf_i+0x232>
    6572:	47a1                	li	a5,8
    6574:	00f71e63          	bne	a4,a5,6590 <_printf_i+0x194>
    6578:	401c                	lw	a5,0(s0)
    657a:	8b85                	andi	a5,a5,1
    657c:	cb91                	beqz	a5,6590 <_printf_i+0x194>
    657e:	4058                	lw	a4,4(s0)
    6580:	481c                	lw	a5,16(s0)
    6582:	00e7c763          	blt	a5,a4,6590 <_printf_i+0x194>
    6586:	03000793          	li	a5,48
    658a:	fefa8fa3          	sb	a5,-1(s5)
    658e:	1afd                	addi	s5,s5,-1
    6590:	41560633          	sub	a2,a2,s5
    6594:	c810                	sw	a2,16(s0)
    6596:	874e                	mv	a4,s3
    6598:	86ca                	mv	a3,s2
    659a:	0070                	addi	a2,sp,12
    659c:	85a2                	mv	a1,s0
    659e:	8526                	mv	a0,s1
    65a0:	d51ff0ef          	jal	ra,62f0 <_printf_common>
    65a4:	5a7d                	li	s4,-1
    65a6:	0b451e63          	bne	a0,s4,6662 <_printf_i+0x266>
    65aa:	557d                	li	a0,-1
    65ac:	50b2                	lw	ra,44(sp)
    65ae:	5422                	lw	s0,40(sp)
    65b0:	5492                	lw	s1,36(sp)
    65b2:	5902                	lw	s2,32(sp)
    65b4:	49f2                	lw	s3,28(sp)
    65b6:	4a62                	lw	s4,24(sp)
    65b8:	4ad2                	lw	s5,20(sp)
    65ba:	4b42                	lw	s6,16(sp)
    65bc:	6145                	addi	sp,sp,48
    65be:	8082                	ret
    65c0:	04d582a3          	sb	a3,69(a1)
    65c4:	00003697          	auipc	a3,0x3
    65c8:	d5868693          	addi	a3,a3,-680 # 931c <__clz_tab+0x11c>
    65cc:	400c                	lw	a1,0(s0)
    65ce:	4308                	lw	a0,0(a4)
    65d0:	0805f813          	andi	a6,a1,128
    65d4:	411c                	lw	a5,0(a0)
    65d6:	0511                	addi	a0,a0,4
    65d8:	02080d63          	beqz	a6,6612 <_printf_i+0x216>
    65dc:	c308                	sw	a0,0(a4)
    65de:	0015f713          	andi	a4,a1,1
    65e2:	c701                	beqz	a4,65ea <_printf_i+0x1ee>
    65e4:	0205e593          	ori	a1,a1,32
    65e8:	c00c                	sw	a1,0(s0)
    65ea:	4741                	li	a4,16
    65ec:	fbb1                	bnez	a5,6540 <_printf_i+0x144>
    65ee:	400c                	lw	a1,0(s0)
    65f0:	fdf5f593          	andi	a1,a1,-33
    65f4:	c00c                	sw	a1,0(s0)
    65f6:	b7a9                	j	6540 <_printf_i+0x144>
    65f8:	419c                	lw	a5,0(a1)
    65fa:	0207e793          	ori	a5,a5,32
    65fe:	c19c                	sw	a5,0(a1)
    6600:	07800793          	li	a5,120
    6604:	04f402a3          	sb	a5,69(s0)
    6608:	00003697          	auipc	a3,0x3
    660c:	d2868693          	addi	a3,a3,-728 # 9330 <__clz_tab+0x130>
    6610:	bf75                	j	65cc <_printf_i+0x1d0>
    6612:	0405f813          	andi	a6,a1,64
    6616:	c308                	sw	a0,0(a4)
    6618:	fc0803e3          	beqz	a6,65de <_printf_i+0x1e2>
    661c:	07c2                	slli	a5,a5,0x10
    661e:	83c1                	srli	a5,a5,0x10
    6620:	bf7d                	j	65de <_printf_i+0x1e2>
    6622:	00003697          	auipc	a3,0x3
    6626:	cfa68693          	addi	a3,a3,-774 # 931c <__clz_tab+0x11c>
    662a:	4721                	li	a4,8
    662c:	bf11                	j	6540 <_printf_i+0x144>
    662e:	87ae                	mv	a5,a1
    6630:	b72d                	j	655a <_printf_i+0x15e>
    6632:	4194                	lw	a3,0(a1)
    6634:	431c                	lw	a5,0(a4)
    6636:	49cc                	lw	a1,20(a1)
    6638:	0806f813          	andi	a6,a3,128
    663c:	00478513          	addi	a0,a5,4
    6640:	00080663          	beqz	a6,664c <_printf_i+0x250>
    6644:	c308                	sw	a0,0(a4)
    6646:	439c                	lw	a5,0(a5)
    6648:	c38c                	sw	a1,0(a5)
    664a:	a801                	j	665a <_printf_i+0x25e>
    664c:	c308                	sw	a0,0(a4)
    664e:	0406f693          	andi	a3,a3,64
    6652:	439c                	lw	a5,0(a5)
    6654:	daf5                	beqz	a3,6648 <_printf_i+0x24c>
    6656:	00b79023          	sh	a1,0(a5)
    665a:	00042823          	sw	zero,16(s0)
    665e:	8ab2                	mv	s5,a2
    6660:	bf1d                	j	6596 <_printf_i+0x19a>
    6662:	4814                	lw	a3,16(s0)
    6664:	8656                	mv	a2,s5
    6666:	85ca                	mv	a1,s2
    6668:	8526                	mv	a0,s1
    666a:	9982                	jalr	s3
    666c:	f3450fe3          	beq	a0,s4,65aa <_printf_i+0x1ae>
    6670:	401c                	lw	a5,0(s0)
    6672:	8b89                	andi	a5,a5,2
    6674:	e78d                	bnez	a5,669e <_printf_i+0x2a2>
    6676:	47b2                	lw	a5,12(sp)
    6678:	4448                	lw	a0,12(s0)
    667a:	f2f559e3          	bge	a0,a5,65ac <_printf_i+0x1b0>
    667e:	853e                	mv	a0,a5
    6680:	b735                	j	65ac <_printf_i+0x1b0>
    6682:	4685                	li	a3,1
    6684:	8656                	mv	a2,s5
    6686:	85ca                	mv	a1,s2
    6688:	8526                	mv	a0,s1
    668a:	9982                	jalr	s3
    668c:	f1650fe3          	beq	a0,s6,65aa <_printf_i+0x1ae>
    6690:	0a05                	addi	s4,s4,1
    6692:	445c                	lw	a5,12(s0)
    6694:	4732                	lw	a4,12(sp)
    6696:	8f99                	sub	a5,a5,a4
    6698:	fefa45e3          	blt	s4,a5,6682 <_printf_i+0x286>
    669c:	bfe9                	j	6676 <_printf_i+0x27a>
    669e:	4a01                	li	s4,0
    66a0:	01940a93          	addi	s5,s0,25
    66a4:	5b7d                	li	s6,-1
    66a6:	b7f5                	j	6692 <_printf_i+0x296>

000066a8 <iprintf>:
printf():
    66a8:	7139                	addi	sp,sp,-64
    66aa:	da3e                	sw	a5,52(sp)
    66ac:	d22e                	sw	a1,36(sp)
    66ae:	d432                	sw	a2,40(sp)
    66b0:	d636                	sw	a3,44(sp)
    66b2:	d83a                	sw	a4,48(sp)
    66b4:	dc42                	sw	a6,56(sp)
    66b6:	de46                	sw	a7,60(sp)
    66b8:	81818793          	addi	a5,gp,-2024 # 20000238 <_impure_ptr>
    66bc:	cc22                	sw	s0,24(sp)
    66be:	4380                	lw	s0,0(a5)
    66c0:	ca26                	sw	s1,20(sp)
    66c2:	ce06                	sw	ra,28(sp)
    66c4:	84aa                	mv	s1,a0
    66c6:	c411                	beqz	s0,66d2 <iprintf+0x2a>
    66c8:	4c1c                	lw	a5,24(s0)
    66ca:	e781                	bnez	a5,66d2 <iprintf+0x2a>
    66cc:	8522                	mv	a0,s0
    66ce:	2a8010ef          	jal	ra,7976 <__sinit>
    66d2:	440c                	lw	a1,8(s0)
    66d4:	1054                	addi	a3,sp,36
    66d6:	8626                	mv	a2,s1
    66d8:	8522                	mv	a0,s0
    66da:	c636                	sw	a3,12(sp)
    66dc:	64b010ef          	jal	ra,8526 <_vfiprintf_r>
    66e0:	40f2                	lw	ra,28(sp)
    66e2:	4462                	lw	s0,24(sp)
    66e4:	44d2                	lw	s1,20(sp)
    66e6:	6121                	addi	sp,sp,64
    66e8:	8082                	ret

000066ea <_puts_r>:
_puts_r():
    66ea:	1101                	addi	sp,sp,-32
    66ec:	ca26                	sw	s1,20(sp)
    66ee:	c84a                	sw	s2,16(sp)
    66f0:	ce06                	sw	ra,28(sp)
    66f2:	cc22                	sw	s0,24(sp)
    66f4:	c64e                	sw	s3,12(sp)
    66f6:	c452                	sw	s4,8(sp)
    66f8:	84aa                	mv	s1,a0
    66fa:	892e                	mv	s2,a1
    66fc:	c509                	beqz	a0,6706 <_puts_r+0x1c>
    66fe:	4d1c                	lw	a5,24(a0)
    6700:	e399                	bnez	a5,6706 <_puts_r+0x1c>
    6702:	274010ef          	jal	ra,7976 <__sinit>
    6706:	4c9c                	lw	a5,24(s1)
    6708:	4480                	lw	s0,8(s1)
    670a:	e781                	bnez	a5,6712 <_puts_r+0x28>
    670c:	8526                	mv	a0,s1
    670e:	268010ef          	jal	ra,7976 <__sinit>
    6712:	00003797          	auipc	a5,0x3
    6716:	cae78793          	addi	a5,a5,-850 # 93c0 <__sf_fake_stdin>
    671a:	02f41c63          	bne	s0,a5,6752 <_puts_r+0x68>
    671e:	40c0                	lw	s0,4(s1)
    6720:	00c45783          	lhu	a5,12(s0)
    6724:	8ba1                	andi	a5,a5,8
    6726:	c7b1                	beqz	a5,6772 <_puts_r+0x88>
    6728:	481c                	lw	a5,16(s0)
    672a:	c7a1                	beqz	a5,6772 <_puts_r+0x88>
    672c:	59fd                	li	s3,-1
    672e:	4a29                	li	s4,10
    6730:	441c                	lw	a5,8(s0)
    6732:	00094583          	lbu	a1,0(s2) # 800000 <_data_lma+0x7f69dc>
    6736:	17fd                	addi	a5,a5,-1
    6738:	e9b1                	bnez	a1,678c <_puts_r+0xa2>
    673a:	c41c                	sw	a5,8(s0)
    673c:	0607de63          	bgez	a5,67b8 <_puts_r+0xce>
    6740:	8622                	mv	a2,s0
    6742:	45a9                	li	a1,10
    6744:	8526                	mv	a0,s1
    6746:	2045                	jal	67e6 <__swbuf_r>
    6748:	57fd                	li	a5,-1
    674a:	02f50863          	beq	a0,a5,677a <_puts_r+0x90>
    674e:	4529                	li	a0,10
    6750:	a035                	j	677c <_puts_r+0x92>
    6752:	00003797          	auipc	a5,0x3
    6756:	c8e78793          	addi	a5,a5,-882 # 93e0 <__sf_fake_stdout>
    675a:	00f41463          	bne	s0,a5,6762 <_puts_r+0x78>
    675e:	4480                	lw	s0,8(s1)
    6760:	b7c1                	j	6720 <_puts_r+0x36>
    6762:	00003797          	auipc	a5,0x3
    6766:	c3e78793          	addi	a5,a5,-962 # 93a0 <__sf_fake_stderr>
    676a:	faf41be3          	bne	s0,a5,6720 <_puts_r+0x36>
    676e:	44c0                	lw	s0,12(s1)
    6770:	bf45                	j	6720 <_puts_r+0x36>
    6772:	85a2                	mv	a1,s0
    6774:	8526                	mv	a0,s1
    6776:	2a1d                	jal	68ac <__swsetup_r>
    6778:	d955                	beqz	a0,672c <_puts_r+0x42>
    677a:	557d                	li	a0,-1
    677c:	40f2                	lw	ra,28(sp)
    677e:	4462                	lw	s0,24(sp)
    6780:	44d2                	lw	s1,20(sp)
    6782:	4942                	lw	s2,16(sp)
    6784:	49b2                	lw	s3,12(sp)
    6786:	4a22                	lw	s4,8(sp)
    6788:	6105                	addi	sp,sp,32
    678a:	8082                	ret
    678c:	c41c                	sw	a5,8(s0)
    678e:	0905                	addi	s2,s2,1
    6790:	0007d763          	bgez	a5,679e <_puts_r+0xb4>
    6794:	4c18                	lw	a4,24(s0)
    6796:	00e7cb63          	blt	a5,a4,67ac <_puts_r+0xc2>
    679a:	01458963          	beq	a1,s4,67ac <_puts_r+0xc2>
    679e:	401c                	lw	a5,0(s0)
    67a0:	00178713          	addi	a4,a5,1
    67a4:	c018                	sw	a4,0(s0)
    67a6:	00b78023          	sb	a1,0(a5)
    67aa:	b759                	j	6730 <_puts_r+0x46>
    67ac:	8622                	mv	a2,s0
    67ae:	8526                	mv	a0,s1
    67b0:	281d                	jal	67e6 <__swbuf_r>
    67b2:	f7351fe3          	bne	a0,s3,6730 <_puts_r+0x46>
    67b6:	b7d1                	j	677a <_puts_r+0x90>
    67b8:	401c                	lw	a5,0(s0)
    67ba:	00178713          	addi	a4,a5,1
    67be:	c018                	sw	a4,0(s0)
    67c0:	4729                	li	a4,10
    67c2:	00e78023          	sb	a4,0(a5)
    67c6:	b761                	j	674e <_puts_r+0x64>

000067c8 <puts>:
puts():
    67c8:	81818793          	addi	a5,gp,-2024 # 20000238 <_impure_ptr>
    67cc:	85aa                	mv	a1,a0
    67ce:	4388                	lw	a0,0(a5)
    67d0:	f1bff06f          	j	66ea <_puts_r>

000067d4 <strlen>:
strlen():
    67d4:	87aa                	mv	a5,a0
    67d6:	0785                	addi	a5,a5,1
    67d8:	fff7c703          	lbu	a4,-1(a5)
    67dc:	ff6d                	bnez	a4,67d6 <strlen+0x2>
    67de:	40a78533          	sub	a0,a5,a0
    67e2:	157d                	addi	a0,a0,-1
    67e4:	8082                	ret

000067e6 <__swbuf_r>:
__swbuf_r():
    67e6:	1101                	addi	sp,sp,-32
    67e8:	cc22                	sw	s0,24(sp)
    67ea:	ca26                	sw	s1,20(sp)
    67ec:	c84a                	sw	s2,16(sp)
    67ee:	ce06                	sw	ra,28(sp)
    67f0:	c64e                	sw	s3,12(sp)
    67f2:	84aa                	mv	s1,a0
    67f4:	892e                	mv	s2,a1
    67f6:	8432                	mv	s0,a2
    67f8:	c509                	beqz	a0,6802 <__swbuf_r+0x1c>
    67fa:	4d1c                	lw	a5,24(a0)
    67fc:	e399                	bnez	a5,6802 <__swbuf_r+0x1c>
    67fe:	178010ef          	jal	ra,7976 <__sinit>
    6802:	00003797          	auipc	a5,0x3
    6806:	bbe78793          	addi	a5,a5,-1090 # 93c0 <__sf_fake_stdin>
    680a:	06f41b63          	bne	s0,a5,6880 <__swbuf_r+0x9a>
    680e:	40c0                	lw	s0,4(s1)
    6810:	4c1c                	lw	a5,24(s0)
    6812:	c41c                	sw	a5,8(s0)
    6814:	00c45783          	lhu	a5,12(s0)
    6818:	8ba1                	andi	a5,a5,8
    681a:	c3d9                	beqz	a5,68a0 <__swbuf_r+0xba>
    681c:	481c                	lw	a5,16(s0)
    681e:	c3c9                	beqz	a5,68a0 <__swbuf_r+0xba>
    6820:	481c                	lw	a5,16(s0)
    6822:	4008                	lw	a0,0(s0)
    6824:	0ff97993          	andi	s3,s2,255
    6828:	0ff97913          	andi	s2,s2,255
    682c:	8d1d                	sub	a0,a0,a5
    682e:	485c                	lw	a5,20(s0)
    6830:	00f54763          	blt	a0,a5,683e <__swbuf_r+0x58>
    6834:	85a2                	mv	a1,s0
    6836:	8526                	mv	a0,s1
    6838:	01c010ef          	jal	ra,7854 <_fflush_r>
    683c:	e535                	bnez	a0,68a8 <__swbuf_r+0xc2>
    683e:	441c                	lw	a5,8(s0)
    6840:	0505                	addi	a0,a0,1
    6842:	17fd                	addi	a5,a5,-1
    6844:	c41c                	sw	a5,8(s0)
    6846:	401c                	lw	a5,0(s0)
    6848:	00178713          	addi	a4,a5,1
    684c:	c018                	sw	a4,0(s0)
    684e:	01378023          	sb	s3,0(a5)
    6852:	485c                	lw	a5,20(s0)
    6854:	00a78963          	beq	a5,a0,6866 <__swbuf_r+0x80>
    6858:	00c45783          	lhu	a5,12(s0)
    685c:	8b85                	andi	a5,a5,1
    685e:	cb89                	beqz	a5,6870 <__swbuf_r+0x8a>
    6860:	47a9                	li	a5,10
    6862:	00f91763          	bne	s2,a5,6870 <__swbuf_r+0x8a>
    6866:	85a2                	mv	a1,s0
    6868:	8526                	mv	a0,s1
    686a:	7eb000ef          	jal	ra,7854 <_fflush_r>
    686e:	ed0d                	bnez	a0,68a8 <__swbuf_r+0xc2>
    6870:	40f2                	lw	ra,28(sp)
    6872:	4462                	lw	s0,24(sp)
    6874:	854a                	mv	a0,s2
    6876:	44d2                	lw	s1,20(sp)
    6878:	4942                	lw	s2,16(sp)
    687a:	49b2                	lw	s3,12(sp)
    687c:	6105                	addi	sp,sp,32
    687e:	8082                	ret
    6880:	00003797          	auipc	a5,0x3
    6884:	b6078793          	addi	a5,a5,-1184 # 93e0 <__sf_fake_stdout>
    6888:	00f41463          	bne	s0,a5,6890 <__swbuf_r+0xaa>
    688c:	4480                	lw	s0,8(s1)
    688e:	b749                	j	6810 <__swbuf_r+0x2a>
    6890:	00003797          	auipc	a5,0x3
    6894:	b1078793          	addi	a5,a5,-1264 # 93a0 <__sf_fake_stderr>
    6898:	f6f41ce3          	bne	s0,a5,6810 <__swbuf_r+0x2a>
    689c:	44c0                	lw	s0,12(s1)
    689e:	bf8d                	j	6810 <__swbuf_r+0x2a>
    68a0:	85a2                	mv	a1,s0
    68a2:	8526                	mv	a0,s1
    68a4:	2021                	jal	68ac <__swsetup_r>
    68a6:	dd2d                	beqz	a0,6820 <__swbuf_r+0x3a>
    68a8:	597d                	li	s2,-1
    68aa:	b7d9                	j	6870 <__swbuf_r+0x8a>

000068ac <__swsetup_r>:
__swsetup_r():
    68ac:	1141                	addi	sp,sp,-16
    68ae:	81818793          	addi	a5,gp,-2024 # 20000238 <_impure_ptr>
    68b2:	c226                	sw	s1,4(sp)
    68b4:	4384                	lw	s1,0(a5)
    68b6:	c422                	sw	s0,8(sp)
    68b8:	c04a                	sw	s2,0(sp)
    68ba:	c606                	sw	ra,12(sp)
    68bc:	892a                	mv	s2,a0
    68be:	842e                	mv	s0,a1
    68c0:	c491                	beqz	s1,68cc <__swsetup_r+0x20>
    68c2:	4c9c                	lw	a5,24(s1)
    68c4:	e781                	bnez	a5,68cc <__swsetup_r+0x20>
    68c6:	8526                	mv	a0,s1
    68c8:	0ae010ef          	jal	ra,7976 <__sinit>
    68cc:	00003797          	auipc	a5,0x3
    68d0:	af478793          	addi	a5,a5,-1292 # 93c0 <__sf_fake_stdin>
    68d4:	02f41c63          	bne	s0,a5,690c <__swsetup_r+0x60>
    68d8:	40c0                	lw	s0,4(s1)
    68da:	00c41703          	lh	a4,12(s0)
    68de:	01071793          	slli	a5,a4,0x10
    68e2:	83c1                	srli	a5,a5,0x10
    68e4:	0087f693          	andi	a3,a5,8
    68e8:	eebd                	bnez	a3,6966 <__swsetup_r+0xba>
    68ea:	0107f693          	andi	a3,a5,16
    68ee:	ee9d                	bnez	a3,692c <__swsetup_r+0x80>
    68f0:	47a5                	li	a5,9
    68f2:	00f92023          	sw	a5,0(s2)
    68f6:	04076713          	ori	a4,a4,64
    68fa:	00e41623          	sh	a4,12(s0)
    68fe:	557d                	li	a0,-1
    6900:	40b2                	lw	ra,12(sp)
    6902:	4422                	lw	s0,8(sp)
    6904:	4492                	lw	s1,4(sp)
    6906:	4902                	lw	s2,0(sp)
    6908:	0141                	addi	sp,sp,16
    690a:	8082                	ret
    690c:	00003797          	auipc	a5,0x3
    6910:	ad478793          	addi	a5,a5,-1324 # 93e0 <__sf_fake_stdout>
    6914:	00f41463          	bne	s0,a5,691c <__swsetup_r+0x70>
    6918:	4480                	lw	s0,8(s1)
    691a:	b7c1                	j	68da <__swsetup_r+0x2e>
    691c:	00003797          	auipc	a5,0x3
    6920:	a8478793          	addi	a5,a5,-1404 # 93a0 <__sf_fake_stderr>
    6924:	faf41be3          	bne	s0,a5,68da <__swsetup_r+0x2e>
    6928:	44c0                	lw	s0,12(s1)
    692a:	bf45                	j	68da <__swsetup_r+0x2e>
    692c:	8b91                	andi	a5,a5,4
    692e:	c795                	beqz	a5,695a <__swsetup_r+0xae>
    6930:	584c                	lw	a1,52(s0)
    6932:	c991                	beqz	a1,6946 <__swsetup_r+0x9a>
    6934:	04440793          	addi	a5,s0,68
    6938:	00f58563          	beq	a1,a5,6942 <__swsetup_r+0x96>
    693c:	854a                	mv	a0,s2
    693e:	209010ef          	jal	ra,8346 <_free_r>
    6942:	02042a23          	sw	zero,52(s0)
    6946:	00c45783          	lhu	a5,12(s0)
    694a:	00042223          	sw	zero,4(s0)
    694e:	fdb7f793          	andi	a5,a5,-37
    6952:	00f41623          	sh	a5,12(s0)
    6956:	481c                	lw	a5,16(s0)
    6958:	c01c                	sw	a5,0(s0)
    695a:	00c45783          	lhu	a5,12(s0)
    695e:	0087e793          	ori	a5,a5,8
    6962:	00f41623          	sh	a5,12(s0)
    6966:	481c                	lw	a5,16(s0)
    6968:	ef89                	bnez	a5,6982 <__swsetup_r+0xd6>
    696a:	00c45783          	lhu	a5,12(s0)
    696e:	20000713          	li	a4,512
    6972:	2807f793          	andi	a5,a5,640
    6976:	00e78663          	beq	a5,a4,6982 <__swsetup_r+0xd6>
    697a:	85a2                	mv	a1,s0
    697c:	854a                	mv	a0,s2
    697e:	1e2010ef          	jal	ra,7b60 <__smakebuf_r>
    6982:	00c45783          	lhu	a5,12(s0)
    6986:	0017f713          	andi	a4,a5,1
    698a:	c705                	beqz	a4,69b2 <__swsetup_r+0x106>
    698c:	485c                	lw	a5,20(s0)
    698e:	00042423          	sw	zero,8(s0)
    6992:	40f007b3          	neg	a5,a5
    6996:	cc1c                	sw	a5,24(s0)
    6998:	481c                	lw	a5,16(s0)
    699a:	4501                	li	a0,0
    699c:	f3b5                	bnez	a5,6900 <__swsetup_r+0x54>
    699e:	00c41783          	lh	a5,12(s0)
    69a2:	0807f713          	andi	a4,a5,128
    69a6:	df29                	beqz	a4,6900 <__swsetup_r+0x54>
    69a8:	0407e793          	ori	a5,a5,64
    69ac:	00f41623          	sh	a5,12(s0)
    69b0:	b7b9                	j	68fe <__swsetup_r+0x52>
    69b2:	8b89                	andi	a5,a5,2
    69b4:	4701                	li	a4,0
    69b6:	e391                	bnez	a5,69ba <__swsetup_r+0x10e>
    69b8:	4858                	lw	a4,20(s0)
    69ba:	c418                	sw	a4,8(s0)
    69bc:	bff1                	j	6998 <__swsetup_r+0xec>

000069be <quorem>:
quorem():
    69be:	1101                	addi	sp,sp,-32
    69c0:	cc22                	sw	s0,24(sp)
    69c2:	491c                	lw	a5,16(a0)
    69c4:	4980                	lw	s0,16(a1)
    69c6:	ce06                	sw	ra,28(sp)
    69c8:	ca26                	sw	s1,20(sp)
    69ca:	c84a                	sw	s2,16(sp)
    69cc:	c64e                	sw	s3,12(sp)
    69ce:	c452                	sw	s4,8(sp)
    69d0:	c256                	sw	s5,4(sp)
    69d2:	1287c163          	blt	a5,s0,6af4 <quorem+0x136>
    69d6:	147d                	addi	s0,s0,-1
    69d8:	00241813          	slli	a6,s0,0x2
    69dc:	01458993          	addi	s3,a1,20
    69e0:	01098a33          	add	s4,s3,a6
    69e4:	01450913          	addi	s2,a0,20
    69e8:	984a                	add	a6,a6,s2
    69ea:	000a2783          	lw	a5,0(s4)
    69ee:	00082703          	lw	a4,0(a6)
    69f2:	0785                	addi	a5,a5,1
    69f4:	02f754b3          	divu	s1,a4,a5
    69f8:	06f76663          	bltu	a4,a5,6a64 <quorem+0xa6>
    69fc:	68c1                	lui	a7,0x10
    69fe:	834e                	mv	t1,s3
    6a00:	8e4a                	mv	t3,s2
    6a02:	4e81                	li	t4,0
    6a04:	4f01                	li	t5,0
    6a06:	18fd                	addi	a7,a7,-1
    6a08:	0311                	addi	t1,t1,4
    6a0a:	ffc32603          	lw	a2,-4(t1)
    6a0e:	0e11                	addi	t3,t3,4
    6a10:	01167733          	and	a4,a2,a7
    6a14:	8241                	srli	a2,a2,0x10
    6a16:	02970733          	mul	a4,a4,s1
    6a1a:	02960633          	mul	a2,a2,s1
    6a1e:	9776                	add	a4,a4,t4
    6a20:	01075693          	srli	a3,a4,0x10
    6a24:	011777b3          	and	a5,a4,a7
    6a28:	40ff07b3          	sub	a5,t5,a5
    6a2c:	9636                	add	a2,a2,a3
    6a2e:	ffce2683          	lw	a3,-4(t3)
    6a32:	01065e93          	srli	t4,a2,0x10
    6a36:	01167633          	and	a2,a2,a7
    6a3a:	0116f733          	and	a4,a3,a7
    6a3e:	97ba                	add	a5,a5,a4
    6a40:	82c1                	srli	a3,a3,0x10
    6a42:	4107d713          	srai	a4,a5,0x10
    6a46:	8e91                	sub	a3,a3,a2
    6a48:	96ba                	add	a3,a3,a4
    6a4a:	4106df13          	srai	t5,a3,0x10
    6a4e:	0117f7b3          	and	a5,a5,a7
    6a52:	06c2                	slli	a3,a3,0x10
    6a54:	8fd5                	or	a5,a5,a3
    6a56:	fefe2e23          	sw	a5,-4(t3)
    6a5a:	fa6a77e3          	bgeu	s4,t1,6a08 <quorem+0x4a>
    6a5e:	00082783          	lw	a5,0(a6)
    6a62:	cbbd                	beqz	a5,6ad8 <quorem+0x11a>
    6a64:	8aaa                	mv	s5,a0
    6a66:	6c2010ef          	jal	ra,8128 <__mcmp>
    6a6a:	04054963          	bltz	a0,6abc <quorem+0xfe>
    6a6e:	6641                	lui	a2,0x10
    6a70:	0485                	addi	s1,s1,1
    6a72:	85ca                	mv	a1,s2
    6a74:	4501                	li	a0,0
    6a76:	167d                	addi	a2,a2,-1
    6a78:	0991                	addi	s3,s3,4
    6a7a:	ffc9a803          	lw	a6,-4(s3)
    6a7e:	4198                	lw	a4,0(a1)
    6a80:	0591                	addi	a1,a1,4
    6a82:	00c876b3          	and	a3,a6,a2
    6a86:	8d15                	sub	a0,a0,a3
    6a88:	00c776b3          	and	a3,a4,a2
    6a8c:	96aa                	add	a3,a3,a0
    6a8e:	01075793          	srli	a5,a4,0x10
    6a92:	01085813          	srli	a6,a6,0x10
    6a96:	4106d713          	srai	a4,a3,0x10
    6a9a:	410787b3          	sub	a5,a5,a6
    6a9e:	97ba                	add	a5,a5,a4
    6aa0:	4107d513          	srai	a0,a5,0x10
    6aa4:	8ef1                	and	a3,a3,a2
    6aa6:	07c2                	slli	a5,a5,0x10
    6aa8:	8fd5                	or	a5,a5,a3
    6aaa:	fef5ae23          	sw	a5,-4(a1)
    6aae:	fd3a75e3          	bgeu	s4,s3,6a78 <quorem+0xba>
    6ab2:	00241793          	slli	a5,s0,0x2
    6ab6:	97ca                	add	a5,a5,s2
    6ab8:	4398                	lw	a4,0(a5)
    6aba:	c71d                	beqz	a4,6ae8 <quorem+0x12a>
    6abc:	8526                	mv	a0,s1
    6abe:	40f2                	lw	ra,28(sp)
    6ac0:	4462                	lw	s0,24(sp)
    6ac2:	44d2                	lw	s1,20(sp)
    6ac4:	4942                	lw	s2,16(sp)
    6ac6:	49b2                	lw	s3,12(sp)
    6ac8:	4a22                	lw	s4,8(sp)
    6aca:	4a92                	lw	s5,4(sp)
    6acc:	6105                	addi	sp,sp,32
    6ace:	8082                	ret
    6ad0:	00082783          	lw	a5,0(a6)
    6ad4:	e789                	bnez	a5,6ade <quorem+0x120>
    6ad6:	147d                	addi	s0,s0,-1
    6ad8:	1871                	addi	a6,a6,-4
    6ada:	ff096be3          	bltu	s2,a6,6ad0 <quorem+0x112>
    6ade:	c900                	sw	s0,16(a0)
    6ae0:	b751                	j	6a64 <quorem+0xa6>
    6ae2:	4398                	lw	a4,0(a5)
    6ae4:	e709                	bnez	a4,6aee <quorem+0x130>
    6ae6:	147d                	addi	s0,s0,-1
    6ae8:	17f1                	addi	a5,a5,-4
    6aea:	fef96ce3          	bltu	s2,a5,6ae2 <quorem+0x124>
    6aee:	008aa823          	sw	s0,16(s5)
    6af2:	b7e9                	j	6abc <quorem+0xfe>
    6af4:	4501                	li	a0,0
    6af6:	b7e1                	j	6abe <quorem+0x100>

00006af8 <_dtoa_r>:
_dtoa_r():
    6af8:	7175                	addi	sp,sp,-144
    6afa:	d83e                	sw	a5,48(sp)
    6afc:	515c                	lw	a5,36(a0)
    6afe:	c522                	sw	s0,136(sp)
    6b00:	c326                	sw	s1,132(sp)
    6b02:	c14a                	sw	s2,128(sp)
    6b04:	dece                	sw	s3,124(sp)
    6b06:	dcd2                	sw	s4,120(sp)
    6b08:	d4e2                	sw	s8,104(sp)
    6b0a:	c706                	sw	ra,140(sp)
    6b0c:	dad6                	sw	s5,116(sp)
    6b0e:	d8da                	sw	s6,112(sp)
    6b10:	d6de                	sw	s7,108(sp)
    6b12:	d2e6                	sw	s9,100(sp)
    6b14:	d0ea                	sw	s10,96(sp)
    6b16:	ceee                	sw	s11,92(sp)
    6b18:	c236                	sw	a3,4(sp)
    6b1a:	c63a                	sw	a4,12(sp)
    6b1c:	ca46                	sw	a7,20(sp)
    6b1e:	84aa                	mv	s1,a0
    6b20:	842e                	mv	s0,a1
    6b22:	8932                	mv	s2,a2
    6b24:	89c2                	mv	s3,a6
    6b26:	8a2e                	mv	s4,a1
    6b28:	8c32                	mv	s8,a2
    6b2a:	ef89                	bnez	a5,6b44 <_dtoa_r+0x4c>
    6b2c:	4541                	li	a0,16
    6b2e:	0d4010ef          	jal	ra,7c02 <malloc>
    6b32:	d0c8                	sw	a0,36(s1)
    6b34:	00052223          	sw	zero,4(a0)
    6b38:	00052423          	sw	zero,8(a0)
    6b3c:	00052023          	sw	zero,0(a0)
    6b40:	00052623          	sw	zero,12(a0)
    6b44:	50dc                	lw	a5,36(s1)
    6b46:	438c                	lw	a1,0(a5)
    6b48:	cd89                	beqz	a1,6b62 <_dtoa_r+0x6a>
    6b4a:	43d8                	lw	a4,4(a5)
    6b4c:	4785                	li	a5,1
    6b4e:	8526                	mv	a0,s1
    6b50:	00e797b3          	sll	a5,a5,a4
    6b54:	c59c                	sw	a5,8(a1)
    6b56:	c1d8                	sw	a4,4(a1)
    6b58:	158010ef          	jal	ra,7cb0 <_Bfree>
    6b5c:	50dc                	lw	a5,36(s1)
    6b5e:	0007a023          	sw	zero,0(a5)
    6b62:	04095363          	bgez	s2,6ba8 <_dtoa_r+0xb0>
    6b66:	4785                	li	a5,1
    6b68:	00191c13          	slli	s8,s2,0x1
    6b6c:	00f9a023          	sw	a5,0(s3)
    6b70:	001c5c13          	srli	s8,s8,0x1
    6b74:	7ff007b7          	lui	a5,0x7ff00
    6b78:	00fc7733          	and	a4,s8,a5
    6b7c:	06f71463          	bne	a4,a5,6be4 <_dtoa_r+0xec>
    6b80:	5742                	lw	a4,48(sp)
    6b82:	6789                	lui	a5,0x2
    6b84:	0c32                	slli	s8,s8,0xc
    6b86:	70f78793          	addi	a5,a5,1807 # 270f <GPIO_Init+0x167>
    6b8a:	00cc5c13          	srli	s8,s8,0xc
    6b8e:	c31c                	sw	a5,0(a4)
    6b90:	008c6c33          	or	s8,s8,s0
    6b94:	320c05e3          	beqz	s8,76be <_dtoa_r+0xbc6>
    6b98:	47d2                	lw	a5,20(sp)
    6b9a:	eb91                	bnez	a5,6bae <_dtoa_r+0xb6>
    6b9c:	00003797          	auipc	a5,0x3
    6ba0:	80078793          	addi	a5,a5,-2048 # 939c <__clz_tab+0x19c>
    6ba4:	c03e                	sw	a5,0(sp)
    6ba6:	a839                	j	6bc4 <_dtoa_r+0xcc>
    6ba8:	0009a023          	sw	zero,0(s3)
    6bac:	b7e1                	j	6b74 <_dtoa_r+0x7c>
    6bae:	00002797          	auipc	a5,0x2
    6bb2:	7ee78793          	addi	a5,a5,2030 # 939c <__clz_tab+0x19c>
    6bb6:	c03e                	sw	a5,0(sp)
    6bb8:	00002797          	auipc	a5,0x2
    6bbc:	7e778793          	addi	a5,a5,2023 # 939f <__clz_tab+0x19f>
    6bc0:	4752                	lw	a4,20(sp)
    6bc2:	c31c                	sw	a5,0(a4)
    6bc4:	40ba                	lw	ra,140(sp)
    6bc6:	442a                	lw	s0,136(sp)
    6bc8:	4502                	lw	a0,0(sp)
    6bca:	449a                	lw	s1,132(sp)
    6bcc:	490a                	lw	s2,128(sp)
    6bce:	59f6                	lw	s3,124(sp)
    6bd0:	5a66                	lw	s4,120(sp)
    6bd2:	5ad6                	lw	s5,116(sp)
    6bd4:	5b46                	lw	s6,112(sp)
    6bd6:	5bb6                	lw	s7,108(sp)
    6bd8:	5c26                	lw	s8,104(sp)
    6bda:	5c96                	lw	s9,100(sp)
    6bdc:	5d06                	lw	s10,96(sp)
    6bde:	4df6                	lw	s11,92(sp)
    6be0:	6149                	addi	sp,sp,144
    6be2:	8082                	ret
    6be4:	4601                	li	a2,0
    6be6:	4681                	li	a3,0
    6be8:	8522                	mv	a0,s0
    6bea:	85e2                	mv	a1,s8
    6bec:	ce22                	sw	s0,28(sp)
    6bee:	d462                	sw	s8,40(sp)
    6bf0:	8fefe0ef          	jal	ra,4cee <__eqdf2>
    6bf4:	e105                	bnez	a0,6c14 <_dtoa_r+0x11c>
    6bf6:	5742                	lw	a4,48(sp)
    6bf8:	4785                	li	a5,1
    6bfa:	c31c                	sw	a5,0(a4)
    6bfc:	00002797          	auipc	a5,0x2
    6c00:	71c78793          	addi	a5,a5,1820 # 9318 <__clz_tab+0x118>
    6c04:	c03e                	sw	a5,0(sp)
    6c06:	47d2                	lw	a5,20(sp)
    6c08:	dfd5                	beqz	a5,6bc4 <_dtoa_r+0xcc>
    6c0a:	00002797          	auipc	a5,0x2
    6c0e:	70f78793          	addi	a5,a5,1807 # 9319 <__clz_tab+0x119>
    6c12:	b77d                	j	6bc0 <_dtoa_r+0xc8>
    6c14:	00b8                	addi	a4,sp,72
    6c16:	00f4                	addi	a3,sp,76
    6c18:	8662                	mv	a2,s8
    6c1a:	85a2                	mv	a1,s0
    6c1c:	8526                	mv	a0,s1
    6c1e:	014c5913          	srli	s2,s8,0x14
    6c22:	62a010ef          	jal	ra,824c <__d2b>
    6c26:	7ff97913          	andi	s2,s2,2047
    6c2a:	89aa                	mv	s3,a0
    6c2c:	4aa6                	lw	s5,72(sp)
    6c2e:	10090d63          	beqz	s2,6d48 <_dtoa_r+0x250>
    6c32:	57a2                	lw	a5,40(sp)
    6c34:	4572                	lw	a0,28(sp)
    6c36:	c0190913          	addi	s2,s2,-1023
    6c3a:	00c79593          	slli	a1,a5,0xc
    6c3e:	81b1                	srli	a1,a1,0xc
    6c40:	3ff007b7          	lui	a5,0x3ff00
    6c44:	8ddd                	or	a1,a1,a5
    6c46:	dc02                	sw	zero,56(sp)
    6c48:	00002797          	auipc	a5,0x2
    6c4c:	70078793          	addi	a5,a5,1792 # 9348 <__clz_tab+0x148>
    6c50:	4390                	lw	a2,0(a5)
    6c52:	43d4                	lw	a3,4(a5)
    6c54:	e72fe0ef          	jal	ra,52c6 <__subdf3>
    6c58:	00002797          	auipc	a5,0x2
    6c5c:	6f878793          	addi	a5,a5,1784 # 9350 <__clz_tab+0x150>
    6c60:	4390                	lw	a2,0(a5)
    6c62:	43d4                	lw	a3,4(a5)
    6c64:	9aafe0ef          	jal	ra,4e0e <__muldf3>
    6c68:	00002797          	auipc	a5,0x2
    6c6c:	6f078793          	addi	a5,a5,1776 # 9358 <__clz_tab+0x158>
    6c70:	4390                	lw	a2,0(a5)
    6c72:	43d4                	lw	a3,4(a5)
    6c74:	b96fd0ef          	jal	ra,400a <__adddf3>
    6c78:	8b2a                	mv	s6,a0
    6c7a:	854a                	mv	a0,s2
    6c7c:	8bae                	mv	s7,a1
    6c7e:	dedfe0ef          	jal	ra,5a6a <__floatsidf>
    6c82:	00002797          	auipc	a5,0x2
    6c86:	6de78793          	addi	a5,a5,1758 # 9360 <__clz_tab+0x160>
    6c8a:	4390                	lw	a2,0(a5)
    6c8c:	43d4                	lw	a3,4(a5)
    6c8e:	980fe0ef          	jal	ra,4e0e <__muldf3>
    6c92:	862a                	mv	a2,a0
    6c94:	86ae                	mv	a3,a1
    6c96:	855a                	mv	a0,s6
    6c98:	85de                	mv	a1,s7
    6c9a:	b70fd0ef          	jal	ra,400a <__adddf3>
    6c9e:	8b2a                	mv	s6,a0
    6ca0:	8bae                	mv	s7,a1
    6ca2:	d61fe0ef          	jal	ra,5a02 <__fixdfsi>
    6ca6:	842a                	mv	s0,a0
    6ca8:	4601                	li	a2,0
    6caa:	4681                	li	a3,0
    6cac:	855a                	mv	a0,s6
    6cae:	85de                	mv	a1,s7
    6cb0:	8a8fe0ef          	jal	ra,4d58 <__ledf2>
    6cb4:	00055b63          	bgez	a0,6cca <_dtoa_r+0x1d2>
    6cb8:	8522                	mv	a0,s0
    6cba:	db1fe0ef          	jal	ra,5a6a <__floatsidf>
    6cbe:	865a                	mv	a2,s6
    6cc0:	86de                	mv	a3,s7
    6cc2:	82cfe0ef          	jal	ra,4cee <__eqdf2>
    6cc6:	c111                	beqz	a0,6cca <_dtoa_r+0x1d2>
    6cc8:	147d                	addi	s0,s0,-1
    6cca:	4705                	li	a4,1
    6ccc:	47d9                	li	a5,22
    6cce:	d63a                	sw	a4,44(sp)
    6cd0:	0287e363          	bltu	a5,s0,6cf6 <_dtoa_r+0x1fe>
    6cd4:	00341713          	slli	a4,s0,0x3
    6cd8:	00002797          	auipc	a5,0x2
    6cdc:	75078793          	addi	a5,a5,1872 # 9428 <__mprec_tens>
    6ce0:	97ba                	add	a5,a5,a4
    6ce2:	4390                	lw	a2,0(a5)
    6ce4:	43d4                	lw	a3,4(a5)
    6ce6:	4572                	lw	a0,28(sp)
    6ce8:	55a2                	lw	a1,40(sp)
    6cea:	86efe0ef          	jal	ra,4d58 <__ledf2>
    6cee:	00055363          	bgez	a0,6cf4 <_dtoa_r+0x1fc>
    6cf2:	147d                	addi	s0,s0,-1
    6cf4:	d602                	sw	zero,44(sp)
    6cf6:	412a8933          	sub	s2,s5,s2
    6cfa:	fff90b93          	addi	s7,s2,-1
    6cfe:	4b01                	li	s6,0
    6d00:	000bd663          	bgez	s7,6d0c <_dtoa_r+0x214>
    6d04:	4b05                	li	s6,1
    6d06:	412b0b33          	sub	s6,s6,s2
    6d0a:	4b81                	li	s7,0
    6d0c:	06044e63          	bltz	s0,6d88 <_dtoa_r+0x290>
    6d10:	9ba2                	add	s7,s7,s0
    6d12:	cc22                	sw	s0,24(sp)
    6d14:	4a81                	li	s5,0
    6d16:	4712                	lw	a4,4(sp)
    6d18:	47a5                	li	a5,9
    6d1a:	14e7e563          	bltu	a5,a4,6e64 <_dtoa_r+0x36c>
    6d1e:	4795                	li	a5,5
    6d20:	4c85                	li	s9,1
    6d22:	00e7d663          	bge	a5,a4,6d2e <_dtoa_r+0x236>
    6d26:	ffc70793          	addi	a5,a4,-4
    6d2a:	c23e                	sw	a5,4(sp)
    6d2c:	4c81                	li	s9,0
    6d2e:	4712                	lw	a4,4(sp)
    6d30:	478d                	li	a5,3
    6d32:	10f70e63          	beq	a4,a5,6e4e <_dtoa_r+0x356>
    6d36:	04e7cf63          	blt	a5,a4,6d94 <_dtoa_r+0x29c>
    6d3a:	4789                	li	a5,2
    6d3c:	c802                	sw	zero,16(sp)
    6d3e:	06f70d63          	beq	a4,a5,6db8 <_dtoa_r+0x2c0>
    6d42:	4785                	li	a5,1
    6d44:	c83e                	sw	a5,16(sp)
    6d46:	a08d                	j	6da8 <_dtoa_r+0x2b0>
    6d48:	4936                	lw	s2,76(sp)
    6d4a:	02000793          	li	a5,32
    6d4e:	9956                	add	s2,s2,s5
    6d50:	43290713          	addi	a4,s2,1074
    6d54:	02e7d563          	bge	a5,a4,6d7e <_dtoa_r+0x286>
    6d58:	04000513          	li	a0,64
    6d5c:	8d19                	sub	a0,a0,a4
    6d5e:	41290793          	addi	a5,s2,1042
    6d62:	00ac1533          	sll	a0,s8,a0
    6d66:	00f45433          	srl	s0,s0,a5
    6d6a:	8d41                	or	a0,a0,s0
    6d6c:	585010ef          	jal	ra,8af0 <__floatunsidf>
    6d70:	fe1007b7          	lui	a5,0xfe100
    6d74:	95be                	add	a1,a1,a5
    6d76:	4785                	li	a5,1
    6d78:	197d                	addi	s2,s2,-1
    6d7a:	dc3e                	sw	a5,56(sp)
    6d7c:	b5f1                	j	6c48 <_dtoa_r+0x150>
    6d7e:	40e78533          	sub	a0,a5,a4
    6d82:	00a41533          	sll	a0,s0,a0
    6d86:	b7dd                	j	6d6c <_dtoa_r+0x274>
    6d88:	408b0b33          	sub	s6,s6,s0
    6d8c:	40800ab3          	neg	s5,s0
    6d90:	cc02                	sw	zero,24(sp)
    6d92:	b751                	j	6d16 <_dtoa_r+0x21e>
    6d94:	4712                	lw	a4,4(sp)
    6d96:	4791                	li	a5,4
    6d98:	00f70e63          	beq	a4,a5,6db4 <_dtoa_r+0x2bc>
    6d9c:	4705                	li	a4,1
    6d9e:	c83a                	sw	a4,16(sp)
    6da0:	4712                	lw	a4,4(sp)
    6da2:	4795                	li	a5,5
    6da4:	0af70663          	beq	a4,a5,6e50 <_dtoa_r+0x358>
    6da8:	57fd                	li	a5,-1
    6daa:	c43e                	sw	a5,8(sp)
    6dac:	5dfd                	li	s11,-1
    6dae:	47c9                	li	a5,18
    6db0:	c602                	sw	zero,12(sp)
    6db2:	a819                	j	6dc8 <_dtoa_r+0x2d0>
    6db4:	4785                	li	a5,1
    6db6:	c83e                	sw	a5,16(sp)
    6db8:	47b2                	lw	a5,12(sp)
    6dba:	0af04863          	bgtz	a5,6e6a <_dtoa_r+0x372>
    6dbe:	4785                	li	a5,1
    6dc0:	4705                	li	a4,1
    6dc2:	c43e                	sw	a5,8(sp)
    6dc4:	4d85                	li	s11,1
    6dc6:	c63a                	sw	a4,12(sp)
    6dc8:	0244a903          	lw	s2,36(s1)
    6dcc:	4711                	li	a4,4
    6dce:	00092223          	sw	zero,4(s2)
    6dd2:	01470693          	addi	a3,a4,20
    6dd6:	00492583          	lw	a1,4(s2)
    6dda:	08d7fc63          	bgeu	a5,a3,6e72 <_dtoa_r+0x37a>
    6dde:	8526                	mv	a0,s1
    6de0:	649000ef          	jal	ra,7c28 <_Balloc>
    6de4:	50dc                	lw	a5,36(s1)
    6de6:	00a92023          	sw	a0,0(s2)
    6dea:	439c                	lw	a5,0(a5)
    6dec:	c03e                	sw	a5,0(sp)
    6dee:	47b9                	li	a5,14
    6df0:	1db7e663          	bltu	a5,s11,6fbc <_dtoa_r+0x4c4>
    6df4:	1c0c8463          	beqz	s9,6fbc <_dtoa_r+0x4c4>
    6df8:	0a805e63          	blez	s0,6eb4 <_dtoa_r+0x3bc>
    6dfc:	00f47793          	andi	a5,s0,15
    6e00:	00379713          	slli	a4,a5,0x3
    6e04:	40445c93          	srai	s9,s0,0x4
    6e08:	00002797          	auipc	a5,0x2
    6e0c:	62078793          	addi	a5,a5,1568 # 9428 <__mprec_tens>
    6e10:	97ba                	add	a5,a5,a4
    6e12:	010cf693          	andi	a3,s9,16
    6e16:	4398                	lw	a4,0(a5)
    6e18:	4909                	li	s2,2
    6e1a:	43dc                	lw	a5,4(a5)
    6e1c:	c685                	beqz	a3,6e44 <_dtoa_r+0x34c>
    6e1e:	00002697          	auipc	a3,0x2
    6e22:	5e268693          	addi	a3,a3,1506 # 9400 <__mprec_bigtens>
    6e26:	5290                	lw	a2,32(a3)
    6e28:	4572                	lw	a0,28(sp)
    6e2a:	52d4                	lw	a3,36(a3)
    6e2c:	55a2                	lw	a1,40(sp)
    6e2e:	d03a                	sw	a4,32(sp)
    6e30:	d23e                	sw	a5,36(sp)
    6e32:	909fd0ef          	jal	ra,473a <__divdf3>
    6e36:	5702                	lw	a4,32(sp)
    6e38:	5792                	lw	a5,36(sp)
    6e3a:	00fcfc93          	andi	s9,s9,15
    6e3e:	8a2a                	mv	s4,a0
    6e40:	8c2e                	mv	s8,a1
    6e42:	490d                	li	s2,3
    6e44:	00002d17          	auipc	s10,0x2
    6e48:	5bcd0d13          	addi	s10,s10,1468 # 9400 <__mprec_bigtens>
    6e4c:	a889                	j	6e9e <_dtoa_r+0x3a6>
    6e4e:	c802                	sw	zero,16(sp)
    6e50:	47b2                	lw	a5,12(sp)
    6e52:	97a2                	add	a5,a5,s0
    6e54:	c43e                	sw	a5,8(sp)
    6e56:	00178d93          	addi	s11,a5,1
    6e5a:	87ee                	mv	a5,s11
    6e5c:	f7b046e3          	bgtz	s11,6dc8 <_dtoa_r+0x2d0>
    6e60:	4785                	li	a5,1
    6e62:	b79d                	j	6dc8 <_dtoa_r+0x2d0>
    6e64:	4c85                	li	s9,1
    6e66:	c202                	sw	zero,4(sp)
    6e68:	bde9                	j	6d42 <_dtoa_r+0x24a>
    6e6a:	47b2                	lw	a5,12(sp)
    6e6c:	c43e                	sw	a5,8(sp)
    6e6e:	8dbe                	mv	s11,a5
    6e70:	bfa1                	j	6dc8 <_dtoa_r+0x2d0>
    6e72:	0585                	addi	a1,a1,1
    6e74:	00b92223          	sw	a1,4(s2)
    6e78:	0706                	slli	a4,a4,0x1
    6e7a:	bfa1                	j	6dd2 <_dtoa_r+0x2da>
    6e7c:	001cf693          	andi	a3,s9,1
    6e80:	ce81                	beqz	a3,6e98 <_dtoa_r+0x3a0>
    6e82:	000d2603          	lw	a2,0(s10)
    6e86:	004d2683          	lw	a3,4(s10)
    6e8a:	853a                	mv	a0,a4
    6e8c:	85be                	mv	a1,a5
    6e8e:	f81fd0ef          	jal	ra,4e0e <__muldf3>
    6e92:	0905                	addi	s2,s2,1
    6e94:	872a                	mv	a4,a0
    6e96:	87ae                	mv	a5,a1
    6e98:	401cdc93          	srai	s9,s9,0x1
    6e9c:	0d21                	addi	s10,s10,8
    6e9e:	fc0c9fe3          	bnez	s9,6e7c <_dtoa_r+0x384>
    6ea2:	863a                	mv	a2,a4
    6ea4:	86be                	mv	a3,a5
    6ea6:	8552                	mv	a0,s4
    6ea8:	85e2                	mv	a1,s8
    6eaa:	891fd0ef          	jal	ra,473a <__divdf3>
    6eae:	8a2a                	mv	s4,a0
    6eb0:	8c2e                	mv	s8,a1
    6eb2:	a081                	j	6ef2 <_dtoa_r+0x3fa>
    6eb4:	4909                	li	s2,2
    6eb6:	cc15                	beqz	s0,6ef2 <_dtoa_r+0x3fa>
    6eb8:	40800cb3          	neg	s9,s0
    6ebc:	00fcf793          	andi	a5,s9,15
    6ec0:	00379713          	slli	a4,a5,0x3
    6ec4:	00002797          	auipc	a5,0x2
    6ec8:	56478793          	addi	a5,a5,1380 # 9428 <__mprec_tens>
    6ecc:	97ba                	add	a5,a5,a4
    6ece:	4390                	lw	a2,0(a5)
    6ed0:	43d4                	lw	a3,4(a5)
    6ed2:	4572                	lw	a0,28(sp)
    6ed4:	55a2                	lw	a1,40(sp)
    6ed6:	404cdc93          	srai	s9,s9,0x4
    6eda:	00002d17          	auipc	s10,0x2
    6ede:	526d0d13          	addi	s10,s10,1318 # 9400 <__mprec_bigtens>
    6ee2:	f2dfd0ef          	jal	ra,4e0e <__muldf3>
    6ee6:	8a2a                	mv	s4,a0
    6ee8:	8c2e                	mv	s8,a1
    6eea:	4781                	li	a5,0
    6eec:	120c9c63          	bnez	s9,7024 <_dtoa_r+0x52c>
    6ef0:	ffdd                	bnez	a5,6eae <_dtoa_r+0x3b6>
    6ef2:	57b2                	lw	a5,44(sp)
    6ef4:	14078763          	beqz	a5,7042 <_dtoa_r+0x54a>
    6ef8:	00002717          	auipc	a4,0x2
    6efc:	47070713          	addi	a4,a4,1136 # 9368 <__clz_tab+0x168>
    6f00:	4310                	lw	a2,0(a4)
    6f02:	4354                	lw	a3,4(a4)
    6f04:	8552                	mv	a0,s4
    6f06:	85e2                	mv	a1,s8
    6f08:	d052                	sw	s4,32(sp)
    6f0a:	e4ffd0ef          	jal	ra,4d58 <__ledf2>
    6f0e:	12055a63          	bgez	a0,7042 <_dtoa_r+0x54a>
    6f12:	120d8b63          	beqz	s11,7048 <_dtoa_r+0x550>
    6f16:	47a2                	lw	a5,8(sp)
    6f18:	0af05063          	blez	a5,6fb8 <_dtoa_r+0x4c0>
    6f1c:	00002717          	auipc	a4,0x2
    6f20:	45470713          	addi	a4,a4,1108 # 9370 <__clz_tab+0x170>
    6f24:	5782                	lw	a5,32(sp)
    6f26:	4310                	lw	a2,0(a4)
    6f28:	4354                	lw	a3,4(a4)
    6f2a:	853e                	mv	a0,a5
    6f2c:	85e2                	mv	a1,s8
    6f2e:	ee1fd0ef          	jal	ra,4e0e <__muldf3>
    6f32:	47a2                	lw	a5,8(sp)
    6f34:	fff40d13          	addi	s10,s0,-1
    6f38:	8a2a                	mv	s4,a0
    6f3a:	8c2e                	mv	s8,a1
    6f3c:	0905                	addi	s2,s2,1
    6f3e:	8762                	mv	a4,s8
    6f40:	854a                	mv	a0,s2
    6f42:	de3e                	sw	a5,60(sp)
    6f44:	da52                	sw	s4,52(sp)
    6f46:	8cba                	mv	s9,a4
    6f48:	d03a                	sw	a4,32(sp)
    6f4a:	b21fe0ef          	jal	ra,5a6a <__floatsidf>
    6f4e:	5852                	lw	a6,52(sp)
    6f50:	5702                	lw	a4,32(sp)
    6f52:	fcc00937          	lui	s2,0xfcc00
    6f56:	8642                	mv	a2,a6
    6f58:	86ba                	mv	a3,a4
    6f5a:	eb5fd0ef          	jal	ra,4e0e <__muldf3>
    6f5e:	00002697          	auipc	a3,0x2
    6f62:	41a68693          	addi	a3,a3,1050 # 9378 <__clz_tab+0x178>
    6f66:	4290                	lw	a2,0(a3)
    6f68:	42d4                	lw	a3,4(a3)
    6f6a:	8c52                	mv	s8,s4
    6f6c:	89efd0ef          	jal	ra,400a <__adddf3>
    6f70:	57f2                	lw	a5,60(sp)
    6f72:	8a2a                	mv	s4,a0
    6f74:	992e                	add	s2,s2,a1
    6f76:	efe1                	bnez	a5,704e <_dtoa_r+0x556>
    6f78:	00002797          	auipc	a5,0x2
    6f7c:	40878793          	addi	a5,a5,1032 # 9380 <__clz_tab+0x180>
    6f80:	5852                	lw	a6,52(sp)
    6f82:	5702                	lw	a4,32(sp)
    6f84:	4390                	lw	a2,0(a5)
    6f86:	43d4                	lw	a3,4(a5)
    6f88:	8542                	mv	a0,a6
    6f8a:	85ba                	mv	a1,a4
    6f8c:	b3afe0ef          	jal	ra,52c6 <__subdf3>
    6f90:	8652                	mv	a2,s4
    6f92:	86ca                	mv	a3,s2
    6f94:	8c2a                	mv	s8,a0
    6f96:	8cae                	mv	s9,a1
    6f98:	26f010ef          	jal	ra,8a06 <__gedf2>
    6f9c:	54a04a63          	bgtz	a0,74f0 <_dtoa_r+0x9f8>
    6fa0:	800007b7          	lui	a5,0x80000
    6fa4:	0127c7b3          	xor	a5,a5,s2
    6fa8:	8652                	mv	a2,s4
    6faa:	86be                	mv	a3,a5
    6fac:	8562                	mv	a0,s8
    6fae:	85e6                	mv	a1,s9
    6fb0:	da9fd0ef          	jal	ra,4d58 <__ledf2>
    6fb4:	52054b63          	bltz	a0,74ea <_dtoa_r+0x9f2>
    6fb8:	4a72                	lw	s4,28(sp)
    6fba:	5c22                	lw	s8,40(sp)
    6fbc:	47b6                	lw	a5,76(sp)
    6fbe:	3007c763          	bltz	a5,72cc <_dtoa_r+0x7d4>
    6fc2:	4739                	li	a4,14
    6fc4:	30874463          	blt	a4,s0,72cc <_dtoa_r+0x7d4>
    6fc8:	00341713          	slli	a4,s0,0x3
    6fcc:	00002797          	auipc	a5,0x2
    6fd0:	45c78793          	addi	a5,a5,1116 # 9428 <__mprec_tens>
    6fd4:	97ba                	add	a5,a5,a4
    6fd6:	0007ab03          	lw	s6,0(a5)
    6fda:	0047ab83          	lw	s7,4(a5)
    6fde:	47b2                	lw	a5,12(sp)
    6fe0:	2007d263          	bgez	a5,71e4 <_dtoa_r+0x6ec>
    6fe4:	21b04063          	bgtz	s11,71e4 <_dtoa_r+0x6ec>
    6fe8:	500d9163          	bnez	s11,74ea <_dtoa_r+0x9f2>
    6fec:	00002797          	auipc	a5,0x2
    6ff0:	39478793          	addi	a5,a5,916 # 9380 <__clz_tab+0x180>
    6ff4:	4390                	lw	a2,0(a5)
    6ff6:	43d4                	lw	a3,4(a5)
    6ff8:	855a                	mv	a0,s6
    6ffa:	85de                	mv	a1,s7
    6ffc:	e13fd0ef          	jal	ra,4e0e <__muldf3>
    7000:	8652                	mv	a2,s4
    7002:	86e2                	mv	a3,s8
    7004:	203010ef          	jal	ra,8a06 <__gedf2>
    7008:	4a81                	li	s5,0
    700a:	4901                	li	s2,0
    700c:	4a055763          	bgez	a0,74ba <_dtoa_r+0x9c2>
    7010:	4782                	lw	a5,0(sp)
    7012:	4702                	lw	a4,0(sp)
    7014:	0405                	addi	s0,s0,1
    7016:	00178a13          	addi	s4,a5,1
    701a:	03100793          	li	a5,49
    701e:	00f70023          	sb	a5,0(a4)
    7022:	a145                	j	74c2 <_dtoa_r+0x9ca>
    7024:	001cf713          	andi	a4,s9,1
    7028:	cb09                	beqz	a4,703a <_dtoa_r+0x542>
    702a:	000d2603          	lw	a2,0(s10)
    702e:	004d2683          	lw	a3,4(s10)
    7032:	0905                	addi	s2,s2,1
    7034:	ddbfd0ef          	jal	ra,4e0e <__muldf3>
    7038:	4785                	li	a5,1
    703a:	401cdc93          	srai	s9,s9,0x1
    703e:	0d21                	addi	s10,s10,8
    7040:	b575                	j	6eec <_dtoa_r+0x3f4>
    7042:	8d22                	mv	s10,s0
    7044:	87ee                	mv	a5,s11
    7046:	bde5                	j	6f3e <_dtoa_r+0x446>
    7048:	8d22                	mv	s10,s0
    704a:	4781                	li	a5,0
    704c:	bdcd                	j	6f3e <_dtoa_r+0x446>
    704e:	fff78693          	addi	a3,a5,-1
    7052:	00369613          	slli	a2,a3,0x3
    7056:	00002697          	auipc	a3,0x2
    705a:	3d268693          	addi	a3,a3,978 # 9428 <__mprec_tens>
    705e:	96b2                	add	a3,a3,a2
    7060:	4288                	lw	a0,0(a3)
    7062:	42cc                	lw	a1,4(a3)
    7064:	4682                	lw	a3,0(sp)
    7066:	97b6                	add	a5,a5,a3
    7068:	da3e                	sw	a5,52(sp)
    706a:	47c2                	lw	a5,16(sp)
    706c:	c3e9                	beqz	a5,712e <_dtoa_r+0x636>
    706e:	00002797          	auipc	a5,0x2
    7072:	31a78793          	addi	a5,a5,794 # 9388 <__clz_tab+0x188>
    7076:	862a                	mv	a2,a0
    7078:	86ae                	mv	a3,a1
    707a:	4388                	lw	a0,0(a5)
    707c:	43cc                	lw	a1,4(a5)
    707e:	de4a                	sw	s2,60(sp)
    7080:	d052                	sw	s4,32(sp)
    7082:	eb8fd0ef          	jal	ra,473a <__divdf3>
    7086:	5802                	lw	a6,32(sp)
    7088:	5772                	lw	a4,60(sp)
    708a:	00002917          	auipc	s2,0x2
    708e:	2e690913          	addi	s2,s2,742 # 9370 <__clz_tab+0x170>
    7092:	8642                	mv	a2,a6
    7094:	86ba                	mv	a3,a4
    7096:	a30fe0ef          	jal	ra,52c6 <__subdf3>
    709a:	4a02                	lw	s4,0(sp)
    709c:	d02a                	sw	a0,32(sp)
    709e:	d22e                	sw	a1,36(sp)
    70a0:	85e6                	mv	a1,s9
    70a2:	8562                	mv	a0,s8
    70a4:	95ffe0ef          	jal	ra,5a02 <__fixdfsi>
    70a8:	de2a                	sw	a0,60(sp)
    70aa:	9c1fe0ef          	jal	ra,5a6a <__floatsidf>
    70ae:	862a                	mv	a2,a0
    70b0:	86ae                	mv	a3,a1
    70b2:	8562                	mv	a0,s8
    70b4:	85e6                	mv	a1,s9
    70b6:	a10fe0ef          	jal	ra,52c6 <__subdf3>
    70ba:	57f2                	lw	a5,60(sp)
    70bc:	8c2a                	mv	s8,a0
    70be:	8cae                	mv	s9,a1
    70c0:	862a                	mv	a2,a0
    70c2:	86ae                	mv	a3,a1
    70c4:	5502                	lw	a0,32(sp)
    70c6:	5592                	lw	a1,36(sp)
    70c8:	0a05                	addi	s4,s4,1
    70ca:	03078793          	addi	a5,a5,48
    70ce:	fefa0fa3          	sb	a5,-1(s4)
    70d2:	135010ef          	jal	ra,8a06 <__gedf2>
    70d6:	0ea04863          	bgtz	a0,71c6 <_dtoa_r+0x6ce>
    70da:	00002797          	auipc	a5,0x2
    70de:	28e78793          	addi	a5,a5,654 # 9368 <__clz_tab+0x168>
    70e2:	4388                	lw	a0,0(a5)
    70e4:	43cc                	lw	a1,4(a5)
    70e6:	8662                	mv	a2,s8
    70e8:	86e6                	mv	a3,s9
    70ea:	9dcfe0ef          	jal	ra,52c6 <__subdf3>
    70ee:	862a                	mv	a2,a0
    70f0:	86ae                	mv	a3,a1
    70f2:	5502                	lw	a0,32(sp)
    70f4:	5592                	lw	a1,36(sp)
    70f6:	111010ef          	jal	ra,8a06 <__gedf2>
    70fa:	18a04263          	bgtz	a0,727e <_dtoa_r+0x786>
    70fe:	57d2                	lw	a5,52(sp)
    7100:	eafa0ce3          	beq	s4,a5,6fb8 <_dtoa_r+0x4c0>
    7104:	00092603          	lw	a2,0(s2)
    7108:	00492683          	lw	a3,4(s2)
    710c:	5502                	lw	a0,32(sp)
    710e:	5592                	lw	a1,36(sp)
    7110:	cfffd0ef          	jal	ra,4e0e <__muldf3>
    7114:	00092603          	lw	a2,0(s2)
    7118:	00492683          	lw	a3,4(s2)
    711c:	d02a                	sw	a0,32(sp)
    711e:	d22e                	sw	a1,36(sp)
    7120:	8562                	mv	a0,s8
    7122:	85e6                	mv	a1,s9
    7124:	cebfd0ef          	jal	ra,4e0e <__muldf3>
    7128:	8c2a                	mv	s8,a0
    712a:	8cae                	mv	s9,a1
    712c:	bf95                	j	70a0 <_dtoa_r+0x5a8>
    712e:	8652                	mv	a2,s4
    7130:	86ca                	mv	a3,s2
    7132:	cddfd0ef          	jal	ra,4e0e <__muldf3>
    7136:	5a52                	lw	s4,52(sp)
    7138:	4902                	lw	s2,0(sp)
    713a:	d02a                	sw	a0,32(sp)
    713c:	d22e                	sw	a1,36(sp)
    713e:	85e6                	mv	a1,s9
    7140:	8562                	mv	a0,s8
    7142:	8c1fe0ef          	jal	ra,5a02 <__fixdfsi>
    7146:	de2a                	sw	a0,60(sp)
    7148:	923fe0ef          	jal	ra,5a6a <__floatsidf>
    714c:	862a                	mv	a2,a0
    714e:	86ae                	mv	a3,a1
    7150:	8562                	mv	a0,s8
    7152:	85e6                	mv	a1,s9
    7154:	972fe0ef          	jal	ra,52c6 <__subdf3>
    7158:	5772                	lw	a4,60(sp)
    715a:	57d2                	lw	a5,52(sp)
    715c:	0905                	addi	s2,s2,1
    715e:	03070713          	addi	a4,a4,48
    7162:	fee90fa3          	sb	a4,-1(s2)
    7166:	8c2a                	mv	s8,a0
    7168:	8cae                	mv	s9,a1
    716a:	06f91263          	bne	s2,a5,71ce <_dtoa_r+0x6d6>
    716e:	00002917          	auipc	s2,0x2
    7172:	21a90913          	addi	s2,s2,538 # 9388 <__clz_tab+0x188>
    7176:	00092603          	lw	a2,0(s2)
    717a:	00492683          	lw	a3,4(s2)
    717e:	5502                	lw	a0,32(sp)
    7180:	5592                	lw	a1,36(sp)
    7182:	e89fc0ef          	jal	ra,400a <__adddf3>
    7186:	862a                	mv	a2,a0
    7188:	86ae                	mv	a3,a1
    718a:	8562                	mv	a0,s8
    718c:	85e6                	mv	a1,s9
    718e:	079010ef          	jal	ra,8a06 <__gedf2>
    7192:	0ea04663          	bgtz	a0,727e <_dtoa_r+0x786>
    7196:	5602                	lw	a2,32(sp)
    7198:	5692                	lw	a3,36(sp)
    719a:	00092503          	lw	a0,0(s2)
    719e:	00492583          	lw	a1,4(s2)
    71a2:	924fe0ef          	jal	ra,52c6 <__subdf3>
    71a6:	862a                	mv	a2,a0
    71a8:	86ae                	mv	a3,a1
    71aa:	8562                	mv	a0,s8
    71ac:	85e6                	mv	a1,s9
    71ae:	babfd0ef          	jal	ra,4d58 <__ledf2>
    71b2:	03000793          	li	a5,48
    71b6:	e00551e3          	bgez	a0,6fb8 <_dtoa_r+0x4c0>
    71ba:	fffa4703          	lbu	a4,-1(s4)
    71be:	fffa0693          	addi	a3,s4,-1
    71c2:	00f70463          	beq	a4,a5,71ca <_dtoa_r+0x6d2>
    71c6:	846a                	mv	s0,s10
    71c8:	a859                	j	725e <_dtoa_r+0x766>
    71ca:	8a36                	mv	s4,a3
    71cc:	b7fd                	j	71ba <_dtoa_r+0x6c2>
    71ce:	00002797          	auipc	a5,0x2
    71d2:	1a278793          	addi	a5,a5,418 # 9370 <__clz_tab+0x170>
    71d6:	4390                	lw	a2,0(a5)
    71d8:	43d4                	lw	a3,4(a5)
    71da:	c35fd0ef          	jal	ra,4e0e <__muldf3>
    71de:	8c2a                	mv	s8,a0
    71e0:	8cae                	mv	s9,a1
    71e2:	bfb1                	j	713e <_dtoa_r+0x646>
    71e4:	87e2                	mv	a5,s8
    71e6:	8cbe                	mv	s9,a5
    71e8:	4782                	lw	a5,0(sp)
    71ea:	8c52                	mv	s8,s4
    71ec:	00002a97          	auipc	s5,0x2
    71f0:	184a8a93          	addi	s5,s5,388 # 9370 <__clz_tab+0x170>
    71f4:	00178913          	addi	s2,a5,1
    71f8:	9dbe                	add	s11,s11,a5
    71fa:	865a                	mv	a2,s6
    71fc:	86de                	mv	a3,s7
    71fe:	8562                	mv	a0,s8
    7200:	85e6                	mv	a1,s9
    7202:	d38fd0ef          	jal	ra,473a <__divdf3>
    7206:	ffcfe0ef          	jal	ra,5a02 <__fixdfsi>
    720a:	8d2a                	mv	s10,a0
    720c:	85ffe0ef          	jal	ra,5a6a <__floatsidf>
    7210:	865a                	mv	a2,s6
    7212:	86de                	mv	a3,s7
    7214:	bfbfd0ef          	jal	ra,4e0e <__muldf3>
    7218:	862a                	mv	a2,a0
    721a:	86ae                	mv	a3,a1
    721c:	8562                	mv	a0,s8
    721e:	85e6                	mv	a1,s9
    7220:	8a6fe0ef          	jal	ra,52c6 <__subdf3>
    7224:	030d0793          	addi	a5,s10,48
    7228:	fef90fa3          	sb	a5,-1(s2)
    722c:	862a                	mv	a2,a0
    722e:	86ae                	mv	a3,a1
    7230:	8a4a                	mv	s4,s2
    7232:	072d9e63          	bne	s11,s2,72ae <_dtoa_r+0x7b6>
    7236:	dd5fc0ef          	jal	ra,400a <__adddf3>
    723a:	865a                	mv	a2,s6
    723c:	86de                	mv	a3,s7
    723e:	8c2a                	mv	s8,a0
    7240:	8cae                	mv	s9,a1
    7242:	7c4010ef          	jal	ra,8a06 <__gedf2>
    7246:	02a04b63          	bgtz	a0,727c <_dtoa_r+0x784>
    724a:	865a                	mv	a2,s6
    724c:	86de                	mv	a3,s7
    724e:	8562                	mv	a0,s8
    7250:	85e6                	mv	a1,s9
    7252:	a9dfd0ef          	jal	ra,4cee <__eqdf2>
    7256:	e501                	bnez	a0,725e <_dtoa_r+0x766>
    7258:	001d7793          	andi	a5,s10,1
    725c:	e385                	bnez	a5,727c <_dtoa_r+0x784>
    725e:	85ce                	mv	a1,s3
    7260:	8526                	mv	a0,s1
    7262:	24f000ef          	jal	ra,7cb0 <_Bfree>
    7266:	57c2                	lw	a5,48(sp)
    7268:	000a0023          	sb	zero,0(s4)
    726c:	0405                	addi	s0,s0,1
    726e:	c380                	sw	s0,0(a5)
    7270:	47d2                	lw	a5,20(sp)
    7272:	940789e3          	beqz	a5,6bc4 <_dtoa_r+0xcc>
    7276:	0147a023          	sw	s4,0(a5)
    727a:	b2a9                	j	6bc4 <_dtoa_r+0xcc>
    727c:	8d22                	mv	s10,s0
    727e:	03900713          	li	a4,57
    7282:	fffa4683          	lbu	a3,-1(s4)
    7286:	fffa0793          	addi	a5,s4,-1
    728a:	00e69a63          	bne	a3,a4,729e <_dtoa_r+0x7a6>
    728e:	4682                	lw	a3,0(sp)
    7290:	00f69d63          	bne	a3,a5,72aa <_dtoa_r+0x7b2>
    7294:	03000713          	li	a4,48
    7298:	0d05                	addi	s10,s10,1
    729a:	00e68023          	sb	a4,0(a3)
    729e:	0007c703          	lbu	a4,0(a5)
    72a2:	0705                	addi	a4,a4,1
    72a4:	00e78023          	sb	a4,0(a5)
    72a8:	bf39                	j	71c6 <_dtoa_r+0x6ce>
    72aa:	8a3e                	mv	s4,a5
    72ac:	bfd9                	j	7282 <_dtoa_r+0x78a>
    72ae:	000aa603          	lw	a2,0(s5)
    72b2:	004aa683          	lw	a3,4(s5)
    72b6:	0905                	addi	s2,s2,1
    72b8:	b57fd0ef          	jal	ra,4e0e <__muldf3>
    72bc:	4601                	li	a2,0
    72be:	4681                	li	a3,0
    72c0:	8c2a                	mv	s8,a0
    72c2:	8cae                	mv	s9,a1
    72c4:	a2bfd0ef          	jal	ra,4cee <__eqdf2>
    72c8:	f90d                	bnez	a0,71fa <_dtoa_r+0x702>
    72ca:	bf51                	j	725e <_dtoa_r+0x766>
    72cc:	4742                	lw	a4,16(sp)
    72ce:	10070063          	beqz	a4,73ce <_dtoa_r+0x8d6>
    72d2:	4692                	lw	a3,4(sp)
    72d4:	4705                	li	a4,1
    72d6:	0cd74563          	blt	a4,a3,73a0 <_dtoa_r+0x8a8>
    72da:	5762                	lw	a4,56(sp)
    72dc:	43378793          	addi	a5,a5,1075
    72e0:	e709                	bnez	a4,72ea <_dtoa_r+0x7f2>
    72e2:	4726                	lw	a4,72(sp)
    72e4:	03600793          	li	a5,54
    72e8:	8f99                	sub	a5,a5,a4
    72ea:	8d56                	mv	s10,s5
    72ec:	8cda                	mv	s9,s6
    72ee:	4585                	li	a1,1
    72f0:	8526                	mv	a0,s1
    72f2:	9b3e                	add	s6,s6,a5
    72f4:	9bbe                	add	s7,s7,a5
    72f6:	347000ef          	jal	ra,7e3c <__i2b>
    72fa:	892a                	mv	s2,a0
    72fc:	01905e63          	blez	s9,7318 <_dtoa_r+0x820>
    7300:	01705c63          	blez	s7,7318 <_dtoa_r+0x820>
    7304:	87e6                	mv	a5,s9
    7306:	019bd363          	bge	s7,s9,730c <_dtoa_r+0x814>
    730a:	87de                	mv	a5,s7
    730c:	40fb0b33          	sub	s6,s6,a5
    7310:	40fc8cb3          	sub	s9,s9,a5
    7314:	40fb8bb3          	sub	s7,s7,a5
    7318:	040a8063          	beqz	s5,7358 <_dtoa_r+0x860>
    731c:	47c2                	lw	a5,16(sp)
    731e:	cfc5                	beqz	a5,73d6 <_dtoa_r+0x8de>
    7320:	03a05463          	blez	s10,7348 <_dtoa_r+0x850>
    7324:	85ca                	mv	a1,s2
    7326:	866a                	mv	a2,s10
    7328:	8526                	mv	a0,s1
    732a:	473000ef          	jal	ra,7f9c <__pow5mult>
    732e:	864e                	mv	a2,s3
    7330:	85aa                	mv	a1,a0
    7332:	892a                	mv	s2,a0
    7334:	8526                	mv	a0,s1
    7336:	323000ef          	jal	ra,7e58 <__multiply>
    733a:	ce2a                	sw	a0,28(sp)
    733c:	85ce                	mv	a1,s3
    733e:	8526                	mv	a0,s1
    7340:	171000ef          	jal	ra,7cb0 <_Bfree>
    7344:	47f2                	lw	a5,28(sp)
    7346:	89be                	mv	s3,a5
    7348:	41aa8633          	sub	a2,s5,s10
    734c:	c611                	beqz	a2,7358 <_dtoa_r+0x860>
    734e:	85ce                	mv	a1,s3
    7350:	8526                	mv	a0,s1
    7352:	44b000ef          	jal	ra,7f9c <__pow5mult>
    7356:	89aa                	mv	s3,a0
    7358:	4585                	li	a1,1
    735a:	8526                	mv	a0,s1
    735c:	2e1000ef          	jal	ra,7e3c <__i2b>
    7360:	47e2                	lw	a5,24(sp)
    7362:	8aaa                	mv	s5,a0
    7364:	06f05b63          	blez	a5,73da <_dtoa_r+0x8e2>
    7368:	863e                	mv	a2,a5
    736a:	85aa                	mv	a1,a0
    736c:	8526                	mv	a0,s1
    736e:	42f000ef          	jal	ra,7f9c <__pow5mult>
    7372:	4712                	lw	a4,4(sp)
    7374:	4785                	li	a5,1
    7376:	8aaa                	mv	s5,a0
    7378:	4d01                	li	s10,0
    737a:	06e7c863          	blt	a5,a4,73ea <_dtoa_r+0x8f2>
    737e:	4d01                	li	s10,0
    7380:	060a1263          	bnez	s4,73e4 <_dtoa_r+0x8ec>
    7384:	00cc1793          	slli	a5,s8,0xc
    7388:	8d52                	mv	s10,s4
    738a:	efa9                	bnez	a5,73e4 <_dtoa_r+0x8ec>
    738c:	7ff005b7          	lui	a1,0x7ff00
    7390:	00bc7c33          	and	s8,s8,a1
    7394:	040c0863          	beqz	s8,73e4 <_dtoa_r+0x8ec>
    7398:	0b05                	addi	s6,s6,1
    739a:	0b85                	addi	s7,s7,1
    739c:	4d05                	li	s10,1
    739e:	a099                	j	73e4 <_dtoa_r+0x8ec>
    73a0:	fffd8d13          	addi	s10,s11,-1
    73a4:	01aaca63          	blt	s5,s10,73b8 <_dtoa_r+0x8c0>
    73a8:	41aa8d33          	sub	s10,s5,s10
    73ac:	000dde63          	bgez	s11,73c8 <_dtoa_r+0x8d0>
    73b0:	41bb0cb3          	sub	s9,s6,s11
    73b4:	4781                	li	a5,0
    73b6:	bf25                	j	72ee <_dtoa_r+0x7f6>
    73b8:	47e2                	lw	a5,24(sp)
    73ba:	415d0ab3          	sub	s5,s10,s5
    73be:	97d6                	add	a5,a5,s5
    73c0:	cc3e                	sw	a5,24(sp)
    73c2:	8aea                	mv	s5,s10
    73c4:	4d01                	li	s10,0
    73c6:	b7dd                	j	73ac <_dtoa_r+0x8b4>
    73c8:	8cda                	mv	s9,s6
    73ca:	87ee                	mv	a5,s11
    73cc:	b70d                	j	72ee <_dtoa_r+0x7f6>
    73ce:	8d56                	mv	s10,s5
    73d0:	8cda                	mv	s9,s6
    73d2:	4901                	li	s2,0
    73d4:	b725                	j	72fc <_dtoa_r+0x804>
    73d6:	8656                	mv	a2,s5
    73d8:	bf9d                	j	734e <_dtoa_r+0x856>
    73da:	4712                	lw	a4,4(sp)
    73dc:	4785                	li	a5,1
    73de:	4d01                	li	s10,0
    73e0:	f8e7dfe3          	bge	a5,a4,737e <_dtoa_r+0x886>
    73e4:	47e2                	lw	a5,24(sp)
    73e6:	4505                	li	a0,1
    73e8:	cf89                	beqz	a5,7402 <_dtoa_r+0x90a>
    73ea:	010aa783          	lw	a5,16(s5)
    73ee:	078d                	addi	a5,a5,3
    73f0:	078a                	slli	a5,a5,0x2
    73f2:	97d6                	add	a5,a5,s5
    73f4:	43c8                	lw	a0,4(a5)
    73f6:	197000ef          	jal	ra,7d8c <__hi0bits>
    73fa:	02000793          	li	a5,32
    73fe:	40a78533          	sub	a0,a5,a0
    7402:	955e                	add	a0,a0,s7
    7404:	897d                	andi	a0,a0,31
    7406:	c151                	beqz	a0,748a <_dtoa_r+0x992>
    7408:	02000793          	li	a5,32
    740c:	8f89                	sub	a5,a5,a0
    740e:	4711                	li	a4,4
    7410:	06f75a63          	bge	a4,a5,7484 <_dtoa_r+0x98c>
    7414:	47f1                	li	a5,28
    7416:	40a78533          	sub	a0,a5,a0
    741a:	9b2a                	add	s6,s6,a0
    741c:	9caa                	add	s9,s9,a0
    741e:	9baa                	add	s7,s7,a0
    7420:	01605863          	blez	s6,7430 <_dtoa_r+0x938>
    7424:	85ce                	mv	a1,s3
    7426:	865a                	mv	a2,s6
    7428:	8526                	mv	a0,s1
    742a:	431000ef          	jal	ra,805a <__lshift>
    742e:	89aa                	mv	s3,a0
    7430:	01705863          	blez	s7,7440 <_dtoa_r+0x948>
    7434:	85d6                	mv	a1,s5
    7436:	865e                	mv	a2,s7
    7438:	8526                	mv	a0,s1
    743a:	421000ef          	jal	ra,805a <__lshift>
    743e:	8aaa                	mv	s5,a0
    7440:	57b2                	lw	a5,44(sp)
    7442:	c7b1                	beqz	a5,748e <_dtoa_r+0x996>
    7444:	85d6                	mv	a1,s5
    7446:	854e                	mv	a0,s3
    7448:	4e1000ef          	jal	ra,8128 <__mcmp>
    744c:	04055163          	bgez	a0,748e <_dtoa_r+0x996>
    7450:	85ce                	mv	a1,s3
    7452:	4681                	li	a3,0
    7454:	4629                	li	a2,10
    7456:	8526                	mv	a0,s1
    7458:	09d000ef          	jal	ra,7cf4 <__multadd>
    745c:	47c2                	lw	a5,16(sp)
    745e:	147d                	addi	s0,s0,-1
    7460:	89aa                	mv	s3,a0
    7462:	26078c63          	beqz	a5,76da <_dtoa_r+0xbe2>
    7466:	85ca                	mv	a1,s2
    7468:	4681                	li	a3,0
    746a:	4629                	li	a2,10
    746c:	8526                	mv	a0,s1
    746e:	087000ef          	jal	ra,7cf4 <__multadd>
    7472:	47a2                	lw	a5,8(sp)
    7474:	892a                	mv	s2,a0
    7476:	08f04563          	bgtz	a5,7500 <_dtoa_r+0xa08>
    747a:	4712                	lw	a4,4(sp)
    747c:	4789                	li	a5,2
    747e:	08e7d163          	bge	a5,a4,7500 <_dtoa_r+0xa08>
    7482:	a829                	j	749c <_dtoa_r+0x9a4>
    7484:	f8e78ee3          	beq	a5,a4,7420 <_dtoa_r+0x928>
    7488:	853e                	mv	a0,a5
    748a:	0571                	addi	a0,a0,28
    748c:	b779                	j	741a <_dtoa_r+0x922>
    748e:	07b04563          	bgtz	s11,74f8 <_dtoa_r+0xa00>
    7492:	4712                	lw	a4,4(sp)
    7494:	4789                	li	a5,2
    7496:	06e7d163          	bge	a5,a4,74f8 <_dtoa_r+0xa00>
    749a:	c46e                	sw	s11,8(sp)
    749c:	47a2                	lw	a5,8(sp)
    749e:	ef91                	bnez	a5,74ba <_dtoa_r+0x9c2>
    74a0:	85d6                	mv	a1,s5
    74a2:	4681                	li	a3,0
    74a4:	4615                	li	a2,5
    74a6:	8526                	mv	a0,s1
    74a8:	04d000ef          	jal	ra,7cf4 <__multadd>
    74ac:	8aaa                	mv	s5,a0
    74ae:	85aa                	mv	a1,a0
    74b0:	854e                	mv	a0,s3
    74b2:	477000ef          	jal	ra,8128 <__mcmp>
    74b6:	b4a04de3          	bgtz	a0,7010 <_dtoa_r+0x518>
    74ba:	47b2                	lw	a5,12(sp)
    74bc:	4a02                	lw	s4,0(sp)
    74be:	fff7c413          	not	s0,a5
    74c2:	4b01                	li	s6,0
    74c4:	85d6                	mv	a1,s5
    74c6:	8526                	mv	a0,s1
    74c8:	7e8000ef          	jal	ra,7cb0 <_Bfree>
    74cc:	d80909e3          	beqz	s2,725e <_dtoa_r+0x766>
    74d0:	000b0863          	beqz	s6,74e0 <_dtoa_r+0x9e8>
    74d4:	012b0663          	beq	s6,s2,74e0 <_dtoa_r+0x9e8>
    74d8:	85da                	mv	a1,s6
    74da:	8526                	mv	a0,s1
    74dc:	7d4000ef          	jal	ra,7cb0 <_Bfree>
    74e0:	85ca                	mv	a1,s2
    74e2:	8526                	mv	a0,s1
    74e4:	7cc000ef          	jal	ra,7cb0 <_Bfree>
    74e8:	bb9d                	j	725e <_dtoa_r+0x766>
    74ea:	4a81                	li	s5,0
    74ec:	4901                	li	s2,0
    74ee:	b7f1                	j	74ba <_dtoa_r+0x9c2>
    74f0:	846a                	mv	s0,s10
    74f2:	4a81                	li	s5,0
    74f4:	4901                	li	s2,0
    74f6:	be29                	j	7010 <_dtoa_r+0x518>
    74f8:	47c2                	lw	a5,16(sp)
    74fa:	c46e                	sw	s11,8(sp)
    74fc:	1e078663          	beqz	a5,76e8 <_dtoa_r+0xbf0>
    7500:	01905863          	blez	s9,7510 <_dtoa_r+0xa18>
    7504:	85ca                	mv	a1,s2
    7506:	8666                	mv	a2,s9
    7508:	8526                	mv	a0,s1
    750a:	351000ef          	jal	ra,805a <__lshift>
    750e:	892a                	mv	s2,a0
    7510:	854a                	mv	a0,s2
    7512:	020d0663          	beqz	s10,753e <_dtoa_r+0xa46>
    7516:	00492583          	lw	a1,4(s2)
    751a:	8526                	mv	a0,s1
    751c:	70c000ef          	jal	ra,7c28 <_Balloc>
    7520:	01092603          	lw	a2,16(s2)
    7524:	8b2a                	mv	s6,a0
    7526:	00c90593          	addi	a1,s2,12
    752a:	0609                	addi	a2,a2,2
    752c:	060a                	slli	a2,a2,0x2
    752e:	0531                	addi	a0,a0,12
    7530:	eccfe0ef          	jal	ra,5bfc <memcpy>
    7534:	4605                	li	a2,1
    7536:	85da                	mv	a1,s6
    7538:	8526                	mv	a0,s1
    753a:	321000ef          	jal	ra,805a <__lshift>
    753e:	4782                	lw	a5,0(sp)
    7540:	4722                	lw	a4,8(sp)
    7542:	8b4a                	mv	s6,s2
    7544:	00178c13          	addi	s8,a5,1
    7548:	97ba                	add	a5,a5,a4
    754a:	c63e                	sw	a5,12(sp)
    754c:	001a7793          	andi	a5,s4,1
    7550:	892a                	mv	s2,a0
    7552:	c43e                	sw	a5,8(sp)
    7554:	85d6                	mv	a1,s5
    7556:	854e                	mv	a0,s3
    7558:	c66ff0ef          	jal	ra,69be <quorem>
    755c:	85da                	mv	a1,s6
    755e:	8d2a                	mv	s10,a0
    7560:	03050d93          	addi	s11,a0,48
    7564:	854e                	mv	a0,s3
    7566:	3c3000ef          	jal	ra,8128 <__mcmp>
    756a:	864a                	mv	a2,s2
    756c:	8baa                	mv	s7,a0
    756e:	85d6                	mv	a1,s5
    7570:	8526                	mv	a0,s1
    7572:	3e9000ef          	jal	ra,815a <__mdiff>
    7576:	4550                	lw	a2,12(a0)
    7578:	fffc0c93          	addi	s9,s8,-1
    757c:	8a2a                	mv	s4,a0
    757e:	4705                	li	a4,1
    7580:	e611                	bnez	a2,758c <_dtoa_r+0xa94>
    7582:	85aa                	mv	a1,a0
    7584:	854e                	mv	a0,s3
    7586:	3a3000ef          	jal	ra,8128 <__mcmp>
    758a:	872a                	mv	a4,a0
    758c:	85d2                	mv	a1,s4
    758e:	8526                	mv	a0,s1
    7590:	c83a                	sw	a4,16(sp)
    7592:	71e000ef          	jal	ra,7cb0 <_Bfree>
    7596:	4792                	lw	a5,4(sp)
    7598:	4742                	lw	a4,16(sp)
    759a:	8a62                	mv	s4,s8
    759c:	00e7e6b3          	or	a3,a5,a4
    75a0:	47a2                	lw	a5,8(sp)
    75a2:	8edd                	or	a3,a3,a5
    75a4:	ee81                	bnez	a3,75bc <_dtoa_r+0xac4>
    75a6:	03900713          	li	a4,57
    75aa:	04ed8863          	beq	s11,a4,75fa <_dtoa_r+0xb02>
    75ae:	01705463          	blez	s7,75b6 <_dtoa_r+0xabe>
    75b2:	031d0d93          	addi	s11,s10,49
    75b6:	01bc8023          	sb	s11,0(s9)
    75ba:	b729                	j	74c4 <_dtoa_r+0x9cc>
    75bc:	000bca63          	bltz	s7,75d0 <_dtoa_r+0xad8>
    75c0:	4792                	lw	a5,4(sp)
    75c2:	0177ebb3          	or	s7,a5,s7
    75c6:	47a2                	lw	a5,8(sp)
    75c8:	00fbebb3          	or	s7,s7,a5
    75cc:	040b9563          	bnez	s7,7616 <_dtoa_r+0xb1e>
    75d0:	fee053e3          	blez	a4,75b6 <_dtoa_r+0xabe>
    75d4:	85ce                	mv	a1,s3
    75d6:	4605                	li	a2,1
    75d8:	8526                	mv	a0,s1
    75da:	281000ef          	jal	ra,805a <__lshift>
    75de:	85d6                	mv	a1,s5
    75e0:	89aa                	mv	s3,a0
    75e2:	347000ef          	jal	ra,8128 <__mcmp>
    75e6:	00a04663          	bgtz	a0,75f2 <_dtoa_r+0xafa>
    75ea:	f571                	bnez	a0,75b6 <_dtoa_r+0xabe>
    75ec:	001df713          	andi	a4,s11,1
    75f0:	d379                	beqz	a4,75b6 <_dtoa_r+0xabe>
    75f2:	03900713          	li	a4,57
    75f6:	faed9ee3          	bne	s11,a4,75b2 <_dtoa_r+0xaba>
    75fa:	03900793          	li	a5,57
    75fe:	00fc8023          	sb	a5,0(s9)
    7602:	03900693          	li	a3,57
    7606:	fffa4783          	lbu	a5,-1(s4)
    760a:	fffa0713          	addi	a4,s4,-1
    760e:	08d78c63          	beq	a5,a3,76a6 <_dtoa_r+0xbae>
    7612:	0785                	addi	a5,a5,1
    7614:	a045                	j	76b4 <_dtoa_r+0xbbc>
    7616:	00e05b63          	blez	a4,762c <_dtoa_r+0xb34>
    761a:	03900713          	li	a4,57
    761e:	fced8ee3          	beq	s11,a4,75fa <_dtoa_r+0xb02>
    7622:	001d8793          	addi	a5,s11,1
    7626:	00fc8023          	sb	a5,0(s9)
    762a:	bd69                	j	74c4 <_dtoa_r+0x9cc>
    762c:	47b2                	lw	a5,12(sp)
    762e:	ffbc0fa3          	sb	s11,-1(s8)
    7632:	05878163          	beq	a5,s8,7674 <_dtoa_r+0xb7c>
    7636:	85ce                	mv	a1,s3
    7638:	4681                	li	a3,0
    763a:	4629                	li	a2,10
    763c:	8526                	mv	a0,s1
    763e:	6b6000ef          	jal	ra,7cf4 <__multadd>
    7642:	89aa                	mv	s3,a0
    7644:	4681                	li	a3,0
    7646:	4629                	li	a2,10
    7648:	85da                	mv	a1,s6
    764a:	8526                	mv	a0,s1
    764c:	012b1863          	bne	s6,s2,765c <_dtoa_r+0xb64>
    7650:	6a4000ef          	jal	ra,7cf4 <__multadd>
    7654:	8b2a                	mv	s6,a0
    7656:	892a                	mv	s2,a0
    7658:	0c05                	addi	s8,s8,1
    765a:	bded                	j	7554 <_dtoa_r+0xa5c>
    765c:	698000ef          	jal	ra,7cf4 <__multadd>
    7660:	85ca                	mv	a1,s2
    7662:	8b2a                	mv	s6,a0
    7664:	4681                	li	a3,0
    7666:	4629                	li	a2,10
    7668:	8526                	mv	a0,s1
    766a:	68a000ef          	jal	ra,7cf4 <__multadd>
    766e:	892a                	mv	s2,a0
    7670:	b7e5                	j	7658 <_dtoa_r+0xb60>
    7672:	4b01                	li	s6,0
    7674:	85ce                	mv	a1,s3
    7676:	4605                	li	a2,1
    7678:	8526                	mv	a0,s1
    767a:	1e1000ef          	jal	ra,805a <__lshift>
    767e:	85d6                	mv	a1,s5
    7680:	89aa                	mv	s3,a0
    7682:	2a7000ef          	jal	ra,8128 <__mcmp>
    7686:	f6a04ee3          	bgtz	a0,7602 <_dtoa_r+0xb0a>
    768a:	e501                	bnez	a0,7692 <_dtoa_r+0xb9a>
    768c:	001df793          	andi	a5,s11,1
    7690:	fbad                	bnez	a5,7602 <_dtoa_r+0xb0a>
    7692:	03000793          	li	a5,48
    7696:	fffa4703          	lbu	a4,-1(s4)
    769a:	fffa0693          	addi	a3,s4,-1
    769e:	e2f713e3          	bne	a4,a5,74c4 <_dtoa_r+0x9cc>
    76a2:	8a36                	mv	s4,a3
    76a4:	bfcd                	j	7696 <_dtoa_r+0xb9e>
    76a6:	4782                	lw	a5,0(sp)
    76a8:	00e79963          	bne	a5,a4,76ba <_dtoa_r+0xbc2>
    76ac:	4702                	lw	a4,0(sp)
    76ae:	0405                	addi	s0,s0,1
    76b0:	03100793          	li	a5,49
    76b4:	00f70023          	sb	a5,0(a4)
    76b8:	b531                	j	74c4 <_dtoa_r+0x9cc>
    76ba:	8a3a                	mv	s4,a4
    76bc:	b7a9                	j	7606 <_dtoa_r+0xb0e>
    76be:	4752                	lw	a4,20(sp)
    76c0:	00002797          	auipc	a5,0x2
    76c4:	cd078793          	addi	a5,a5,-816 # 9390 <__clz_tab+0x190>
    76c8:	c03e                	sw	a5,0(sp)
    76ca:	00002797          	auipc	a5,0x2
    76ce:	cce78793          	addi	a5,a5,-818 # 9398 <__clz_tab+0x198>
    76d2:	ce071763          	bnez	a4,6bc0 <_dtoa_r+0xc8>
    76d6:	ceeff06f          	j	6bc4 <_dtoa_r+0xcc>
    76da:	47a2                	lw	a5,8(sp)
    76dc:	00f04663          	bgtz	a5,76e8 <_dtoa_r+0xbf0>
    76e0:	4712                	lw	a4,4(sp)
    76e2:	4789                	li	a5,2
    76e4:	dae7cce3          	blt	a5,a4,749c <_dtoa_r+0x9a4>
    76e8:	4a02                	lw	s4,0(sp)
    76ea:	85d6                	mv	a1,s5
    76ec:	854e                	mv	a0,s3
    76ee:	ad0ff0ef          	jal	ra,69be <quorem>
    76f2:	4782                	lw	a5,0(sp)
    76f4:	0a05                	addi	s4,s4,1
    76f6:	03050d93          	addi	s11,a0,48
    76fa:	40fa0733          	sub	a4,s4,a5
    76fe:	47a2                	lw	a5,8(sp)
    7700:	ffba0fa3          	sb	s11,-1(s4)
    7704:	f6f757e3          	bge	a4,a5,7672 <_dtoa_r+0xb7a>
    7708:	85ce                	mv	a1,s3
    770a:	4681                	li	a3,0
    770c:	4629                	li	a2,10
    770e:	8526                	mv	a0,s1
    7710:	23d5                	jal	7cf4 <__multadd>
    7712:	89aa                	mv	s3,a0
    7714:	bfd9                	j	76ea <_dtoa_r+0xbf2>

00007716 <__sflush_r>:
__sflush_r():
    7716:	00c5d783          	lhu	a5,12(a1) # 7ff0000c <_eusrstack+0x5fef000c>
    771a:	1101                	addi	sp,sp,-32
    771c:	cc22                	sw	s0,24(sp)
    771e:	ca26                	sw	s1,20(sp)
    7720:	ce06                	sw	ra,28(sp)
    7722:	c84a                	sw	s2,16(sp)
    7724:	c64e                	sw	s3,12(sp)
    7726:	0087f713          	andi	a4,a5,8
    772a:	84aa                	mv	s1,a0
    772c:	842e                	mv	s0,a1
    772e:	ef79                	bnez	a4,780c <__sflush_r+0xf6>
    7730:	41d8                	lw	a4,4(a1)
    7732:	00e04d63          	bgtz	a4,774c <__sflush_r+0x36>
    7736:	41b8                	lw	a4,64(a1)
    7738:	00e04a63          	bgtz	a4,774c <__sflush_r+0x36>
    773c:	4501                	li	a0,0
    773e:	40f2                	lw	ra,28(sp)
    7740:	4462                	lw	s0,24(sp)
    7742:	44d2                	lw	s1,20(sp)
    7744:	4942                	lw	s2,16(sp)
    7746:	49b2                	lw	s3,12(sp)
    7748:	6105                	addi	sp,sp,32
    774a:	8082                	ret
    774c:	5458                	lw	a4,44(s0)
    774e:	d77d                	beqz	a4,773c <__sflush_r+0x26>
    7750:	0004a903          	lw	s2,0(s1)
    7754:	01379693          	slli	a3,a5,0x13
    7758:	0004a023          	sw	zero,0(s1)
    775c:	0606de63          	bgez	a3,77d8 <__sflush_r+0xc2>
    7760:	4870                	lw	a2,84(s0)
    7762:	00c45783          	lhu	a5,12(s0)
    7766:	8b91                	andi	a5,a5,4
    7768:	c799                	beqz	a5,7776 <__sflush_r+0x60>
    776a:	405c                	lw	a5,4(s0)
    776c:	8e1d                	sub	a2,a2,a5
    776e:	585c                	lw	a5,52(s0)
    7770:	c399                	beqz	a5,7776 <__sflush_r+0x60>
    7772:	403c                	lw	a5,64(s0)
    7774:	8e1d                	sub	a2,a2,a5
    7776:	545c                	lw	a5,44(s0)
    7778:	500c                	lw	a1,32(s0)
    777a:	4681                	li	a3,0
    777c:	8526                	mv	a0,s1
    777e:	9782                	jalr	a5
    7780:	57fd                	li	a5,-1
    7782:	00c45703          	lhu	a4,12(s0)
    7786:	00f51d63          	bne	a0,a5,77a0 <__sflush_r+0x8a>
    778a:	4094                	lw	a3,0(s1)
    778c:	47f5                	li	a5,29
    778e:	06d7e963          	bltu	a5,a3,7800 <__sflush_r+0xea>
    7792:	204007b7          	lui	a5,0x20400
    7796:	0785                	addi	a5,a5,1
    7798:	00d7d7b3          	srl	a5,a5,a3
    779c:	8b85                	andi	a5,a5,1
    779e:	c3ad                	beqz	a5,7800 <__sflush_r+0xea>
    77a0:	481c                	lw	a5,16(s0)
    77a2:	00042223          	sw	zero,4(s0)
    77a6:	c01c                	sw	a5,0(s0)
    77a8:	01371793          	slli	a5,a4,0x13
    77ac:	0007d863          	bgez	a5,77bc <__sflush_r+0xa6>
    77b0:	57fd                	li	a5,-1
    77b2:	00f51463          	bne	a0,a5,77ba <__sflush_r+0xa4>
    77b6:	409c                	lw	a5,0(s1)
    77b8:	e391                	bnez	a5,77bc <__sflush_r+0xa6>
    77ba:	c868                	sw	a0,84(s0)
    77bc:	584c                	lw	a1,52(s0)
    77be:	0124a023          	sw	s2,0(s1)
    77c2:	ddad                	beqz	a1,773c <__sflush_r+0x26>
    77c4:	04440793          	addi	a5,s0,68
    77c8:	00f58563          	beq	a1,a5,77d2 <__sflush_r+0xbc>
    77cc:	8526                	mv	a0,s1
    77ce:	379000ef          	jal	ra,8346 <_free_r>
    77d2:	02042a23          	sw	zero,52(s0)
    77d6:	b79d                	j	773c <__sflush_r+0x26>
    77d8:	500c                	lw	a1,32(s0)
    77da:	4601                	li	a2,0
    77dc:	4685                	li	a3,1
    77de:	8526                	mv	a0,s1
    77e0:	9702                	jalr	a4
    77e2:	57fd                	li	a5,-1
    77e4:	862a                	mv	a2,a0
    77e6:	f6f51ee3          	bne	a0,a5,7762 <__sflush_r+0x4c>
    77ea:	409c                	lw	a5,0(s1)
    77ec:	dbbd                	beqz	a5,7762 <__sflush_r+0x4c>
    77ee:	4775                	li	a4,29
    77f0:	00e78563          	beq	a5,a4,77fa <__sflush_r+0xe4>
    77f4:	4759                	li	a4,22
    77f6:	04e79463          	bne	a5,a4,783e <__sflush_r+0x128>
    77fa:	0124a023          	sw	s2,0(s1)
    77fe:	bf3d                	j	773c <__sflush_r+0x26>
    7800:	04076713          	ori	a4,a4,64
    7804:	00e41623          	sh	a4,12(s0)
    7808:	557d                	li	a0,-1
    780a:	bf15                	j	773e <__sflush_r+0x28>
    780c:	0105a983          	lw	s3,16(a1)
    7810:	f20986e3          	beqz	s3,773c <__sflush_r+0x26>
    7814:	0005a903          	lw	s2,0(a1)
    7818:	8b8d                	andi	a5,a5,3
    781a:	0135a023          	sw	s3,0(a1)
    781e:	41390933          	sub	s2,s2,s3
    7822:	4701                	li	a4,0
    7824:	e391                	bnez	a5,7828 <__sflush_r+0x112>
    7826:	49d8                	lw	a4,20(a1)
    7828:	c418                	sw	a4,8(s0)
    782a:	f12059e3          	blez	s2,773c <__sflush_r+0x26>
    782e:	541c                	lw	a5,40(s0)
    7830:	500c                	lw	a1,32(s0)
    7832:	86ca                	mv	a3,s2
    7834:	864e                	mv	a2,s3
    7836:	8526                	mv	a0,s1
    7838:	9782                	jalr	a5
    783a:	00a04963          	bgtz	a0,784c <__sflush_r+0x136>
    783e:	00c45783          	lhu	a5,12(s0)
    7842:	0407e793          	ori	a5,a5,64
    7846:	00f41623          	sh	a5,12(s0)
    784a:	bf7d                	j	7808 <__sflush_r+0xf2>
    784c:	99aa                	add	s3,s3,a0
    784e:	40a90933          	sub	s2,s2,a0
    7852:	bfe1                	j	782a <__sflush_r+0x114>

00007854 <_fflush_r>:
_fflush_r():
    7854:	499c                	lw	a5,16(a1)
    7856:	c3a5                	beqz	a5,78b6 <_fflush_r+0x62>
    7858:	1101                	addi	sp,sp,-32
    785a:	cc22                	sw	s0,24(sp)
    785c:	ce06                	sw	ra,28(sp)
    785e:	842a                	mv	s0,a0
    7860:	c511                	beqz	a0,786c <_fflush_r+0x18>
    7862:	4d1c                	lw	a5,24(a0)
    7864:	e781                	bnez	a5,786c <_fflush_r+0x18>
    7866:	c62e                	sw	a1,12(sp)
    7868:	2239                	jal	7976 <__sinit>
    786a:	45b2                	lw	a1,12(sp)
    786c:	00002797          	auipc	a5,0x2
    7870:	b5478793          	addi	a5,a5,-1196 # 93c0 <__sf_fake_stdin>
    7874:	00f59c63          	bne	a1,a5,788c <_fflush_r+0x38>
    7878:	404c                	lw	a1,4(s0)
    787a:	00c59783          	lh	a5,12(a1)
    787e:	c79d                	beqz	a5,78ac <_fflush_r+0x58>
    7880:	8522                	mv	a0,s0
    7882:	4462                	lw	s0,24(sp)
    7884:	40f2                	lw	ra,28(sp)
    7886:	6105                	addi	sp,sp,32
    7888:	e8fff06f          	j	7716 <__sflush_r>
    788c:	00002797          	auipc	a5,0x2
    7890:	b5478793          	addi	a5,a5,-1196 # 93e0 <__sf_fake_stdout>
    7894:	00f59463          	bne	a1,a5,789c <_fflush_r+0x48>
    7898:	440c                	lw	a1,8(s0)
    789a:	b7c5                	j	787a <_fflush_r+0x26>
    789c:	00002797          	auipc	a5,0x2
    78a0:	b0478793          	addi	a5,a5,-1276 # 93a0 <__sf_fake_stderr>
    78a4:	fcf59be3          	bne	a1,a5,787a <_fflush_r+0x26>
    78a8:	444c                	lw	a1,12(s0)
    78aa:	bfc1                	j	787a <_fflush_r+0x26>
    78ac:	40f2                	lw	ra,28(sp)
    78ae:	4462                	lw	s0,24(sp)
    78b0:	4501                	li	a0,0
    78b2:	6105                	addi	sp,sp,32
    78b4:	8082                	ret
    78b6:	4501                	li	a0,0
    78b8:	8082                	ret

000078ba <std>:
std():
    78ba:	1141                	addi	sp,sp,-16
    78bc:	c422                	sw	s0,8(sp)
    78be:	c606                	sw	ra,12(sp)
    78c0:	842a                	mv	s0,a0
    78c2:	00b51623          	sh	a1,12(a0)
    78c6:	00c51723          	sh	a2,14(a0)
    78ca:	00052023          	sw	zero,0(a0)
    78ce:	00052223          	sw	zero,4(a0)
    78d2:	00052423          	sw	zero,8(a0)
    78d6:	06052223          	sw	zero,100(a0)
    78da:	00052823          	sw	zero,16(a0)
    78de:	00052a23          	sw	zero,20(a0)
    78e2:	00052c23          	sw	zero,24(a0)
    78e6:	4621                	li	a2,8
    78e8:	4581                	li	a1,0
    78ea:	05c50513          	addi	a0,a0,92
    78ee:	927f80ef          	jal	ra,214 <memset>
    78f2:	00001797          	auipc	a5,0x1
    78f6:	efc78793          	addi	a5,a5,-260 # 87ee <__sread>
    78fa:	d05c                	sw	a5,36(s0)
    78fc:	00001797          	auipc	a5,0x1
    7900:	f2278793          	addi	a5,a5,-222 # 881e <__swrite>
    7904:	d41c                	sw	a5,40(s0)
    7906:	00001797          	auipc	a5,0x1
    790a:	f6678793          	addi	a5,a5,-154 # 886c <__sseek>
    790e:	d45c                	sw	a5,44(s0)
    7910:	00001797          	auipc	a5,0x1
    7914:	f9278793          	addi	a5,a5,-110 # 88a2 <__sclose>
    7918:	d000                	sw	s0,32(s0)
    791a:	d81c                	sw	a5,48(s0)
    791c:	40b2                	lw	ra,12(sp)
    791e:	4422                	lw	s0,8(sp)
    7920:	0141                	addi	sp,sp,16
    7922:	8082                	ret

00007924 <_cleanup_r>:
_cleanup_r():
    7924:	00000597          	auipc	a1,0x0
    7928:	f3058593          	addi	a1,a1,-208 # 7854 <_fflush_r>
    792c:	aa99                	j	7a82 <_fwalk_reent>

0000792e <__sfmoreglue>:
__sfmoreglue():
    792e:	1141                	addi	sp,sp,-16
    7930:	c226                	sw	s1,4(sp)
    7932:	06800613          	li	a2,104
    7936:	fff58493          	addi	s1,a1,-1
    793a:	02c484b3          	mul	s1,s1,a2
    793e:	c04a                	sw	s2,0(sp)
    7940:	892e                	mv	s2,a1
    7942:	c422                	sw	s0,8(sp)
    7944:	c606                	sw	ra,12(sp)
    7946:	07448593          	addi	a1,s1,116
    794a:	2a1000ef          	jal	ra,83ea <_malloc_r>
    794e:	842a                	mv	s0,a0
    7950:	cd01                	beqz	a0,7968 <__sfmoreglue+0x3a>
    7952:	00052023          	sw	zero,0(a0)
    7956:	01252223          	sw	s2,4(a0)
    795a:	0531                	addi	a0,a0,12
    795c:	c408                	sw	a0,8(s0)
    795e:	06848613          	addi	a2,s1,104
    7962:	4581                	li	a1,0
    7964:	8b1f80ef          	jal	ra,214 <memset>
    7968:	8522                	mv	a0,s0
    796a:	40b2                	lw	ra,12(sp)
    796c:	4422                	lw	s0,8(sp)
    796e:	4492                	lw	s1,4(sp)
    7970:	4902                	lw	s2,0(sp)
    7972:	0141                	addi	sp,sp,16
    7974:	8082                	ret

00007976 <__sinit>:
__sinit():
    7976:	4d1c                	lw	a5,24(a0)
    7978:	e7a5                	bnez	a5,79e0 <__sinit+0x6a>
    797a:	1141                	addi	sp,sp,-16
    797c:	c606                	sw	ra,12(sp)
    797e:	c422                	sw	s0,8(sp)
    7980:	00000797          	auipc	a5,0x0
    7984:	fa478793          	addi	a5,a5,-92 # 7924 <_cleanup_r>
    7988:	d51c                	sw	a5,40(a0)
    798a:	82818793          	addi	a5,gp,-2008 # 20000248 <_global_impure_ptr>
    798e:	439c                	lw	a5,0(a5)
    7990:	04052423          	sw	zero,72(a0)
    7994:	04052623          	sw	zero,76(a0)
    7998:	04052823          	sw	zero,80(a0)
    799c:	00f51463          	bne	a0,a5,79a4 <__sinit+0x2e>
    79a0:	4785                	li	a5,1
    79a2:	cd1c                	sw	a5,24(a0)
    79a4:	842a                	mv	s0,a0
    79a6:	2835                	jal	79e2 <__sfp>
    79a8:	c048                	sw	a0,4(s0)
    79aa:	8522                	mv	a0,s0
    79ac:	281d                	jal	79e2 <__sfp>
    79ae:	c408                	sw	a0,8(s0)
    79b0:	8522                	mv	a0,s0
    79b2:	2805                	jal	79e2 <__sfp>
    79b4:	c448                	sw	a0,12(s0)
    79b6:	4048                	lw	a0,4(s0)
    79b8:	4601                	li	a2,0
    79ba:	4591                	li	a1,4
    79bc:	effff0ef          	jal	ra,78ba <std>
    79c0:	4408                	lw	a0,8(s0)
    79c2:	4605                	li	a2,1
    79c4:	45a5                	li	a1,9
    79c6:	ef5ff0ef          	jal	ra,78ba <std>
    79ca:	4448                	lw	a0,12(s0)
    79cc:	4609                	li	a2,2
    79ce:	45c9                	li	a1,18
    79d0:	eebff0ef          	jal	ra,78ba <std>
    79d4:	4785                	li	a5,1
    79d6:	cc1c                	sw	a5,24(s0)
    79d8:	40b2                	lw	ra,12(sp)
    79da:	4422                	lw	s0,8(sp)
    79dc:	0141                	addi	sp,sp,16
    79de:	8082                	ret
    79e0:	8082                	ret

000079e2 <__sfp>:
__sfp():
    79e2:	1141                	addi	sp,sp,-16
    79e4:	82818793          	addi	a5,gp,-2008 # 20000248 <_global_impure_ptr>
    79e8:	c226                	sw	s1,4(sp)
    79ea:	4384                	lw	s1,0(a5)
    79ec:	c04a                	sw	s2,0(sp)
    79ee:	c606                	sw	ra,12(sp)
    79f0:	4c9c                	lw	a5,24(s1)
    79f2:	c422                	sw	s0,8(sp)
    79f4:	892a                	mv	s2,a0
    79f6:	e781                	bnez	a5,79fe <__sfp+0x1c>
    79f8:	8526                	mv	a0,s1
    79fa:	f7dff0ef          	jal	ra,7976 <__sinit>
    79fe:	04848493          	addi	s1,s1,72
    7a02:	4480                	lw	s0,8(s1)
    7a04:	40dc                	lw	a5,4(s1)
    7a06:	17fd                	addi	a5,a5,-1
    7a08:	0007d663          	bgez	a5,7a14 <__sfp+0x32>
    7a0c:	409c                	lw	a5,0(s1)
    7a0e:	cfb9                	beqz	a5,7a6c <__sfp+0x8a>
    7a10:	4084                	lw	s1,0(s1)
    7a12:	bfc5                	j	7a02 <__sfp+0x20>
    7a14:	00c41703          	lh	a4,12(s0)
    7a18:	e739                	bnez	a4,7a66 <__sfp+0x84>
    7a1a:	77c1                	lui	a5,0xffff0
    7a1c:	0785                	addi	a5,a5,1
    7a1e:	06042223          	sw	zero,100(s0)
    7a22:	00042023          	sw	zero,0(s0)
    7a26:	00042223          	sw	zero,4(s0)
    7a2a:	00042423          	sw	zero,8(s0)
    7a2e:	c45c                	sw	a5,12(s0)
    7a30:	00042823          	sw	zero,16(s0)
    7a34:	00042a23          	sw	zero,20(s0)
    7a38:	00042c23          	sw	zero,24(s0)
    7a3c:	4621                	li	a2,8
    7a3e:	4581                	li	a1,0
    7a40:	05c40513          	addi	a0,s0,92
    7a44:	fd0f80ef          	jal	ra,214 <memset>
    7a48:	02042a23          	sw	zero,52(s0)
    7a4c:	02042c23          	sw	zero,56(s0)
    7a50:	04042423          	sw	zero,72(s0)
    7a54:	04042623          	sw	zero,76(s0)
    7a58:	8522                	mv	a0,s0
    7a5a:	40b2                	lw	ra,12(sp)
    7a5c:	4422                	lw	s0,8(sp)
    7a5e:	4492                	lw	s1,4(sp)
    7a60:	4902                	lw	s2,0(sp)
    7a62:	0141                	addi	sp,sp,16
    7a64:	8082                	ret
    7a66:	06840413          	addi	s0,s0,104
    7a6a:	bf71                	j	7a06 <__sfp+0x24>
    7a6c:	4591                	li	a1,4
    7a6e:	854a                	mv	a0,s2
    7a70:	ebfff0ef          	jal	ra,792e <__sfmoreglue>
    7a74:	c088                	sw	a0,0(s1)
    7a76:	fd49                	bnez	a0,7a10 <__sfp+0x2e>
    7a78:	47b1                	li	a5,12
    7a7a:	00f92023          	sw	a5,0(s2)
    7a7e:	4401                	li	s0,0
    7a80:	bfe1                	j	7a58 <__sfp+0x76>

00007a82 <_fwalk_reent>:
_fwalk_reent():
    7a82:	7179                	addi	sp,sp,-48
    7a84:	d422                	sw	s0,40(sp)
    7a86:	d04a                	sw	s2,32(sp)
    7a88:	cc52                	sw	s4,24(sp)
    7a8a:	ca56                	sw	s5,20(sp)
    7a8c:	c85a                	sw	s6,16(sp)
    7a8e:	c65e                	sw	s7,12(sp)
    7a90:	d606                	sw	ra,44(sp)
    7a92:	d226                	sw	s1,36(sp)
    7a94:	ce4e                	sw	s3,28(sp)
    7a96:	8a2a                	mv	s4,a0
    7a98:	8aae                	mv	s5,a1
    7a9a:	04850413          	addi	s0,a0,72
    7a9e:	4901                	li	s2,0
    7aa0:	4b05                	li	s6,1
    7aa2:	5bfd                	li	s7,-1
    7aa4:	ec09                	bnez	s0,7abe <_fwalk_reent+0x3c>
    7aa6:	50b2                	lw	ra,44(sp)
    7aa8:	5422                	lw	s0,40(sp)
    7aaa:	854a                	mv	a0,s2
    7aac:	5492                	lw	s1,36(sp)
    7aae:	5902                	lw	s2,32(sp)
    7ab0:	49f2                	lw	s3,28(sp)
    7ab2:	4a62                	lw	s4,24(sp)
    7ab4:	4ad2                	lw	s5,20(sp)
    7ab6:	4b42                	lw	s6,16(sp)
    7ab8:	4bb2                	lw	s7,12(sp)
    7aba:	6145                	addi	sp,sp,48
    7abc:	8082                	ret
    7abe:	4404                	lw	s1,8(s0)
    7ac0:	00442983          	lw	s3,4(s0)
    7ac4:	19fd                	addi	s3,s3,-1
    7ac6:	0009d463          	bgez	s3,7ace <_fwalk_reent+0x4c>
    7aca:	4000                	lw	s0,0(s0)
    7acc:	bfe1                	j	7aa4 <_fwalk_reent+0x22>
    7ace:	00c4d783          	lhu	a5,12(s1)
    7ad2:	00fb7b63          	bgeu	s6,a5,7ae8 <_fwalk_reent+0x66>
    7ad6:	00e49783          	lh	a5,14(s1)
    7ada:	01778763          	beq	a5,s7,7ae8 <_fwalk_reent+0x66>
    7ade:	85a6                	mv	a1,s1
    7ae0:	8552                	mv	a0,s4
    7ae2:	9a82                	jalr	s5
    7ae4:	00a96933          	or	s2,s2,a0
    7ae8:	06848493          	addi	s1,s1,104
    7aec:	bfe1                	j	7ac4 <_fwalk_reent+0x42>

00007aee <_localeconv_r>:
_localeconv_r():
    7aee:	81818793          	addi	a5,gp,-2024 # 20000238 <_impure_ptr>
    7af2:	439c                	lw	a5,0(a5)
    7af4:	5388                	lw	a0,32(a5)
    7af6:	e509                	bnez	a0,7b00 <_localeconv_r+0x12>
    7af8:	1fff8517          	auipc	a0,0x1fff8
    7afc:	5bc50513          	addi	a0,a0,1468 # 200000b4 <__global_locale>
    7b00:	0f050513          	addi	a0,a0,240
    7b04:	8082                	ret

00007b06 <__swhatbuf_r>:
__swhatbuf_r():
    7b06:	7119                	addi	sp,sp,-128
    7b08:	daa6                	sw	s1,116(sp)
    7b0a:	84ae                	mv	s1,a1
    7b0c:	00e59583          	lh	a1,14(a1)
    7b10:	dca2                	sw	s0,120(sp)
    7b12:	de86                	sw	ra,124(sp)
    7b14:	8432                	mv	s0,a2
    7b16:	0005dc63          	bgez	a1,7b2e <__swhatbuf_r+0x28>
    7b1a:	00c4d783          	lhu	a5,12(s1)
    7b1e:	0006a023          	sw	zero,0(a3)
    7b22:	0807f793          	andi	a5,a5,128
    7b26:	e785                	bnez	a5,7b4e <__swhatbuf_r+0x48>
    7b28:	40000793          	li	a5,1024
    7b2c:	a01d                	j	7b52 <__swhatbuf_r+0x4c>
    7b2e:	0830                	addi	a2,sp,24
    7b30:	c636                	sw	a3,12(sp)
    7b32:	5cd000ef          	jal	ra,88fe <_fstat_r>
    7b36:	46b2                	lw	a3,12(sp)
    7b38:	fe0541e3          	bltz	a0,7b1a <__swhatbuf_r+0x14>
    7b3c:	4772                	lw	a4,28(sp)
    7b3e:	67bd                	lui	a5,0xf
    7b40:	8ff9                	and	a5,a5,a4
    7b42:	7779                	lui	a4,0xffffe
    7b44:	97ba                	add	a5,a5,a4
    7b46:	0017b793          	seqz	a5,a5
    7b4a:	c29c                	sw	a5,0(a3)
    7b4c:	bff1                	j	7b28 <__swhatbuf_r+0x22>
    7b4e:	04000793          	li	a5,64
    7b52:	c01c                	sw	a5,0(s0)
    7b54:	50f6                	lw	ra,124(sp)
    7b56:	5466                	lw	s0,120(sp)
    7b58:	54d6                	lw	s1,116(sp)
    7b5a:	4501                	li	a0,0
    7b5c:	6109                	addi	sp,sp,128
    7b5e:	8082                	ret

00007b60 <__smakebuf_r>:
__smakebuf_r():
    7b60:	00c5d783          	lhu	a5,12(a1)
    7b64:	1101                	addi	sp,sp,-32
    7b66:	cc22                	sw	s0,24(sp)
    7b68:	ce06                	sw	ra,28(sp)
    7b6a:	ca26                	sw	s1,20(sp)
    7b6c:	c84a                	sw	s2,16(sp)
    7b6e:	8b89                	andi	a5,a5,2
    7b70:	842e                	mv	s0,a1
    7b72:	cf89                	beqz	a5,7b8c <__smakebuf_r+0x2c>
    7b74:	04740793          	addi	a5,s0,71
    7b78:	c01c                	sw	a5,0(s0)
    7b7a:	c81c                	sw	a5,16(s0)
    7b7c:	4785                	li	a5,1
    7b7e:	c85c                	sw	a5,20(s0)
    7b80:	40f2                	lw	ra,28(sp)
    7b82:	4462                	lw	s0,24(sp)
    7b84:	44d2                	lw	s1,20(sp)
    7b86:	4942                	lw	s2,16(sp)
    7b88:	6105                	addi	sp,sp,32
    7b8a:	8082                	ret
    7b8c:	0074                	addi	a3,sp,12
    7b8e:	0030                	addi	a2,sp,8
    7b90:	84aa                	mv	s1,a0
    7b92:	f75ff0ef          	jal	ra,7b06 <__swhatbuf_r>
    7b96:	45a2                	lw	a1,8(sp)
    7b98:	892a                	mv	s2,a0
    7b9a:	8526                	mv	a0,s1
    7b9c:	04f000ef          	jal	ra,83ea <_malloc_r>
    7ba0:	ed01                	bnez	a0,7bb8 <__smakebuf_r+0x58>
    7ba2:	00c41783          	lh	a5,12(s0)
    7ba6:	2007f713          	andi	a4,a5,512
    7baa:	fb79                	bnez	a4,7b80 <__smakebuf_r+0x20>
    7bac:	9bf1                	andi	a5,a5,-4
    7bae:	0027e793          	ori	a5,a5,2
    7bb2:	00f41623          	sh	a5,12(s0)
    7bb6:	bf7d                	j	7b74 <__smakebuf_r+0x14>
    7bb8:	00000797          	auipc	a5,0x0
    7bbc:	d6c78793          	addi	a5,a5,-660 # 7924 <_cleanup_r>
    7bc0:	d49c                	sw	a5,40(s1)
    7bc2:	00c45783          	lhu	a5,12(s0)
    7bc6:	c008                	sw	a0,0(s0)
    7bc8:	c808                	sw	a0,16(s0)
    7bca:	0807e793          	ori	a5,a5,128
    7bce:	00f41623          	sh	a5,12(s0)
    7bd2:	47a2                	lw	a5,8(sp)
    7bd4:	c85c                	sw	a5,20(s0)
    7bd6:	47b2                	lw	a5,12(sp)
    7bd8:	cf91                	beqz	a5,7bf4 <__smakebuf_r+0x94>
    7bda:	00e41583          	lh	a1,14(s0)
    7bde:	8526                	mv	a0,s1
    7be0:	549000ef          	jal	ra,8928 <_isatty_r>
    7be4:	c901                	beqz	a0,7bf4 <__smakebuf_r+0x94>
    7be6:	00c45783          	lhu	a5,12(s0)
    7bea:	9bf1                	andi	a5,a5,-4
    7bec:	0017e793          	ori	a5,a5,1
    7bf0:	00f41623          	sh	a5,12(s0)
    7bf4:	00c45783          	lhu	a5,12(s0)
    7bf8:	00f96933          	or	s2,s2,a5
    7bfc:	01241623          	sh	s2,12(s0)
    7c00:	b741                	j	7b80 <__smakebuf_r+0x20>

00007c02 <malloc>:
malloc():
    7c02:	81818793          	addi	a5,gp,-2024 # 20000238 <_impure_ptr>
    7c06:	85aa                	mv	a1,a0
    7c08:	4388                	lw	a0,0(a5)
    7c0a:	7e00006f          	j	83ea <_malloc_r>

00007c0e <memchr>:
memchr():
    7c0e:	0ff5f593          	andi	a1,a1,255
    7c12:	962a                	add	a2,a2,a0
    7c14:	00c51463          	bne	a0,a2,7c1c <memchr+0xe>
    7c18:	4501                	li	a0,0
    7c1a:	8082                	ret
    7c1c:	00054783          	lbu	a5,0(a0)
    7c20:	feb78de3          	beq	a5,a1,7c1a <memchr+0xc>
    7c24:	0505                	addi	a0,a0,1
    7c26:	b7fd                	j	7c14 <memchr+0x6>

00007c28 <_Balloc>:
_Balloc():
    7c28:	515c                	lw	a5,36(a0)
    7c2a:	1141                	addi	sp,sp,-16
    7c2c:	c422                	sw	s0,8(sp)
    7c2e:	c04a                	sw	s2,0(sp)
    7c30:	c606                	sw	ra,12(sp)
    7c32:	c226                	sw	s1,4(sp)
    7c34:	842a                	mv	s0,a0
    7c36:	892e                	mv	s2,a1
    7c38:	ef89                	bnez	a5,7c52 <_Balloc+0x2a>
    7c3a:	4541                	li	a0,16
    7c3c:	fc7ff0ef          	jal	ra,7c02 <malloc>
    7c40:	d048                	sw	a0,36(s0)
    7c42:	00052223          	sw	zero,4(a0)
    7c46:	00052423          	sw	zero,8(a0)
    7c4a:	00052023          	sw	zero,0(a0)
    7c4e:	00052623          	sw	zero,12(a0)
    7c52:	5044                	lw	s1,36(s0)
    7c54:	44dc                	lw	a5,12(s1)
    7c56:	c795                	beqz	a5,7c82 <_Balloc+0x5a>
    7c58:	5058                	lw	a4,36(s0)
    7c5a:	00291793          	slli	a5,s2,0x2
    7c5e:	4758                	lw	a4,12(a4)
    7c60:	97ba                	add	a5,a5,a4
    7c62:	4388                	lw	a0,0(a5)
    7c64:	ed1d                	bnez	a0,7ca2 <_Balloc+0x7a>
    7c66:	4485                	li	s1,1
    7c68:	012494b3          	sll	s1,s1,s2
    7c6c:	00548613          	addi	a2,s1,5
    7c70:	060a                	slli	a2,a2,0x2
    7c72:	4585                	li	a1,1
    7c74:	8522                	mv	a0,s0
    7c76:	256d                	jal	8320 <_calloc_r>
    7c78:	cd11                	beqz	a0,7c94 <_Balloc+0x6c>
    7c7a:	01252223          	sw	s2,4(a0)
    7c7e:	c504                	sw	s1,8(a0)
    7c80:	a01d                	j	7ca6 <_Balloc+0x7e>
    7c82:	02100613          	li	a2,33
    7c86:	4591                	li	a1,4
    7c88:	8522                	mv	a0,s0
    7c8a:	2d59                	jal	8320 <_calloc_r>
    7c8c:	505c                	lw	a5,36(s0)
    7c8e:	c4c8                	sw	a0,12(s1)
    7c90:	47dc                	lw	a5,12(a5)
    7c92:	f3f9                	bnez	a5,7c58 <_Balloc+0x30>
    7c94:	4501                	li	a0,0
    7c96:	40b2                	lw	ra,12(sp)
    7c98:	4422                	lw	s0,8(sp)
    7c9a:	4492                	lw	s1,4(sp)
    7c9c:	4902                	lw	s2,0(sp)
    7c9e:	0141                	addi	sp,sp,16
    7ca0:	8082                	ret
    7ca2:	4118                	lw	a4,0(a0)
    7ca4:	c398                	sw	a4,0(a5)
    7ca6:	00052823          	sw	zero,16(a0)
    7caa:	00052623          	sw	zero,12(a0)
    7cae:	b7e5                	j	7c96 <_Balloc+0x6e>

00007cb0 <_Bfree>:
_Bfree():
    7cb0:	515c                	lw	a5,36(a0)
    7cb2:	1101                	addi	sp,sp,-32
    7cb4:	cc22                	sw	s0,24(sp)
    7cb6:	ce06                	sw	ra,28(sp)
    7cb8:	842a                	mv	s0,a0
    7cba:	ef99                	bnez	a5,7cd8 <_Bfree+0x28>
    7cbc:	4541                	li	a0,16
    7cbe:	c62e                	sw	a1,12(sp)
    7cc0:	f43ff0ef          	jal	ra,7c02 <malloc>
    7cc4:	45b2                	lw	a1,12(sp)
    7cc6:	d048                	sw	a0,36(s0)
    7cc8:	00052223          	sw	zero,4(a0)
    7ccc:	00052423          	sw	zero,8(a0)
    7cd0:	00052023          	sw	zero,0(a0)
    7cd4:	00052623          	sw	zero,12(a0)
    7cd8:	c991                	beqz	a1,7cec <_Bfree+0x3c>
    7cda:	5054                	lw	a3,36(s0)
    7cdc:	41dc                	lw	a5,4(a1)
    7cde:	00279713          	slli	a4,a5,0x2
    7ce2:	46dc                	lw	a5,12(a3)
    7ce4:	97ba                	add	a5,a5,a4
    7ce6:	4398                	lw	a4,0(a5)
    7ce8:	c198                	sw	a4,0(a1)
    7cea:	c38c                	sw	a1,0(a5)
    7cec:	40f2                	lw	ra,28(sp)
    7cee:	4462                	lw	s0,24(sp)
    7cf0:	6105                	addi	sp,sp,32
    7cf2:	8082                	ret

00007cf4 <__multadd>:
__multadd():
    7cf4:	7179                	addi	sp,sp,-48
    7cf6:	ce4e                	sw	s3,28(sp)
    7cf8:	89aa                	mv	s3,a0
    7cfa:	6541                	lui	a0,0x10
    7cfc:	d422                	sw	s0,40(sp)
    7cfe:	d226                	sw	s1,36(sp)
    7d00:	842e                	mv	s0,a1
    7d02:	4984                	lw	s1,16(a1)
    7d04:	d606                	sw	ra,44(sp)
    7d06:	d04a                	sw	s2,32(sp)
    7d08:	05d1                	addi	a1,a1,20
    7d0a:	4801                	li	a6,0
    7d0c:	157d                	addi	a0,a0,-1
    7d0e:	419c                	lw	a5,0(a1)
    7d10:	0591                	addi	a1,a1,4
    7d12:	0805                	addi	a6,a6,1
    7d14:	00a7f733          	and	a4,a5,a0
    7d18:	02c70733          	mul	a4,a4,a2
    7d1c:	83c1                	srli	a5,a5,0x10
    7d1e:	02c787b3          	mul	a5,a5,a2
    7d22:	9736                	add	a4,a4,a3
    7d24:	01075693          	srli	a3,a4,0x10
    7d28:	8f69                	and	a4,a4,a0
    7d2a:	97b6                	add	a5,a5,a3
    7d2c:	0107d693          	srli	a3,a5,0x10
    7d30:	07c2                	slli	a5,a5,0x10
    7d32:	97ba                	add	a5,a5,a4
    7d34:	fef5ae23          	sw	a5,-4(a1)
    7d38:	fc984be3          	blt	a6,s1,7d0e <__multadd+0x1a>
    7d3c:	c2a1                	beqz	a3,7d7c <__multadd+0x88>
    7d3e:	441c                	lw	a5,8(s0)
    7d40:	02f4c763          	blt	s1,a5,7d6e <__multadd+0x7a>
    7d44:	404c                	lw	a1,4(s0)
    7d46:	854e                	mv	a0,s3
    7d48:	c636                	sw	a3,12(sp)
    7d4a:	0585                	addi	a1,a1,1
    7d4c:	eddff0ef          	jal	ra,7c28 <_Balloc>
    7d50:	4810                	lw	a2,16(s0)
    7d52:	00c40593          	addi	a1,s0,12
    7d56:	892a                	mv	s2,a0
    7d58:	0609                	addi	a2,a2,2
    7d5a:	060a                	slli	a2,a2,0x2
    7d5c:	0531                	addi	a0,a0,12
    7d5e:	e9ffd0ef          	jal	ra,5bfc <memcpy>
    7d62:	85a2                	mv	a1,s0
    7d64:	854e                	mv	a0,s3
    7d66:	f4bff0ef          	jal	ra,7cb0 <_Bfree>
    7d6a:	46b2                	lw	a3,12(sp)
    7d6c:	844a                	mv	s0,s2
    7d6e:	00448793          	addi	a5,s1,4
    7d72:	078a                	slli	a5,a5,0x2
    7d74:	97a2                	add	a5,a5,s0
    7d76:	c3d4                	sw	a3,4(a5)
    7d78:	0485                	addi	s1,s1,1
    7d7a:	c804                	sw	s1,16(s0)
    7d7c:	8522                	mv	a0,s0
    7d7e:	50b2                	lw	ra,44(sp)
    7d80:	5422                	lw	s0,40(sp)
    7d82:	5492                	lw	s1,36(sp)
    7d84:	5902                	lw	s2,32(sp)
    7d86:	49f2                	lw	s3,28(sp)
    7d88:	6145                	addi	sp,sp,48
    7d8a:	8082                	ret

00007d8c <__hi0bits>:
__hi0bits():
    7d8c:	7741                	lui	a4,0xffff0
    7d8e:	8f69                	and	a4,a4,a0
    7d90:	87aa                	mv	a5,a0
    7d92:	4501                	li	a0,0
    7d94:	e319                	bnez	a4,7d9a <__hi0bits+0xe>
    7d96:	07c2                	slli	a5,a5,0x10
    7d98:	4541                	li	a0,16
    7d9a:	ff000737          	lui	a4,0xff000
    7d9e:	8f7d                	and	a4,a4,a5
    7da0:	e319                	bnez	a4,7da6 <__hi0bits+0x1a>
    7da2:	0521                	addi	a0,a0,8
    7da4:	07a2                	slli	a5,a5,0x8
    7da6:	f0000737          	lui	a4,0xf0000
    7daa:	8f7d                	and	a4,a4,a5
    7dac:	e319                	bnez	a4,7db2 <__hi0bits+0x26>
    7dae:	0511                	addi	a0,a0,4
    7db0:	0792                	slli	a5,a5,0x4
    7db2:	c0000737          	lui	a4,0xc0000
    7db6:	8f7d                	and	a4,a4,a5
    7db8:	e319                	bnez	a4,7dbe <__hi0bits+0x32>
    7dba:	0509                	addi	a0,a0,2
    7dbc:	078a                	slli	a5,a5,0x2
    7dbe:	0007c963          	bltz	a5,7dd0 <__hi0bits+0x44>
    7dc2:	00179713          	slli	a4,a5,0x1
    7dc6:	0505                	addi	a0,a0,1
    7dc8:	00074463          	bltz	a4,7dd0 <__hi0bits+0x44>
    7dcc:	02000513          	li	a0,32
    7dd0:	8082                	ret

00007dd2 <__lo0bits>:
__lo0bits():
    7dd2:	411c                	lw	a5,0(a0)
    7dd4:	0077f713          	andi	a4,a5,7
    7dd8:	c30d                	beqz	a4,7dfa <__lo0bits+0x28>
    7dda:	0017f693          	andi	a3,a5,1
    7dde:	4701                	li	a4,0
    7de0:	e699                	bnez	a3,7dee <__lo0bits+0x1c>
    7de2:	0027f713          	andi	a4,a5,2
    7de6:	c711                	beqz	a4,7df2 <__lo0bits+0x20>
    7de8:	8385                	srli	a5,a5,0x1
    7dea:	c11c                	sw	a5,0(a0)
    7dec:	4705                	li	a4,1
    7dee:	853a                	mv	a0,a4
    7df0:	8082                	ret
    7df2:	8389                	srli	a5,a5,0x2
    7df4:	c11c                	sw	a5,0(a0)
    7df6:	4709                	li	a4,2
    7df8:	bfdd                	j	7dee <__lo0bits+0x1c>
    7dfa:	01079693          	slli	a3,a5,0x10
    7dfe:	82c1                	srli	a3,a3,0x10
    7e00:	4701                	li	a4,0
    7e02:	e299                	bnez	a3,7e08 <__lo0bits+0x36>
    7e04:	83c1                	srli	a5,a5,0x10
    7e06:	4741                	li	a4,16
    7e08:	0ff7f693          	andi	a3,a5,255
    7e0c:	e299                	bnez	a3,7e12 <__lo0bits+0x40>
    7e0e:	0721                	addi	a4,a4,8
    7e10:	83a1                	srli	a5,a5,0x8
    7e12:	00f7f693          	andi	a3,a5,15
    7e16:	e299                	bnez	a3,7e1c <__lo0bits+0x4a>
    7e18:	0711                	addi	a4,a4,4
    7e1a:	8391                	srli	a5,a5,0x4
    7e1c:	0037f693          	andi	a3,a5,3
    7e20:	e299                	bnez	a3,7e26 <__lo0bits+0x54>
    7e22:	0709                	addi	a4,a4,2
    7e24:	8389                	srli	a5,a5,0x2
    7e26:	0017f693          	andi	a3,a5,1
    7e2a:	e681                	bnez	a3,7e32 <__lo0bits+0x60>
    7e2c:	8385                	srli	a5,a5,0x1
    7e2e:	0705                	addi	a4,a4,1
    7e30:	c399                	beqz	a5,7e36 <__lo0bits+0x64>
    7e32:	c11c                	sw	a5,0(a0)
    7e34:	bf6d                	j	7dee <__lo0bits+0x1c>
    7e36:	02000713          	li	a4,32
    7e3a:	bf55                	j	7dee <__lo0bits+0x1c>

00007e3c <__i2b>:
__i2b():
    7e3c:	1141                	addi	sp,sp,-16
    7e3e:	c422                	sw	s0,8(sp)
    7e40:	842e                	mv	s0,a1
    7e42:	4585                	li	a1,1
    7e44:	c606                	sw	ra,12(sp)
    7e46:	de3ff0ef          	jal	ra,7c28 <_Balloc>
    7e4a:	c940                	sw	s0,20(a0)
    7e4c:	40b2                	lw	ra,12(sp)
    7e4e:	4422                	lw	s0,8(sp)
    7e50:	4705                	li	a4,1
    7e52:	c918                	sw	a4,16(a0)
    7e54:	0141                	addi	sp,sp,16
    7e56:	8082                	ret

00007e58 <__multiply>:
__multiply():
    7e58:	4998                	lw	a4,16(a1)
    7e5a:	4a1c                	lw	a5,16(a2)
    7e5c:	7179                	addi	sp,sp,-48
    7e5e:	d226                	sw	s1,36(sp)
    7e60:	d606                	sw	ra,44(sp)
    7e62:	d422                	sw	s0,40(sp)
    7e64:	d04a                	sw	s2,32(sp)
    7e66:	ce4e                	sw	s3,28(sp)
    7e68:	84ae                	mv	s1,a1
    7e6a:	00f75463          	bge	a4,a5,7e72 <__multiply+0x1a>
    7e6e:	84b2                	mv	s1,a2
    7e70:	862e                	mv	a2,a1
    7e72:	0104a983          	lw	s3,16(s1)
    7e76:	01062903          	lw	s2,16(a2) # 10010 <_data_lma+0x69ec>
    7e7a:	449c                	lw	a5,8(s1)
    7e7c:	40cc                	lw	a1,4(s1)
    7e7e:	01298433          	add	s0,s3,s2
    7e82:	0087d363          	bge	a5,s0,7e88 <__multiply+0x30>
    7e86:	0585                	addi	a1,a1,1
    7e88:	c632                	sw	a2,12(sp)
    7e8a:	d9fff0ef          	jal	ra,7c28 <_Balloc>
    7e8e:	4632                	lw	a2,12(sp)
    7e90:	01450813          	addi	a6,a0,20 # 10014 <_data_lma+0x69f0>
    7e94:	00241313          	slli	t1,s0,0x2
    7e98:	9342                	add	t1,t1,a6
    7e9a:	87c2                	mv	a5,a6
    7e9c:	0267ed63          	bltu	a5,t1,7ed6 <__multiply+0x7e>
    7ea0:	01448593          	addi	a1,s1,20
    7ea4:	00299893          	slli	a7,s3,0x2
    7ea8:	0651                	addi	a2,a2,20
    7eaa:	00291e13          	slli	t3,s2,0x2
    7eae:	66c1                	lui	a3,0x10
    7eb0:	98ae                	add	a7,a7,a1
    7eb2:	9e32                	add	t3,t3,a2
    7eb4:	16fd                	addi	a3,a3,-1
    7eb6:	03c66463          	bltu	a2,t3,7ede <__multiply+0x86>
    7eba:	00805663          	blez	s0,7ec6 <__multiply+0x6e>
    7ebe:	1371                	addi	t1,t1,-4
    7ec0:	00032783          	lw	a5,0(t1)
    7ec4:	cbf1                	beqz	a5,7f98 <__multiply+0x140>
    7ec6:	c900                	sw	s0,16(a0)
    7ec8:	50b2                	lw	ra,44(sp)
    7eca:	5422                	lw	s0,40(sp)
    7ecc:	5492                	lw	s1,36(sp)
    7ece:	5902                	lw	s2,32(sp)
    7ed0:	49f2                	lw	s3,28(sp)
    7ed2:	6145                	addi	sp,sp,48
    7ed4:	8082                	ret
    7ed6:	0007a023          	sw	zero,0(a5)
    7eda:	0791                	addi	a5,a5,4
    7edc:	b7c1                	j	7e9c <__multiply+0x44>
    7ede:	00062f83          	lw	t6,0(a2)
    7ee2:	00dfffb3          	and	t6,t6,a3
    7ee6:	040f8a63          	beqz	t6,7f3a <__multiply+0xe2>
    7eea:	8f42                	mv	t5,a6
    7eec:	82ae                	mv	t0,a1
    7eee:	4481                	li	s1,0
    7ef0:	0002a703          	lw	a4,0(t0)
    7ef4:	000f2383          	lw	t2,0(t5)
    7ef8:	0f11                	addi	t5,t5,4
    7efa:	00d77eb3          	and	t4,a4,a3
    7efe:	03fe8eb3          	mul	t4,t4,t6
    7f02:	00d3f7b3          	and	a5,t2,a3
    7f06:	0103d393          	srli	t2,t2,0x10
    7f0a:	0291                	addi	t0,t0,4
    7f0c:	9ebe                	add	t4,t4,a5
    7f0e:	01075793          	srli	a5,a4,0x10
    7f12:	03f787b3          	mul	a5,a5,t6
    7f16:	9ea6                	add	t4,t4,s1
    7f18:	010ed713          	srli	a4,t4,0x10
    7f1c:	00defeb3          	and	t4,t4,a3
    7f20:	979e                	add	a5,a5,t2
    7f22:	97ba                	add	a5,a5,a4
    7f24:	0107d493          	srli	s1,a5,0x10
    7f28:	07c2                	slli	a5,a5,0x10
    7f2a:	01d7e7b3          	or	a5,a5,t4
    7f2e:	feff2e23          	sw	a5,-4(t5)
    7f32:	fb12efe3          	bltu	t0,a7,7ef0 <__multiply+0x98>
    7f36:	009f2023          	sw	s1,0(t5)
    7f3a:	00265283          	lhu	t0,2(a2)
    7f3e:	04028a63          	beqz	t0,7f92 <__multiply+0x13a>
    7f42:	00082783          	lw	a5,0(a6)
    7f46:	8ec2                	mv	t4,a6
    7f48:	8f2e                	mv	t5,a1
    7f4a:	4f81                	li	t6,0
    7f4c:	000f2703          	lw	a4,0(t5)
    7f50:	002ed383          	lhu	t2,2(t4)
    7f54:	8ff5                	and	a5,a5,a3
    7f56:	8f75                	and	a4,a4,a3
    7f58:	02570733          	mul	a4,a4,t0
    7f5c:	0e91                	addi	t4,t4,4
    7f5e:	0f11                	addi	t5,t5,4
    7f60:	971e                	add	a4,a4,t2
    7f62:	977e                	add	a4,a4,t6
    7f64:	01071f93          	slli	t6,a4,0x10
    7f68:	00ffe7b3          	or	a5,t6,a5
    7f6c:	fefeae23          	sw	a5,-4(t4)
    7f70:	ffef5783          	lhu	a5,-2(t5)
    7f74:	000eaf83          	lw	t6,0(t4)
    7f78:	8341                	srli	a4,a4,0x10
    7f7a:	025787b3          	mul	a5,a5,t0
    7f7e:	00dfffb3          	and	t6,t6,a3
    7f82:	97fe                	add	a5,a5,t6
    7f84:	97ba                	add	a5,a5,a4
    7f86:	0107df93          	srli	t6,a5,0x10
    7f8a:	fd1f61e3          	bltu	t5,a7,7f4c <__multiply+0xf4>
    7f8e:	00fea023          	sw	a5,0(t4)
    7f92:	0611                	addi	a2,a2,4
    7f94:	0811                	addi	a6,a6,4
    7f96:	b705                	j	7eb6 <__multiply+0x5e>
    7f98:	147d                	addi	s0,s0,-1
    7f9a:	b705                	j	7eba <__multiply+0x62>

00007f9c <__pow5mult>:
__pow5mult():
    7f9c:	1101                	addi	sp,sp,-32
    7f9e:	ca26                	sw	s1,20(sp)
    7fa0:	c84a                	sw	s2,16(sp)
    7fa2:	c64e                	sw	s3,12(sp)
    7fa4:	ce06                	sw	ra,28(sp)
    7fa6:	cc22                	sw	s0,24(sp)
    7fa8:	c452                	sw	s4,8(sp)
    7faa:	00367793          	andi	a5,a2,3
    7fae:	892a                	mv	s2,a0
    7fb0:	84b2                	mv	s1,a2
    7fb2:	89ae                	mv	s3,a1
    7fb4:	cf89                	beqz	a5,7fce <__pow5mult+0x32>
    7fb6:	17fd                	addi	a5,a5,-1
    7fb8:	00001717          	auipc	a4,0x1
    7fbc:	53870713          	addi	a4,a4,1336 # 94f0 <p05.3319>
    7fc0:	078a                	slli	a5,a5,0x2
    7fc2:	97ba                	add	a5,a5,a4
    7fc4:	4390                	lw	a2,0(a5)
    7fc6:	4681                	li	a3,0
    7fc8:	d2dff0ef          	jal	ra,7cf4 <__multadd>
    7fcc:	89aa                	mv	s3,a0
    7fce:	8489                	srai	s1,s1,0x2
    7fd0:	cca5                	beqz	s1,8048 <__pow5mult+0xac>
    7fd2:	02492783          	lw	a5,36(s2)
    7fd6:	ef91                	bnez	a5,7ff2 <__pow5mult+0x56>
    7fd8:	4541                	li	a0,16
    7fda:	c29ff0ef          	jal	ra,7c02 <malloc>
    7fde:	02a92223          	sw	a0,36(s2)
    7fe2:	00052223          	sw	zero,4(a0)
    7fe6:	00052423          	sw	zero,8(a0)
    7fea:	00052023          	sw	zero,0(a0)
    7fee:	00052623          	sw	zero,12(a0)
    7ff2:	02492a03          	lw	s4,36(s2)
    7ff6:	008a2403          	lw	s0,8(s4)
    7ffa:	e819                	bnez	s0,8010 <__pow5mult+0x74>
    7ffc:	27100593          	li	a1,625
    8000:	854a                	mv	a0,s2
    8002:	e3bff0ef          	jal	ra,7e3c <__i2b>
    8006:	00aa2423          	sw	a0,8(s4)
    800a:	842a                	mv	s0,a0
    800c:	00052023          	sw	zero,0(a0)
    8010:	0014f793          	andi	a5,s1,1
    8014:	cf81                	beqz	a5,802c <__pow5mult+0x90>
    8016:	85ce                	mv	a1,s3
    8018:	8622                	mv	a2,s0
    801a:	854a                	mv	a0,s2
    801c:	e3dff0ef          	jal	ra,7e58 <__multiply>
    8020:	8a2a                	mv	s4,a0
    8022:	85ce                	mv	a1,s3
    8024:	854a                	mv	a0,s2
    8026:	c8bff0ef          	jal	ra,7cb0 <_Bfree>
    802a:	89d2                	mv	s3,s4
    802c:	8485                	srai	s1,s1,0x1
    802e:	cc89                	beqz	s1,8048 <__pow5mult+0xac>
    8030:	4008                	lw	a0,0(s0)
    8032:	e909                	bnez	a0,8044 <__pow5mult+0xa8>
    8034:	8622                	mv	a2,s0
    8036:	85a2                	mv	a1,s0
    8038:	854a                	mv	a0,s2
    803a:	e1fff0ef          	jal	ra,7e58 <__multiply>
    803e:	c008                	sw	a0,0(s0)
    8040:	00052023          	sw	zero,0(a0)
    8044:	842a                	mv	s0,a0
    8046:	b7e9                	j	8010 <__pow5mult+0x74>
    8048:	40f2                	lw	ra,28(sp)
    804a:	4462                	lw	s0,24(sp)
    804c:	854e                	mv	a0,s3
    804e:	44d2                	lw	s1,20(sp)
    8050:	4942                	lw	s2,16(sp)
    8052:	49b2                	lw	s3,12(sp)
    8054:	4a22                	lw	s4,8(sp)
    8056:	6105                	addi	sp,sp,32
    8058:	8082                	ret

0000805a <__lshift>:
__lshift():
    805a:	7179                	addi	sp,sp,-48
    805c:	d226                	sw	s1,36(sp)
    805e:	84ae                	mv	s1,a1
    8060:	ce4e                	sw	s3,28(sp)
    8062:	0104a983          	lw	s3,16(s1)
    8066:	d422                	sw	s0,40(sp)
    8068:	41cc                	lw	a1,4(a1)
    806a:	40565413          	srai	s0,a2,0x5
    806e:	449c                	lw	a5,8(s1)
    8070:	99a2                	add	s3,s3,s0
    8072:	d04a                	sw	s2,32(sp)
    8074:	ca56                	sw	s5,20(sp)
    8076:	d606                	sw	ra,44(sp)
    8078:	cc52                	sw	s4,24(sp)
    807a:	8aaa                	mv	s5,a0
    807c:	00198913          	addi	s2,s3,1
    8080:	0927c463          	blt	a5,s2,8108 <__lshift+0xae>
    8084:	8556                	mv	a0,s5
    8086:	c632                	sw	a2,12(sp)
    8088:	ba1ff0ef          	jal	ra,7c28 <_Balloc>
    808c:	4632                	lw	a2,12(sp)
    808e:	01450793          	addi	a5,a0,20
    8092:	8a2a                	mv	s4,a0
    8094:	86be                	mv	a3,a5
    8096:	4701                	li	a4,0
    8098:	0691                	addi	a3,a3,4
    809a:	06874a63          	blt	a4,s0,810e <__lshift+0xb4>
    809e:	00045363          	bgez	s0,80a4 <__lshift+0x4a>
    80a2:	4401                	li	s0,0
    80a4:	4894                	lw	a3,16(s1)
    80a6:	040a                	slli	s0,s0,0x2
    80a8:	00878733          	add	a4,a5,s0
    80ac:	068a                	slli	a3,a3,0x2
    80ae:	01448793          	addi	a5,s1,20
    80b2:	8a7d                	andi	a2,a2,31
    80b4:	96be                	add	a3,a3,a5
    80b6:	c225                	beqz	a2,8116 <__lshift+0xbc>
    80b8:	02000813          	li	a6,32
    80bc:	40c80833          	sub	a6,a6,a2
    80c0:	4581                	li	a1,0
    80c2:	4388                	lw	a0,0(a5)
    80c4:	0711                	addi	a4,a4,4
    80c6:	0791                	addi	a5,a5,4
    80c8:	00c51533          	sll	a0,a0,a2
    80cc:	8dc9                	or	a1,a1,a0
    80ce:	feb72e23          	sw	a1,-4(a4)
    80d2:	ffc7a583          	lw	a1,-4(a5)
    80d6:	0105d5b3          	srl	a1,a1,a6
    80da:	fed7e4e3          	bltu	a5,a3,80c2 <__lshift+0x68>
    80de:	c30c                	sw	a1,0(a4)
    80e0:	c199                	beqz	a1,80e6 <__lshift+0x8c>
    80e2:	00298913          	addi	s2,s3,2
    80e6:	197d                	addi	s2,s2,-1
    80e8:	012a2823          	sw	s2,16(s4)
    80ec:	8556                	mv	a0,s5
    80ee:	85a6                	mv	a1,s1
    80f0:	bc1ff0ef          	jal	ra,7cb0 <_Bfree>
    80f4:	50b2                	lw	ra,44(sp)
    80f6:	5422                	lw	s0,40(sp)
    80f8:	8552                	mv	a0,s4
    80fa:	5492                	lw	s1,36(sp)
    80fc:	5902                	lw	s2,32(sp)
    80fe:	49f2                	lw	s3,28(sp)
    8100:	4a62                	lw	s4,24(sp)
    8102:	4ad2                	lw	s5,20(sp)
    8104:	6145                	addi	sp,sp,48
    8106:	8082                	ret
    8108:	0585                	addi	a1,a1,1
    810a:	0786                	slli	a5,a5,0x1
    810c:	bf95                	j	8080 <__lshift+0x26>
    810e:	fe06ae23          	sw	zero,-4(a3) # fffc <_data_lma+0x69d8>
    8112:	0705                	addi	a4,a4,1
    8114:	b751                	j	8098 <__lshift+0x3e>
    8116:	0791                	addi	a5,a5,4
    8118:	ffc7a603          	lw	a2,-4(a5)
    811c:	0711                	addi	a4,a4,4
    811e:	fec72e23          	sw	a2,-4(a4)
    8122:	fed7eae3          	bltu	a5,a3,8116 <__lshift+0xbc>
    8126:	b7c1                	j	80e6 <__lshift+0x8c>

00008128 <__mcmp>:
__mcmp():
    8128:	491c                	lw	a5,16(a0)
    812a:	4998                	lw	a4,16(a1)
    812c:	8f99                	sub	a5,a5,a4
    812e:	e38d                	bnez	a5,8150 <__mcmp+0x28>
    8130:	070a                	slli	a4,a4,0x2
    8132:	0551                	addi	a0,a0,20
    8134:	05d1                	addi	a1,a1,20
    8136:	00e506b3          	add	a3,a0,a4
    813a:	95ba                	add	a1,a1,a4
    813c:	16f1                	addi	a3,a3,-4
    813e:	15f1                	addi	a1,a1,-4
    8140:	4290                	lw	a2,0(a3)
    8142:	4198                	lw	a4,0(a1)
    8144:	00e60863          	beq	a2,a4,8154 <__mcmp+0x2c>
    8148:	57fd                	li	a5,-1
    814a:	00e66363          	bltu	a2,a4,8150 <__mcmp+0x28>
    814e:	4785                	li	a5,1
    8150:	853e                	mv	a0,a5
    8152:	8082                	ret
    8154:	fed564e3          	bltu	a0,a3,813c <__mcmp+0x14>
    8158:	bfe5                	j	8150 <__mcmp+0x28>

0000815a <__mdiff>:
__mdiff():
    815a:	1101                	addi	sp,sp,-32
    815c:	ca26                	sw	s1,20(sp)
    815e:	84ae                	mv	s1,a1
    8160:	c64e                	sw	s3,12(sp)
    8162:	85b2                	mv	a1,a2
    8164:	89aa                	mv	s3,a0
    8166:	8526                	mv	a0,s1
    8168:	cc22                	sw	s0,24(sp)
    816a:	ce06                	sw	ra,28(sp)
    816c:	c84a                	sw	s2,16(sp)
    816e:	8432                	mv	s0,a2
    8170:	fb9ff0ef          	jal	ra,8128 <__mcmp>
    8174:	e105                	bnez	a0,8194 <__mdiff+0x3a>
    8176:	4581                	li	a1,0
    8178:	854e                	mv	a0,s3
    817a:	aafff0ef          	jal	ra,7c28 <_Balloc>
    817e:	4785                	li	a5,1
    8180:	c91c                	sw	a5,16(a0)
    8182:	00052a23          	sw	zero,20(a0)
    8186:	40f2                	lw	ra,28(sp)
    8188:	4462                	lw	s0,24(sp)
    818a:	44d2                	lw	s1,20(sp)
    818c:	4942                	lw	s2,16(sp)
    818e:	49b2                	lw	s3,12(sp)
    8190:	6105                	addi	sp,sp,32
    8192:	8082                	ret
    8194:	4905                	li	s2,1
    8196:	00054663          	bltz	a0,81a2 <__mdiff+0x48>
    819a:	87a2                	mv	a5,s0
    819c:	4901                	li	s2,0
    819e:	8426                	mv	s0,s1
    81a0:	84be                	mv	s1,a5
    81a2:	404c                	lw	a1,4(s0)
    81a4:	854e                	mv	a0,s3
    81a6:	a83ff0ef          	jal	ra,7c28 <_Balloc>
    81aa:	01042303          	lw	t1,16(s0)
    81ae:	0104a883          	lw	a7,16(s1)
    81b2:	01440613          	addi	a2,s0,20
    81b6:	00231e13          	slli	t3,t1,0x2
    81ba:	01448813          	addi	a6,s1,20
    81be:	088a                	slli	a7,a7,0x2
    81c0:	6ec1                	lui	t4,0x10
    81c2:	01252623          	sw	s2,12(a0)
    81c6:	9e32                	add	t3,t3,a2
    81c8:	98c2                	add	a7,a7,a6
    81ca:	01450693          	addi	a3,a0,20
    81ce:	4f01                	li	t5,0
    81d0:	1efd                	addi	t4,t4,-1
    81d2:	4218                	lw	a4,0(a2)
    81d4:	00082f83          	lw	t6,0(a6)
    81d8:	0691                	addi	a3,a3,4
    81da:	01d775b3          	and	a1,a4,t4
    81de:	01dff7b3          	and	a5,t6,t4
    81e2:	95fa                	add	a1,a1,t5
    81e4:	8d9d                	sub	a1,a1,a5
    81e6:	010fdf93          	srli	t6,t6,0x10
    81ea:	01075793          	srli	a5,a4,0x10
    81ee:	41f787b3          	sub	a5,a5,t6
    81f2:	4105d713          	srai	a4,a1,0x10
    81f6:	97ba                	add	a5,a5,a4
    81f8:	4107df13          	srai	t5,a5,0x10
    81fc:	01d5f5b3          	and	a1,a1,t4
    8200:	07c2                	slli	a5,a5,0x10
    8202:	8fcd                	or	a5,a5,a1
    8204:	0811                	addi	a6,a6,4
    8206:	fef6ae23          	sw	a5,-4(a3)
    820a:	0611                	addi	a2,a2,4
    820c:	fd1863e3          	bltu	a6,a7,81d2 <__mdiff+0x78>
    8210:	65c1                	lui	a1,0x10
    8212:	15fd                	addi	a1,a1,-1
    8214:	01c66863          	bltu	a2,t3,8224 <__mdiff+0xca>
    8218:	16f1                	addi	a3,a3,-4
    821a:	429c                	lw	a5,0(a3)
    821c:	c795                	beqz	a5,8248 <__mdiff+0xee>
    821e:	00652823          	sw	t1,16(a0)
    8222:	b795                	j	8186 <__mdiff+0x2c>
    8224:	421c                	lw	a5,0(a2)
    8226:	0691                	addi	a3,a3,4
    8228:	0611                	addi	a2,a2,4
    822a:	00b7f733          	and	a4,a5,a1
    822e:	977a                	add	a4,a4,t5
    8230:	41075813          	srai	a6,a4,0x10
    8234:	83c1                	srli	a5,a5,0x10
    8236:	97c2                	add	a5,a5,a6
    8238:	4107df13          	srai	t5,a5,0x10
    823c:	8f6d                	and	a4,a4,a1
    823e:	07c2                	slli	a5,a5,0x10
    8240:	8fd9                	or	a5,a5,a4
    8242:	fef6ae23          	sw	a5,-4(a3)
    8246:	b7f9                	j	8214 <__mdiff+0xba>
    8248:	137d                	addi	t1,t1,-1
    824a:	b7f9                	j	8218 <__mdiff+0xbe>

0000824c <__d2b>:
__d2b():
    824c:	7179                	addi	sp,sp,-48
    824e:	d422                	sw	s0,40(sp)
    8250:	842e                	mv	s0,a1
    8252:	4585                	li	a1,1
    8254:	d226                	sw	s1,36(sp)
    8256:	d04a                	sw	s2,32(sp)
    8258:	84b2                	mv	s1,a2
    825a:	ce4e                	sw	s3,28(sp)
    825c:	cc52                	sw	s4,24(sp)
    825e:	893a                	mv	s2,a4
    8260:	d606                	sw	ra,44(sp)
    8262:	8a36                	mv	s4,a3
    8264:	9c5ff0ef          	jal	ra,7c28 <_Balloc>
    8268:	00100737          	lui	a4,0x100
    826c:	fff70793          	addi	a5,a4,-1 # fffff <_data_lma+0xf69db>
    8270:	8fe5                	and	a5,a5,s1
    8272:	80d1                	srli	s1,s1,0x14
    8274:	7ff4f493          	andi	s1,s1,2047
    8278:	89aa                	mv	s3,a0
    827a:	e0b5                	bnez	s1,82de <__d2b+0x92>
    827c:	c63e                	sw	a5,12(sp)
    827e:	c42d                	beqz	s0,82e8 <__d2b+0x9c>
    8280:	0028                	addi	a0,sp,8
    8282:	c422                	sw	s0,8(sp)
    8284:	b4fff0ef          	jal	ra,7dd2 <__lo0bits>
    8288:	46a2                	lw	a3,8(sp)
    828a:	cd21                	beqz	a0,82e2 <__d2b+0x96>
    828c:	4732                	lw	a4,12(sp)
    828e:	02000793          	li	a5,32
    8292:	8f89                	sub	a5,a5,a0
    8294:	00f717b3          	sll	a5,a4,a5
    8298:	8fd5                	or	a5,a5,a3
    829a:	00a75733          	srl	a4,a4,a0
    829e:	00f9aa23          	sw	a5,20(s3)
    82a2:	c63a                	sw	a4,12(sp)
    82a4:	4432                	lw	s0,12(sp)
    82a6:	0089ac23          	sw	s0,24(s3)
    82aa:	00803433          	snez	s0,s0
    82ae:	0405                	addi	s0,s0,1
    82b0:	0089a823          	sw	s0,16(s3)
    82b4:	c4b9                	beqz	s1,8302 <__d2b+0xb6>
    82b6:	bcd48493          	addi	s1,s1,-1075
    82ba:	94aa                	add	s1,s1,a0
    82bc:	03500793          	li	a5,53
    82c0:	009a2023          	sw	s1,0(s4)
    82c4:	40a78533          	sub	a0,a5,a0
    82c8:	00a92023          	sw	a0,0(s2)
    82cc:	50b2                	lw	ra,44(sp)
    82ce:	5422                	lw	s0,40(sp)
    82d0:	854e                	mv	a0,s3
    82d2:	5492                	lw	s1,36(sp)
    82d4:	5902                	lw	s2,32(sp)
    82d6:	49f2                	lw	s3,28(sp)
    82d8:	4a62                	lw	s4,24(sp)
    82da:	6145                	addi	sp,sp,48
    82dc:	8082                	ret
    82de:	8fd9                	or	a5,a5,a4
    82e0:	bf71                	j	827c <__d2b+0x30>
    82e2:	00d9aa23          	sw	a3,20(s3)
    82e6:	bf7d                	j	82a4 <__d2b+0x58>
    82e8:	0068                	addi	a0,sp,12
    82ea:	ae9ff0ef          	jal	ra,7dd2 <__lo0bits>
    82ee:	47b2                	lw	a5,12(sp)
    82f0:	02050513          	addi	a0,a0,32
    82f4:	4405                	li	s0,1
    82f6:	00f9aa23          	sw	a5,20(s3)
    82fa:	4785                	li	a5,1
    82fc:	00f9a823          	sw	a5,16(s3)
    8300:	bf55                	j	82b4 <__d2b+0x68>
    8302:	00241793          	slli	a5,s0,0x2
    8306:	bce50513          	addi	a0,a0,-1074
    830a:	97ce                	add	a5,a5,s3
    830c:	00aa2023          	sw	a0,0(s4)
    8310:	4b88                	lw	a0,16(a5)
    8312:	0416                	slli	s0,s0,0x5
    8314:	a79ff0ef          	jal	ra,7d8c <__hi0bits>
    8318:	8c09                	sub	s0,s0,a0
    831a:	00892023          	sw	s0,0(s2)
    831e:	b77d                	j	82cc <__d2b+0x80>

00008320 <_calloc_r>:
_calloc_r():
    8320:	02c58633          	mul	a2,a1,a2
    8324:	1101                	addi	sp,sp,-32
    8326:	cc22                	sw	s0,24(sp)
    8328:	ce06                	sw	ra,28(sp)
    832a:	85b2                	mv	a1,a2
    832c:	c632                	sw	a2,12(sp)
    832e:	2875                	jal	83ea <_malloc_r>
    8330:	842a                	mv	s0,a0
    8332:	c509                	beqz	a0,833c <_calloc_r+0x1c>
    8334:	4632                	lw	a2,12(sp)
    8336:	4581                	li	a1,0
    8338:	eddf70ef          	jal	ra,214 <memset>
    833c:	8522                	mv	a0,s0
    833e:	40f2                	lw	ra,28(sp)
    8340:	4462                	lw	s0,24(sp)
    8342:	6105                	addi	sp,sp,32
    8344:	8082                	ret

00008346 <_free_r>:
_free_r():
    8346:	c1cd                	beqz	a1,83e8 <_free_r+0xa2>
    8348:	ffc5a783          	lw	a5,-4(a1) # fffc <_data_lma+0x69d8>
    834c:	1141                	addi	sp,sp,-16
    834e:	c422                	sw	s0,8(sp)
    8350:	c606                	sw	ra,12(sp)
    8352:	c226                	sw	s1,4(sp)
    8354:	ffc58413          	addi	s0,a1,-4
    8358:	0007d363          	bgez	a5,835e <_free_r+0x18>
    835c:	943e                	add	s0,s0,a5
    835e:	84aa                	mv	s1,a0
    8360:	2d99                	jal	89b6 <__malloc_lock>
    8362:	88418793          	addi	a5,gp,-1916 # 200002a4 <__malloc_free_list>
    8366:	439c                	lw	a5,0(a5)
    8368:	eb99                	bnez	a5,837e <_free_r+0x38>
    836a:	00042223          	sw	zero,4(s0)
    836e:	8881a223          	sw	s0,-1916(gp) # 200002a4 <__malloc_free_list>
    8372:	4422                	lw	s0,8(sp)
    8374:	40b2                	lw	ra,12(sp)
    8376:	8526                	mv	a0,s1
    8378:	4492                	lw	s1,4(sp)
    837a:	0141                	addi	sp,sp,16
    837c:	ad35                	j	89b8 <__malloc_unlock>
    837e:	00f47e63          	bgeu	s0,a5,839a <_free_r+0x54>
    8382:	4014                	lw	a3,0(s0)
    8384:	00d40733          	add	a4,s0,a3
    8388:	00e79663          	bne	a5,a4,8394 <_free_r+0x4e>
    838c:	4398                	lw	a4,0(a5)
    838e:	43dc                	lw	a5,4(a5)
    8390:	9736                	add	a4,a4,a3
    8392:	c018                	sw	a4,0(s0)
    8394:	c05c                	sw	a5,4(s0)
    8396:	bfe1                	j	836e <_free_r+0x28>
    8398:	87ba                	mv	a5,a4
    839a:	43d8                	lw	a4,4(a5)
    839c:	c319                	beqz	a4,83a2 <_free_r+0x5c>
    839e:	fee47de3          	bgeu	s0,a4,8398 <_free_r+0x52>
    83a2:	4394                	lw	a3,0(a5)
    83a4:	00d78633          	add	a2,a5,a3
    83a8:	00861f63          	bne	a2,s0,83c6 <_free_r+0x80>
    83ac:	4010                	lw	a2,0(s0)
    83ae:	96b2                	add	a3,a3,a2
    83b0:	c394                	sw	a3,0(a5)
    83b2:	00d78633          	add	a2,a5,a3
    83b6:	fac71ee3          	bne	a4,a2,8372 <_free_r+0x2c>
    83ba:	4310                	lw	a2,0(a4)
    83bc:	4358                	lw	a4,4(a4)
    83be:	96b2                	add	a3,a3,a2
    83c0:	c394                	sw	a3,0(a5)
    83c2:	c3d8                	sw	a4,4(a5)
    83c4:	b77d                	j	8372 <_free_r+0x2c>
    83c6:	00c47563          	bgeu	s0,a2,83d0 <_free_r+0x8a>
    83ca:	47b1                	li	a5,12
    83cc:	c09c                	sw	a5,0(s1)
    83ce:	b755                	j	8372 <_free_r+0x2c>
    83d0:	4010                	lw	a2,0(s0)
    83d2:	00c406b3          	add	a3,s0,a2
    83d6:	00d71663          	bne	a4,a3,83e2 <_free_r+0x9c>
    83da:	4314                	lw	a3,0(a4)
    83dc:	4358                	lw	a4,4(a4)
    83de:	96b2                	add	a3,a3,a2
    83e0:	c014                	sw	a3,0(s0)
    83e2:	c058                	sw	a4,4(s0)
    83e4:	c3c0                	sw	s0,4(a5)
    83e6:	b771                	j	8372 <_free_r+0x2c>
    83e8:	8082                	ret

000083ea <_malloc_r>:
_malloc_r():
    83ea:	1101                	addi	sp,sp,-32
    83ec:	ca26                	sw	s1,20(sp)
    83ee:	00358493          	addi	s1,a1,3
    83f2:	98f1                	andi	s1,s1,-4
    83f4:	ce06                	sw	ra,28(sp)
    83f6:	cc22                	sw	s0,24(sp)
    83f8:	c84a                	sw	s2,16(sp)
    83fa:	c64e                	sw	s3,12(sp)
    83fc:	04a1                	addi	s1,s1,8
    83fe:	47b1                	li	a5,12
    8400:	04f4f163          	bgeu	s1,a5,8442 <_malloc_r+0x58>
    8404:	44b1                	li	s1,12
    8406:	04b4e063          	bltu	s1,a1,8446 <_malloc_r+0x5c>
    840a:	892a                	mv	s2,a0
    840c:	236d                	jal	89b6 <__malloc_lock>
    840e:	88418793          	addi	a5,gp,-1916 # 200002a4 <__malloc_free_list>
    8412:	4398                	lw	a4,0(a5)
    8414:	843a                	mv	s0,a4
    8416:	e031                	bnez	s0,845a <_malloc_r+0x70>
    8418:	88818793          	addi	a5,gp,-1912 # 200002a8 <__malloc_sbrk_start>
    841c:	439c                	lw	a5,0(a5)
    841e:	e791                	bnez	a5,842a <_malloc_r+0x40>
    8420:	4581                	li	a1,0
    8422:	854a                	mv	a0,s2
    8424:	264d                	jal	87c6 <_sbrk_r>
    8426:	88a1a423          	sw	a0,-1912(gp) # 200002a8 <__malloc_sbrk_start>
    842a:	85a6                	mv	a1,s1
    842c:	854a                	mv	a0,s2
    842e:	2e61                	jal	87c6 <_sbrk_r>
    8430:	59fd                	li	s3,-1
    8432:	07351763          	bne	a0,s3,84a0 <_malloc_r+0xb6>
    8436:	47b1                	li	a5,12
    8438:	00f92023          	sw	a5,0(s2)
    843c:	854a                	mv	a0,s2
    843e:	2bad                	jal	89b8 <__malloc_unlock>
    8440:	a029                	j	844a <_malloc_r+0x60>
    8442:	fc04d2e3          	bgez	s1,8406 <_malloc_r+0x1c>
    8446:	47b1                	li	a5,12
    8448:	c11c                	sw	a5,0(a0)
    844a:	4501                	li	a0,0
    844c:	40f2                	lw	ra,28(sp)
    844e:	4462                	lw	s0,24(sp)
    8450:	44d2                	lw	s1,20(sp)
    8452:	4942                	lw	s2,16(sp)
    8454:	49b2                	lw	s3,12(sp)
    8456:	6105                	addi	sp,sp,32
    8458:	8082                	ret
    845a:	401c                	lw	a5,0(s0)
    845c:	8f85                	sub	a5,a5,s1
    845e:	0207ce63          	bltz	a5,849a <_malloc_r+0xb0>
    8462:	46ad                	li	a3,11
    8464:	00f6f663          	bgeu	a3,a5,8470 <_malloc_r+0x86>
    8468:	c01c                	sw	a5,0(s0)
    846a:	943e                	add	s0,s0,a5
    846c:	c004                	sw	s1,0(s0)
    846e:	a031                	j	847a <_malloc_r+0x90>
    8470:	405c                	lw	a5,4(s0)
    8472:	02871263          	bne	a4,s0,8496 <_malloc_r+0xac>
    8476:	88f1a223          	sw	a5,-1916(gp) # 200002a4 <__malloc_free_list>
    847a:	854a                	mv	a0,s2
    847c:	2b35                	jal	89b8 <__malloc_unlock>
    847e:	00b40513          	addi	a0,s0,11
    8482:	00440793          	addi	a5,s0,4
    8486:	9961                	andi	a0,a0,-8
    8488:	40f50733          	sub	a4,a0,a5
    848c:	d361                	beqz	a4,844c <_malloc_r+0x62>
    848e:	943a                	add	s0,s0,a4
    8490:	8f89                	sub	a5,a5,a0
    8492:	c01c                	sw	a5,0(s0)
    8494:	bf65                	j	844c <_malloc_r+0x62>
    8496:	c35c                	sw	a5,4(a4)
    8498:	b7cd                	j	847a <_malloc_r+0x90>
    849a:	8722                	mv	a4,s0
    849c:	4040                	lw	s0,4(s0)
    849e:	bfa5                	j	8416 <_malloc_r+0x2c>
    84a0:	00350413          	addi	s0,a0,3
    84a4:	9871                	andi	s0,s0,-4
    84a6:	fc8503e3          	beq	a0,s0,846c <_malloc_r+0x82>
    84aa:	40a405b3          	sub	a1,s0,a0
    84ae:	854a                	mv	a0,s2
    84b0:	2e19                	jal	87c6 <_sbrk_r>
    84b2:	fb351de3          	bne	a0,s3,846c <_malloc_r+0x82>
    84b6:	b741                	j	8436 <_malloc_r+0x4c>

000084b8 <__sfputc_r>:
__sfputc_r():
    84b8:	461c                	lw	a5,8(a2)
    84ba:	17fd                	addi	a5,a5,-1
    84bc:	c61c                	sw	a5,8(a2)
    84be:	0007da63          	bgez	a5,84d2 <__sfputc_r+0x1a>
    84c2:	4e18                	lw	a4,24(a2)
    84c4:	00e7c563          	blt	a5,a4,84ce <__sfputc_r+0x16>
    84c8:	47a9                	li	a5,10
    84ca:	00f59463          	bne	a1,a5,84d2 <__sfputc_r+0x1a>
    84ce:	b18fe06f          	j	67e6 <__swbuf_r>
    84d2:	421c                	lw	a5,0(a2)
    84d4:	852e                	mv	a0,a1
    84d6:	00178713          	addi	a4,a5,1
    84da:	c218                	sw	a4,0(a2)
    84dc:	00b78023          	sb	a1,0(a5)
    84e0:	8082                	ret

000084e2 <__sfputs_r>:
__sfputs_r():
    84e2:	1101                	addi	sp,sp,-32
    84e4:	cc22                	sw	s0,24(sp)
    84e6:	ca26                	sw	s1,20(sp)
    84e8:	c84a                	sw	s2,16(sp)
    84ea:	c64e                	sw	s3,12(sp)
    84ec:	c452                	sw	s4,8(sp)
    84ee:	ce06                	sw	ra,28(sp)
    84f0:	892a                	mv	s2,a0
    84f2:	89ae                	mv	s3,a1
    84f4:	8432                	mv	s0,a2
    84f6:	00d604b3          	add	s1,a2,a3
    84fa:	5a7d                	li	s4,-1
    84fc:	00941463          	bne	s0,s1,8504 <__sfputs_r+0x22>
    8500:	4501                	li	a0,0
    8502:	a811                	j	8516 <__sfputs_r+0x34>
    8504:	00044583          	lbu	a1,0(s0)
    8508:	864e                	mv	a2,s3
    850a:	854a                	mv	a0,s2
    850c:	fadff0ef          	jal	ra,84b8 <__sfputc_r>
    8510:	0405                	addi	s0,s0,1
    8512:	ff4515e3          	bne	a0,s4,84fc <__sfputs_r+0x1a>
    8516:	40f2                	lw	ra,28(sp)
    8518:	4462                	lw	s0,24(sp)
    851a:	44d2                	lw	s1,20(sp)
    851c:	4942                	lw	s2,16(sp)
    851e:	49b2                	lw	s3,12(sp)
    8520:	4a22                	lw	s4,8(sp)
    8522:	6105                	addi	sp,sp,32
    8524:	8082                	ret

00008526 <_vfiprintf_r>:
_vfiprintf_r():
    8526:	7135                	addi	sp,sp,-160
    8528:	cd22                	sw	s0,152(sp)
    852a:	cb26                	sw	s1,148(sp)
    852c:	c94a                	sw	s2,144(sp)
    852e:	c74e                	sw	s3,140(sp)
    8530:	cf06                	sw	ra,156(sp)
    8532:	c552                	sw	s4,136(sp)
    8534:	c356                	sw	s5,132(sp)
    8536:	c15a                	sw	s6,128(sp)
    8538:	dede                	sw	s7,124(sp)
    853a:	dce2                	sw	s8,120(sp)
    853c:	dae6                	sw	s9,116(sp)
    853e:	89aa                	mv	s3,a0
    8540:	84ae                	mv	s1,a1
    8542:	8932                	mv	s2,a2
    8544:	8436                	mv	s0,a3
    8546:	c509                	beqz	a0,8550 <_vfiprintf_r+0x2a>
    8548:	4d1c                	lw	a5,24(a0)
    854a:	e399                	bnez	a5,8550 <_vfiprintf_r+0x2a>
    854c:	c2aff0ef          	jal	ra,7976 <__sinit>
    8550:	00001797          	auipc	a5,0x1
    8554:	e7078793          	addi	a5,a5,-400 # 93c0 <__sf_fake_stdin>
    8558:	0cf49d63          	bne	s1,a5,8632 <_vfiprintf_r+0x10c>
    855c:	0049a483          	lw	s1,4(s3)
    8560:	00c4d783          	lhu	a5,12(s1)
    8564:	8ba1                	andi	a5,a5,8
    8566:	cbe5                	beqz	a5,8656 <_vfiprintf_r+0x130>
    8568:	489c                	lw	a5,16(s1)
    856a:	c7f5                	beqz	a5,8656 <_vfiprintf_r+0x130>
    856c:	02000793          	li	a5,32
    8570:	02f104a3          	sb	a5,41(sp)
    8574:	03000793          	li	a5,48
    8578:	d202                	sw	zero,36(sp)
    857a:	02f10523          	sb	a5,42(sp)
    857e:	c622                	sw	s0,12(sp)
    8580:	02500b93          	li	s7,37
    8584:	00001a97          	auipc	s5,0x1
    8588:	f78a8a93          	addi	s5,s5,-136 # 94fc <p05.3319+0xc>
    858c:	4c05                	li	s8,1
    858e:	4b29                	li	s6,10
    8590:	844a                	mv	s0,s2
    8592:	00044783          	lbu	a5,0(s0)
    8596:	c399                	beqz	a5,859c <_vfiprintf_r+0x76>
    8598:	0f779263          	bne	a5,s7,867c <_vfiprintf_r+0x156>
    859c:	41240cb3          	sub	s9,s0,s2
    85a0:	000c8e63          	beqz	s9,85bc <_vfiprintf_r+0x96>
    85a4:	86e6                	mv	a3,s9
    85a6:	864a                	mv	a2,s2
    85a8:	85a6                	mv	a1,s1
    85aa:	854e                	mv	a0,s3
    85ac:	f37ff0ef          	jal	ra,84e2 <__sfputs_r>
    85b0:	57fd                	li	a5,-1
    85b2:	1ef50763          	beq	a0,a5,87a0 <_vfiprintf_r+0x27a>
    85b6:	5692                	lw	a3,36(sp)
    85b8:	96e6                	add	a3,a3,s9
    85ba:	d236                	sw	a3,36(sp)
    85bc:	00044783          	lbu	a5,0(s0)
    85c0:	1e078063          	beqz	a5,87a0 <_vfiprintf_r+0x27a>
    85c4:	57fd                	li	a5,-1
    85c6:	00140913          	addi	s2,s0,1
    85ca:	c802                	sw	zero,16(sp)
    85cc:	ce02                	sw	zero,28(sp)
    85ce:	ca3e                	sw	a5,20(sp)
    85d0:	cc02                	sw	zero,24(sp)
    85d2:	040109a3          	sb	zero,83(sp)
    85d6:	d482                	sw	zero,104(sp)
    85d8:	00094583          	lbu	a1,0(s2)
    85dc:	4615                	li	a2,5
    85de:	8556                	mv	a0,s5
    85e0:	e2eff0ef          	jal	ra,7c0e <memchr>
    85e4:	00190413          	addi	s0,s2,1
    85e8:	47c2                	lw	a5,16(sp)
    85ea:	e959                	bnez	a0,8680 <_vfiprintf_r+0x15a>
    85ec:	0107f713          	andi	a4,a5,16
    85f0:	c709                	beqz	a4,85fa <_vfiprintf_r+0xd4>
    85f2:	02000713          	li	a4,32
    85f6:	04e109a3          	sb	a4,83(sp)
    85fa:	0087f713          	andi	a4,a5,8
    85fe:	c709                	beqz	a4,8608 <_vfiprintf_r+0xe2>
    8600:	02b00713          	li	a4,43
    8604:	04e109a3          	sb	a4,83(sp)
    8608:	00094683          	lbu	a3,0(s2)
    860c:	02a00713          	li	a4,42
    8610:	08e68063          	beq	a3,a4,8690 <_vfiprintf_r+0x16a>
    8614:	47f2                	lw	a5,28(sp)
    8616:	844a                	mv	s0,s2
    8618:	4681                	li	a3,0
    861a:	4625                	li	a2,9
    861c:	00044703          	lbu	a4,0(s0)
    8620:	00140593          	addi	a1,s0,1
    8624:	fd070713          	addi	a4,a4,-48
    8628:	0ae67963          	bgeu	a2,a4,86da <_vfiprintf_r+0x1b4>
    862c:	cab5                	beqz	a3,86a0 <_vfiprintf_r+0x17a>
    862e:	ce3e                	sw	a5,28(sp)
    8630:	a885                	j	86a0 <_vfiprintf_r+0x17a>
    8632:	00001797          	auipc	a5,0x1
    8636:	dae78793          	addi	a5,a5,-594 # 93e0 <__sf_fake_stdout>
    863a:	00f49563          	bne	s1,a5,8644 <_vfiprintf_r+0x11e>
    863e:	0089a483          	lw	s1,8(s3)
    8642:	bf39                	j	8560 <_vfiprintf_r+0x3a>
    8644:	00001797          	auipc	a5,0x1
    8648:	d5c78793          	addi	a5,a5,-676 # 93a0 <__sf_fake_stderr>
    864c:	f0f49ae3          	bne	s1,a5,8560 <_vfiprintf_r+0x3a>
    8650:	00c9a483          	lw	s1,12(s3)
    8654:	b731                	j	8560 <_vfiprintf_r+0x3a>
    8656:	85a6                	mv	a1,s1
    8658:	854e                	mv	a0,s3
    865a:	a52fe0ef          	jal	ra,68ac <__swsetup_r>
    865e:	d519                	beqz	a0,856c <_vfiprintf_r+0x46>
    8660:	557d                	li	a0,-1
    8662:	40fa                	lw	ra,156(sp)
    8664:	446a                	lw	s0,152(sp)
    8666:	44da                	lw	s1,148(sp)
    8668:	494a                	lw	s2,144(sp)
    866a:	49ba                	lw	s3,140(sp)
    866c:	4a2a                	lw	s4,136(sp)
    866e:	4a9a                	lw	s5,132(sp)
    8670:	4b0a                	lw	s6,128(sp)
    8672:	5bf6                	lw	s7,124(sp)
    8674:	5c66                	lw	s8,120(sp)
    8676:	5cd6                	lw	s9,116(sp)
    8678:	610d                	addi	sp,sp,160
    867a:	8082                	ret
    867c:	0405                	addi	s0,s0,1
    867e:	bf11                	j	8592 <_vfiprintf_r+0x6c>
    8680:	41550533          	sub	a0,a0,s5
    8684:	00ac1533          	sll	a0,s8,a0
    8688:	8fc9                	or	a5,a5,a0
    868a:	c83e                	sw	a5,16(sp)
    868c:	8922                	mv	s2,s0
    868e:	b7a9                	j	85d8 <_vfiprintf_r+0xb2>
    8690:	4732                	lw	a4,12(sp)
    8692:	00470693          	addi	a3,a4,4
    8696:	4318                	lw	a4,0(a4)
    8698:	c636                	sw	a3,12(sp)
    869a:	02074963          	bltz	a4,86cc <_vfiprintf_r+0x1a6>
    869e:	ce3a                	sw	a4,28(sp)
    86a0:	00044703          	lbu	a4,0(s0)
    86a4:	02e00793          	li	a5,46
    86a8:	04f71f63          	bne	a4,a5,8706 <_vfiprintf_r+0x1e0>
    86ac:	00144703          	lbu	a4,1(s0)
    86b0:	02a00793          	li	a5,42
    86b4:	02f71b63          	bne	a4,a5,86ea <_vfiprintf_r+0x1c4>
    86b8:	47b2                	lw	a5,12(sp)
    86ba:	0409                	addi	s0,s0,2
    86bc:	00478713          	addi	a4,a5,4
    86c0:	439c                	lw	a5,0(a5)
    86c2:	c63a                	sw	a4,12(sp)
    86c4:	0207c163          	bltz	a5,86e6 <_vfiprintf_r+0x1c0>
    86c8:	ca3e                	sw	a5,20(sp)
    86ca:	a835                	j	8706 <_vfiprintf_r+0x1e0>
    86cc:	40e00733          	neg	a4,a4
    86d0:	0027e793          	ori	a5,a5,2
    86d4:	ce3a                	sw	a4,28(sp)
    86d6:	c83e                	sw	a5,16(sp)
    86d8:	b7e1                	j	86a0 <_vfiprintf_r+0x17a>
    86da:	036787b3          	mul	a5,a5,s6
    86de:	4685                	li	a3,1
    86e0:	842e                	mv	s0,a1
    86e2:	97ba                	add	a5,a5,a4
    86e4:	bf25                	j	861c <_vfiprintf_r+0xf6>
    86e6:	57fd                	li	a5,-1
    86e8:	b7c5                	j	86c8 <_vfiprintf_r+0x1a2>
    86ea:	0405                	addi	s0,s0,1
    86ec:	ca02                	sw	zero,20(sp)
    86ee:	4681                	li	a3,0
    86f0:	4781                	li	a5,0
    86f2:	4625                	li	a2,9
    86f4:	00044703          	lbu	a4,0(s0)
    86f8:	00140593          	addi	a1,s0,1
    86fc:	fd070713          	addi	a4,a4,-48
    8700:	06e67863          	bgeu	a2,a4,8770 <_vfiprintf_r+0x24a>
    8704:	f2f1                	bnez	a3,86c8 <_vfiprintf_r+0x1a2>
    8706:	00044583          	lbu	a1,0(s0)
    870a:	460d                	li	a2,3
    870c:	00001517          	auipc	a0,0x1
    8710:	df850513          	addi	a0,a0,-520 # 9504 <p05.3319+0x14>
    8714:	cfaff0ef          	jal	ra,7c0e <memchr>
    8718:	cd11                	beqz	a0,8734 <_vfiprintf_r+0x20e>
    871a:	00001797          	auipc	a5,0x1
    871e:	dea78793          	addi	a5,a5,-534 # 9504 <p05.3319+0x14>
    8722:	8d1d                	sub	a0,a0,a5
    8724:	04000793          	li	a5,64
    8728:	00a797b3          	sll	a5,a5,a0
    872c:	4542                	lw	a0,16(sp)
    872e:	0405                	addi	s0,s0,1
    8730:	8d5d                	or	a0,a0,a5
    8732:	c82a                	sw	a0,16(sp)
    8734:	00044583          	lbu	a1,0(s0)
    8738:	4619                	li	a2,6
    873a:	00001517          	auipc	a0,0x1
    873e:	dce50513          	addi	a0,a0,-562 # 9508 <p05.3319+0x18>
    8742:	00140913          	addi	s2,s0,1
    8746:	02b10423          	sb	a1,40(sp)
    874a:	cc4ff0ef          	jal	ra,7c0e <memchr>
    874e:	c12d                	beqz	a0,87b0 <_vfiprintf_r+0x28a>
    8750:	ffffd797          	auipc	a5,0xffffd
    8754:	6dc78793          	addi	a5,a5,1756 # 5e2c <_printf_float>
    8758:	e795                	bnez	a5,8784 <_vfiprintf_r+0x25e>
    875a:	4742                	lw	a4,16(sp)
    875c:	47b2                	lw	a5,12(sp)
    875e:	10077713          	andi	a4,a4,256
    8762:	cf09                	beqz	a4,877c <_vfiprintf_r+0x256>
    8764:	0791                	addi	a5,a5,4
    8766:	c63e                	sw	a5,12(sp)
    8768:	5792                	lw	a5,36(sp)
    876a:	97d2                	add	a5,a5,s4
    876c:	d23e                	sw	a5,36(sp)
    876e:	b50d                	j	8590 <_vfiprintf_r+0x6a>
    8770:	036787b3          	mul	a5,a5,s6
    8774:	4685                	li	a3,1
    8776:	842e                	mv	s0,a1
    8778:	97ba                	add	a5,a5,a4
    877a:	bfad                	j	86f4 <_vfiprintf_r+0x1ce>
    877c:	079d                	addi	a5,a5,7
    877e:	9be1                	andi	a5,a5,-8
    8780:	07a1                	addi	a5,a5,8
    8782:	b7d5                	j	8766 <_vfiprintf_r+0x240>
    8784:	0078                	addi	a4,sp,12
    8786:	00000697          	auipc	a3,0x0
    878a:	d5c68693          	addi	a3,a3,-676 # 84e2 <__sfputs_r>
    878e:	8626                	mv	a2,s1
    8790:	080c                	addi	a1,sp,16
    8792:	854e                	mv	a0,s3
    8794:	e98fd0ef          	jal	ra,5e2c <_printf_float>
    8798:	57fd                	li	a5,-1
    879a:	8a2a                	mv	s4,a0
    879c:	fcf516e3          	bne	a0,a5,8768 <_vfiprintf_r+0x242>
    87a0:	00c4d783          	lhu	a5,12(s1)
    87a4:	0407f793          	andi	a5,a5,64
    87a8:	ea079ce3          	bnez	a5,8660 <_vfiprintf_r+0x13a>
    87ac:	5512                	lw	a0,36(sp)
    87ae:	bd55                	j	8662 <_vfiprintf_r+0x13c>
    87b0:	0078                	addi	a4,sp,12
    87b2:	00000697          	auipc	a3,0x0
    87b6:	d3068693          	addi	a3,a3,-720 # 84e2 <__sfputs_r>
    87ba:	8626                	mv	a2,s1
    87bc:	080c                	addi	a1,sp,16
    87be:	854e                	mv	a0,s3
    87c0:	c3dfd0ef          	jal	ra,63fc <_printf_i>
    87c4:	bfd1                	j	8798 <_vfiprintf_r+0x272>

000087c6 <_sbrk_r>:
_sbrk_r():
    87c6:	1141                	addi	sp,sp,-16
    87c8:	c422                	sw	s0,8(sp)
    87ca:	842a                	mv	s0,a0
    87cc:	852e                	mv	a0,a1
    87ce:	ce01a023          	sw	zero,-800(gp) # 20000700 <errno>
    87d2:	c606                	sw	ra,12(sp)
    87d4:	2bf9                	jal	8db2 <_sbrk>
    87d6:	57fd                	li	a5,-1
    87d8:	00f51763          	bne	a0,a5,87e6 <_sbrk_r+0x20>
    87dc:	ce018793          	addi	a5,gp,-800 # 20000700 <errno>
    87e0:	439c                	lw	a5,0(a5)
    87e2:	c391                	beqz	a5,87e6 <_sbrk_r+0x20>
    87e4:	c01c                	sw	a5,0(s0)
    87e6:	40b2                	lw	ra,12(sp)
    87e8:	4422                	lw	s0,8(sp)
    87ea:	0141                	addi	sp,sp,16
    87ec:	8082                	ret

000087ee <__sread>:
__sread():
    87ee:	1141                	addi	sp,sp,-16
    87f0:	c422                	sw	s0,8(sp)
    87f2:	842e                	mv	s0,a1
    87f4:	00e59583          	lh	a1,14(a1)
    87f8:	c606                	sw	ra,12(sp)
    87fa:	22c1                	jal	89ba <_read_r>
    87fc:	00054963          	bltz	a0,880e <__sread+0x20>
    8800:	487c                	lw	a5,84(s0)
    8802:	97aa                	add	a5,a5,a0
    8804:	c87c                	sw	a5,84(s0)
    8806:	40b2                	lw	ra,12(sp)
    8808:	4422                	lw	s0,8(sp)
    880a:	0141                	addi	sp,sp,16
    880c:	8082                	ret
    880e:	00c45783          	lhu	a5,12(s0)
    8812:	777d                	lui	a4,0xfffff
    8814:	177d                	addi	a4,a4,-1
    8816:	8ff9                	and	a5,a5,a4
    8818:	00f41623          	sh	a5,12(s0)
    881c:	b7ed                	j	8806 <__sread+0x18>

0000881e <__swrite>:
__swrite():
    881e:	00c5d783          	lhu	a5,12(a1)
    8822:	1101                	addi	sp,sp,-32
    8824:	cc22                	sw	s0,24(sp)
    8826:	ca26                	sw	s1,20(sp)
    8828:	c84a                	sw	s2,16(sp)
    882a:	c64e                	sw	s3,12(sp)
    882c:	ce06                	sw	ra,28(sp)
    882e:	1007f793          	andi	a5,a5,256
    8832:	84aa                	mv	s1,a0
    8834:	842e                	mv	s0,a1
    8836:	8932                	mv	s2,a2
    8838:	89b6                	mv	s3,a3
    883a:	c791                	beqz	a5,8846 <__swrite+0x28>
    883c:	00e59583          	lh	a1,14(a1)
    8840:	4689                	li	a3,2
    8842:	4601                	li	a2,0
    8844:	2231                	jal	8950 <_lseek_r>
    8846:	00c45783          	lhu	a5,12(s0)
    884a:	777d                	lui	a4,0xfffff
    884c:	177d                	addi	a4,a4,-1
    884e:	8ff9                	and	a5,a5,a4
    8850:	00f41623          	sh	a5,12(s0)
    8854:	00e41583          	lh	a1,14(s0)
    8858:	4462                	lw	s0,24(sp)
    885a:	40f2                	lw	ra,28(sp)
    885c:	86ce                	mv	a3,s3
    885e:	864a                	mv	a2,s2
    8860:	49b2                	lw	s3,12(sp)
    8862:	4942                	lw	s2,16(sp)
    8864:	8526                	mv	a0,s1
    8866:	44d2                	lw	s1,20(sp)
    8868:	6105                	addi	sp,sp,32
    886a:	a83d                	j	88a8 <_write_r>

0000886c <__sseek>:
__sseek():
    886c:	1141                	addi	sp,sp,-16
    886e:	c422                	sw	s0,8(sp)
    8870:	842e                	mv	s0,a1
    8872:	00e59583          	lh	a1,14(a1)
    8876:	c606                	sw	ra,12(sp)
    8878:	28e1                	jal	8950 <_lseek_r>
    887a:	57fd                	li	a5,-1
    887c:	00c45703          	lhu	a4,12(s0)
    8880:	00f51b63          	bne	a0,a5,8896 <__sseek+0x2a>
    8884:	77fd                	lui	a5,0xfffff
    8886:	17fd                	addi	a5,a5,-1
    8888:	8ff9                	and	a5,a5,a4
    888a:	00f41623          	sh	a5,12(s0)
    888e:	40b2                	lw	ra,12(sp)
    8890:	4422                	lw	s0,8(sp)
    8892:	0141                	addi	sp,sp,16
    8894:	8082                	ret
    8896:	6785                	lui	a5,0x1
    8898:	8fd9                	or	a5,a5,a4
    889a:	00f41623          	sh	a5,12(s0)
    889e:	c868                	sw	a0,84(s0)
    88a0:	b7fd                	j	888e <__sseek+0x22>

000088a2 <__sclose>:
__sclose():
    88a2:	00e59583          	lh	a1,14(a1)
    88a6:	a805                	j	88d6 <_close_r>

000088a8 <_write_r>:
_write_r():
    88a8:	1141                	addi	sp,sp,-16
    88aa:	c422                	sw	s0,8(sp)
    88ac:	842a                	mv	s0,a0
    88ae:	852e                	mv	a0,a1
    88b0:	85b2                	mv	a1,a2
    88b2:	8636                	mv	a2,a3
    88b4:	ce01a023          	sw	zero,-800(gp) # 20000700 <errno>
    88b8:	c606                	sw	ra,12(sp)
    88ba:	a6ff80ef          	jal	ra,1328 <_write>
    88be:	57fd                	li	a5,-1
    88c0:	00f51763          	bne	a0,a5,88ce <_write_r+0x26>
    88c4:	ce018793          	addi	a5,gp,-800 # 20000700 <errno>
    88c8:	439c                	lw	a5,0(a5)
    88ca:	c391                	beqz	a5,88ce <_write_r+0x26>
    88cc:	c01c                	sw	a5,0(s0)
    88ce:	40b2                	lw	ra,12(sp)
    88d0:	4422                	lw	s0,8(sp)
    88d2:	0141                	addi	sp,sp,16
    88d4:	8082                	ret

000088d6 <_close_r>:
_close_r():
    88d6:	1141                	addi	sp,sp,-16
    88d8:	c422                	sw	s0,8(sp)
    88da:	842a                	mv	s0,a0
    88dc:	852e                	mv	a0,a1
    88de:	ce01a023          	sw	zero,-800(gp) # 20000700 <errno>
    88e2:	c606                	sw	ra,12(sp)
    88e4:	2949                	jal	8d76 <_close>
    88e6:	57fd                	li	a5,-1
    88e8:	00f51763          	bne	a0,a5,88f6 <_close_r+0x20>
    88ec:	ce018793          	addi	a5,gp,-800 # 20000700 <errno>
    88f0:	439c                	lw	a5,0(a5)
    88f2:	c391                	beqz	a5,88f6 <_close_r+0x20>
    88f4:	c01c                	sw	a5,0(s0)
    88f6:	40b2                	lw	ra,12(sp)
    88f8:	4422                	lw	s0,8(sp)
    88fa:	0141                	addi	sp,sp,16
    88fc:	8082                	ret

000088fe <_fstat_r>:
_fstat_r():
    88fe:	1141                	addi	sp,sp,-16
    8900:	c422                	sw	s0,8(sp)
    8902:	842a                	mv	s0,a0
    8904:	852e                	mv	a0,a1
    8906:	85b2                	mv	a1,a2
    8908:	ce01a023          	sw	zero,-800(gp) # 20000700 <errno>
    890c:	c606                	sw	ra,12(sp)
    890e:	2995                	jal	8d82 <_fstat>
    8910:	57fd                	li	a5,-1
    8912:	00f51763          	bne	a0,a5,8920 <_fstat_r+0x22>
    8916:	ce018793          	addi	a5,gp,-800 # 20000700 <errno>
    891a:	439c                	lw	a5,0(a5)
    891c:	c391                	beqz	a5,8920 <_fstat_r+0x22>
    891e:	c01c                	sw	a5,0(s0)
    8920:	40b2                	lw	ra,12(sp)
    8922:	4422                	lw	s0,8(sp)
    8924:	0141                	addi	sp,sp,16
    8926:	8082                	ret

00008928 <_isatty_r>:
_isatty_r():
    8928:	1141                	addi	sp,sp,-16
    892a:	c422                	sw	s0,8(sp)
    892c:	842a                	mv	s0,a0
    892e:	852e                	mv	a0,a1
    8930:	ce01a023          	sw	zero,-800(gp) # 20000700 <errno>
    8934:	c606                	sw	ra,12(sp)
    8936:	29a1                	jal	8d8e <_isatty>
    8938:	57fd                	li	a5,-1
    893a:	00f51763          	bne	a0,a5,8948 <_isatty_r+0x20>
    893e:	ce018793          	addi	a5,gp,-800 # 20000700 <errno>
    8942:	439c                	lw	a5,0(a5)
    8944:	c391                	beqz	a5,8948 <_isatty_r+0x20>
    8946:	c01c                	sw	a5,0(s0)
    8948:	40b2                	lw	ra,12(sp)
    894a:	4422                	lw	s0,8(sp)
    894c:	0141                	addi	sp,sp,16
    894e:	8082                	ret

00008950 <_lseek_r>:
_lseek_r():
    8950:	1141                	addi	sp,sp,-16
    8952:	c422                	sw	s0,8(sp)
    8954:	842a                	mv	s0,a0
    8956:	852e                	mv	a0,a1
    8958:	85b2                	mv	a1,a2
    895a:	8636                	mv	a2,a3
    895c:	ce01a023          	sw	zero,-800(gp) # 20000700 <errno>
    8960:	c606                	sw	ra,12(sp)
    8962:	2925                	jal	8d9a <_lseek>
    8964:	57fd                	li	a5,-1
    8966:	00f51763          	bne	a0,a5,8974 <_lseek_r+0x24>
    896a:	ce018793          	addi	a5,gp,-800 # 20000700 <errno>
    896e:	439c                	lw	a5,0(a5)
    8970:	c391                	beqz	a5,8974 <_lseek_r+0x24>
    8972:	c01c                	sw	a5,0(s0)
    8974:	40b2                	lw	ra,12(sp)
    8976:	4422                	lw	s0,8(sp)
    8978:	0141                	addi	sp,sp,16
    897a:	8082                	ret

0000897c <__ascii_mbtowc>:
__ascii_mbtowc():
    897c:	e185                	bnez	a1,899c <__ascii_mbtowc+0x20>
    897e:	1141                	addi	sp,sp,-16
    8980:	006c                	addi	a1,sp,12
    8982:	4501                	li	a0,0
    8984:	ca11                	beqz	a2,8998 <__ascii_mbtowc+0x1c>
    8986:	5579                	li	a0,-2
    8988:	ca81                	beqz	a3,8998 <__ascii_mbtowc+0x1c>
    898a:	00064783          	lbu	a5,0(a2)
    898e:	c19c                	sw	a5,0(a1)
    8990:	00064503          	lbu	a0,0(a2)
    8994:	00a03533          	snez	a0,a0
    8998:	0141                	addi	sp,sp,16
    899a:	8082                	ret
    899c:	4501                	li	a0,0
    899e:	ca19                	beqz	a2,89b4 <__ascii_mbtowc+0x38>
    89a0:	5579                	li	a0,-2
    89a2:	ca89                	beqz	a3,89b4 <__ascii_mbtowc+0x38>
    89a4:	00064783          	lbu	a5,0(a2)
    89a8:	c19c                	sw	a5,0(a1)
    89aa:	00064503          	lbu	a0,0(a2)
    89ae:	00a03533          	snez	a0,a0
    89b2:	8082                	ret
    89b4:	8082                	ret

000089b6 <__malloc_lock>:
__malloc_lock():
    89b6:	8082                	ret

000089b8 <__malloc_unlock>:
__malloc_unlock():
    89b8:	8082                	ret

000089ba <_read_r>:
_read_r():
    89ba:	1141                	addi	sp,sp,-16
    89bc:	c422                	sw	s0,8(sp)
    89be:	842a                	mv	s0,a0
    89c0:	852e                	mv	a0,a1
    89c2:	85b2                	mv	a1,a2
    89c4:	8636                	mv	a2,a3
    89c6:	ce01a023          	sw	zero,-800(gp) # 20000700 <errno>
    89ca:	c606                	sw	ra,12(sp)
    89cc:	2ee9                	jal	8da6 <_read>
    89ce:	57fd                	li	a5,-1
    89d0:	00f51763          	bne	a0,a5,89de <_read_r+0x24>
    89d4:	ce018793          	addi	a5,gp,-800 # 20000700 <errno>
    89d8:	439c                	lw	a5,0(a5)
    89da:	c391                	beqz	a5,89de <_read_r+0x24>
    89dc:	c01c                	sw	a5,0(s0)
    89de:	40b2                	lw	ra,12(sp)
    89e0:	4422                	lw	s0,8(sp)
    89e2:	0141                	addi	sp,sp,16
    89e4:	8082                	ret

000089e6 <__ascii_wctomb>:
__ascii_wctomb():
    89e6:	cd91                	beqz	a1,8a02 <__ascii_wctomb+0x1c>
    89e8:	0ff00793          	li	a5,255
    89ec:	00c7f763          	bgeu	a5,a2,89fa <__ascii_wctomb+0x14>
    89f0:	08a00793          	li	a5,138
    89f4:	c11c                	sw	a5,0(a0)
    89f6:	557d                	li	a0,-1
    89f8:	8082                	ret
    89fa:	00c58023          	sb	a2,0(a1)
    89fe:	4505                	li	a0,1
    8a00:	8082                	ret
    8a02:	4501                	li	a0,0
    8a04:	8082                	ret

00008a06 <__gedf2>:
__gtdf2():
    8a06:	0145d713          	srli	a4,a1,0x14
    8a0a:	001007b7          	lui	a5,0x100
    8a0e:	17fd                	addi	a5,a5,-1
    8a10:	0146d813          	srli	a6,a3,0x14
    8a14:	7ff77713          	andi	a4,a4,2047
    8a18:	7ff00893          	li	a7,2047
    8a1c:	00b7f333          	and	t1,a5,a1
    8a20:	8e2a                	mv	t3,a0
    8a22:	8ff5                	and	a5,a5,a3
    8a24:	81fd                	srli	a1,a1,0x1f
    8a26:	8eb2                	mv	t4,a2
    8a28:	7ff87813          	andi	a6,a6,2047
    8a2c:	82fd                	srli	a3,a3,0x1f
    8a2e:	03170863          	beq	a4,a7,8a5e <__gedf2+0x58>
    8a32:	03180063          	beq	a6,a7,8a52 <__gedf2+0x4c>
    8a36:	eb0d                	bnez	a4,8a68 <__gedf2+0x62>
    8a38:	00a368b3          	or	a7,t1,a0
    8a3c:	00081463          	bnez	a6,8a44 <__gedf2+0x3e>
    8a40:	8e5d                	or	a2,a2,a5
    8a42:	ca29                	beqz	a2,8a94 <__gedf2+0x8e>
    8a44:	04088563          	beqz	a7,8a8e <__gedf2+0x88>
    8a48:	02d58863          	beq	a1,a3,8a78 <__gedf2+0x72>
    8a4c:	4505                	li	a0,1
    8a4e:	ed95                	bnez	a1,8a8a <__gedf2+0x84>
    8a50:	8082                	ret
    8a52:	00c7e8b3          	or	a7,a5,a2
    8a56:	fe0880e3          	beqz	a7,8a36 <__gedf2+0x30>
    8a5a:	5579                	li	a0,-2
    8a5c:	8082                	ret
    8a5e:	00a36533          	or	a0,t1,a0
    8a62:	fd65                	bnez	a0,8a5a <__gedf2+0x54>
    8a64:	02e80c63          	beq	a6,a4,8a9c <__gedf2+0x96>
    8a68:	00081463          	bnez	a6,8a70 <__gedf2+0x6a>
    8a6c:	8e5d                	or	a2,a2,a5
    8a6e:	de79                	beqz	a2,8a4c <__gedf2+0x46>
    8a70:	fcd59ee3          	bne	a1,a3,8a4c <__gedf2+0x46>
    8a74:	fce84ce3          	blt	a6,a4,8a4c <__gedf2+0x46>
    8a78:	01074863          	blt	a4,a6,8a88 <__gedf2+0x82>
    8a7c:	fc67e8e3          	bltu	a5,t1,8a4c <__gedf2+0x46>
    8a80:	02f30363          	beq	t1,a5,8aa6 <__gedf2+0xa0>
    8a84:	00f37f63          	bgeu	t1,a5,8aa2 <__gedf2+0x9c>
    8a88:	e581                	bnez	a1,8a90 <__gedf2+0x8a>
    8a8a:	557d                	li	a0,-1
    8a8c:	8082                	ret
    8a8e:	def5                	beqz	a3,8a8a <__gedf2+0x84>
    8a90:	4505                	li	a0,1
    8a92:	8082                	ret
    8a94:	4501                	li	a0,0
    8a96:	fa089be3          	bnez	a7,8a4c <__gedf2+0x46>
    8a9a:	8082                	ret
    8a9c:	8e5d                	or	a2,a2,a5
    8a9e:	da69                	beqz	a2,8a70 <__gedf2+0x6a>
    8aa0:	bf6d                	j	8a5a <__gedf2+0x54>
    8aa2:	4501                	li	a0,0
    8aa4:	8082                	ret
    8aa6:	fbcee3e3          	bltu	t4,t3,8a4c <__gedf2+0x46>
    8aaa:	4501                	li	a0,0
    8aac:	fbde72e3          	bgeu	t3,t4,8a50 <__gedf2+0x4a>
    8ab0:	f1e5                	bnez	a1,8a90 <__gedf2+0x8a>
    8ab2:	bfe1                	j	8a8a <__gedf2+0x84>

00008ab4 <__unorddf2>:
__unorddf2():
    8ab4:	0145d713          	srli	a4,a1,0x14
    8ab8:	001007b7          	lui	a5,0x100
    8abc:	17fd                	addi	a5,a5,-1
    8abe:	fff74713          	not	a4,a4
    8ac2:	0146d813          	srli	a6,a3,0x14
    8ac6:	8dfd                	and	a1,a1,a5
    8ac8:	8ff5                	and	a5,a5,a3
    8aca:	01571693          	slli	a3,a4,0x15
    8ace:	7ff87813          	andi	a6,a6,2047
    8ad2:	ca99                	beqz	a3,8ae8 <__unorddf2+0x34>
    8ad4:	7ff00713          	li	a4,2047
    8ad8:	4501                	li	a0,0
    8ada:	00e80363          	beq	a6,a4,8ae0 <__unorddf2+0x2c>
    8ade:	8082                	ret
    8ae0:	8fd1                	or	a5,a5,a2
    8ae2:	00f03533          	snez	a0,a5
    8ae6:	8082                	ret
    8ae8:	8dc9                	or	a1,a1,a0
    8aea:	4505                	li	a0,1
    8aec:	d5e5                	beqz	a1,8ad4 <__unorddf2+0x20>
    8aee:	8082                	ret

00008af0 <__floatunsidf>:
__floatunsidf():
    8af0:	cd1d                	beqz	a0,8b2e <__floatunsidf+0x3e>
    8af2:	1141                	addi	sp,sp,-16
    8af4:	c422                	sw	s0,8(sp)
    8af6:	c606                	sw	ra,12(sp)
    8af8:	842a                	mv	s0,a0
    8afa:	88cfd0ef          	jal	ra,5b86 <__clzsi2>
    8afe:	41e00693          	li	a3,1054
    8b02:	8e89                	sub	a3,a3,a0
    8b04:	47a9                	li	a5,10
    8b06:	7ff6f693          	andi	a3,a3,2047
    8b0a:	02a7dc63          	bge	a5,a0,8b42 <__floatunsidf+0x52>
    8b0e:	1555                	addi	a0,a0,-11
    8b10:	00a417b3          	sll	a5,s0,a0
    8b14:	07b2                	slli	a5,a5,0xc
    8b16:	83b1                	srli	a5,a5,0xc
    8b18:	4701                	li	a4,0
    8b1a:	40b2                	lw	ra,12(sp)
    8b1c:	4422                	lw	s0,8(sp)
    8b1e:	07b2                	slli	a5,a5,0xc
    8b20:	06d2                	slli	a3,a3,0x14
    8b22:	83b1                	srli	a5,a5,0xc
    8b24:	8fd5                	or	a5,a5,a3
    8b26:	853a                	mv	a0,a4
    8b28:	85be                	mv	a1,a5
    8b2a:	0141                	addi	sp,sp,16
    8b2c:	8082                	ret
    8b2e:	4781                	li	a5,0
    8b30:	4681                	li	a3,0
    8b32:	07b2                	slli	a5,a5,0xc
    8b34:	06d2                	slli	a3,a3,0x14
    8b36:	83b1                	srli	a5,a5,0xc
    8b38:	4701                	li	a4,0
    8b3a:	8fd5                	or	a5,a5,a3
    8b3c:	853a                	mv	a0,a4
    8b3e:	85be                	mv	a1,a5
    8b40:	8082                	ret
    8b42:	472d                	li	a4,11
    8b44:	8f09                	sub	a4,a4,a0
    8b46:	00e457b3          	srl	a5,s0,a4
    8b4a:	07b2                	slli	a5,a5,0xc
    8b4c:	01550713          	addi	a4,a0,21
    8b50:	00e41733          	sll	a4,s0,a4
    8b54:	83b1                	srli	a5,a5,0xc
    8b56:	b7d1                	j	8b1a <__floatunsidf+0x2a>

00008b58 <__trunctfdf2>:
__trunctfdf2():
    8b58:	00c52803          	lw	a6,12(a0)
    8b5c:	4118                	lw	a4,0(a0)
    8b5e:	4154                	lw	a3,4(a0)
    8b60:	450c                	lw	a1,8(a0)
    8b62:	6521                	lui	a0,0x8
    8b64:	fff50793          	addi	a5,a0,-1 # 7fff <__pow5mult+0x63>
    8b68:	01085613          	srli	a2,a6,0x10
    8b6c:	00359e13          	slli	t3,a1,0x3
    8b70:	8e7d                	and	a2,a2,a5
    8b72:	01d75893          	srli	a7,a4,0x1d
    8b76:	01d6d793          	srli	a5,a3,0x1d
    8b7a:	01081313          	slli	t1,a6,0x10
    8b7e:	068e                	slli	a3,a3,0x3
    8b80:	1141                	addi	sp,sp,-16
    8b82:	01c7e7b3          	or	a5,a5,t3
    8b86:	0116e6b3          	or	a3,a3,a7
    8b8a:	01035313          	srli	t1,t1,0x10
    8b8e:	00371e13          	slli	t3,a4,0x3
    8b92:	00160893          	addi	a7,a2,1
    8b96:	1579                	addi	a0,a0,-2
    8b98:	81f5                	srli	a1,a1,0x1d
    8b9a:	030e                	slli	t1,t1,0x3
    8b9c:	c43e                	sw	a5,8(sp)
    8b9e:	c236                	sw	a3,4(sp)
    8ba0:	c072                	sw	t3,0(sp)
    8ba2:	00a8f533          	and	a0,a7,a0
    8ba6:	01f85813          	srli	a6,a6,0x1f
    8baa:	0065e5b3          	or	a1,a1,t1
    8bae:	c905                	beqz	a0,8bde <__trunctfdf2+0x86>
    8bb0:	7771                	lui	a4,0xffffc
    8bb2:	40070713          	addi	a4,a4,1024 # ffffc400 <_eusrstack+0xdffec400>
    8bb6:	963a                	add	a2,a2,a4
    8bb8:	7fe00713          	li	a4,2046
    8bbc:	04c75d63          	bge	a4,a2,8c16 <__trunctfdf2+0xbe>
    8bc0:	7ff00613          	li	a2,2047
    8bc4:	4701                	li	a4,0
    8bc6:	4781                	li	a5,0
    8bc8:	0732                	slli	a4,a4,0xc
    8bca:	0652                	slli	a2,a2,0x14
    8bcc:	8331                	srli	a4,a4,0xc
    8bce:	087e                	slli	a6,a6,0x1f
    8bd0:	8f51                	or	a4,a4,a2
    8bd2:	01076733          	or	a4,a4,a6
    8bd6:	853e                	mv	a0,a5
    8bd8:	85ba                	mv	a1,a4
    8bda:	0141                	addi	sp,sp,16
    8bdc:	8082                	ret
    8bde:	8fd5                	or	a5,a5,a3
    8be0:	8fcd                	or	a5,a5,a1
    8be2:	01c7e7b3          	or	a5,a5,t3
    8be6:	e205                	bnez	a2,8c06 <__trunctfdf2+0xae>
    8be8:	cbf1                	beqz	a5,8cbc <__trunctfdf2+0x164>
    8bea:	4781                	li	a5,0
    8bec:	4695                	li	a3,5
    8bee:	0036d593          	srli	a1,a3,0x3
    8bf2:	00979713          	slli	a4,a5,0x9
    8bf6:	01d79693          	slli	a3,a5,0x1d
    8bfa:	00b6e7b3          	or	a5,a3,a1
    8bfe:	8331                	srli	a4,a4,0xc
    8c00:	7ff67613          	andi	a2,a2,2047
    8c04:	b7d1                	j	8bc8 <__trunctfdf2+0x70>
    8c06:	dfcd                	beqz	a5,8bc0 <__trunctfdf2+0x68>
    8c08:	4801                	li	a6,0
    8c0a:	7ff00613          	li	a2,2047
    8c0e:	00080737          	lui	a4,0x80
    8c12:	4781                	li	a5,0
    8c14:	bf55                	j	8bc8 <__trunctfdf2+0x70>
    8c16:	0ac04663          	bgtz	a2,8cc2 <__trunctfdf2+0x16a>
    8c1a:	fcc00793          	li	a5,-52
    8c1e:	0ef64f63          	blt	a2,a5,8d1c <__trunctfdf2+0x1c4>
    8c22:	03d00793          	li	a5,61
    8c26:	40c78633          	sub	a2,a5,a2
    8c2a:	40565793          	srai	a5,a2,0x5
    8c2e:	00080737          	lui	a4,0x80
    8c32:	8dd9                	or	a1,a1,a4
    8c34:	00279513          	slli	a0,a5,0x2
    8c38:	870a                	mv	a4,sp
    8c3a:	4681                	li	a3,0
    8c3c:	c62e                	sw	a1,12(sp)
    8c3e:	00a108b3          	add	a7,sp,a0
    8c42:	0711                	addi	a4,a4,4
    8c44:	8a7d                	andi	a2,a2,31
    8c46:	01c6e6b3          	or	a3,a3,t3
    8c4a:	01170963          	beq	a4,a7,8c5c <__trunctfdf2+0x104>
    8c4e:	00072e03          	lw	t3,0(a4) # 80000 <_data_lma+0x769dc>
    8c52:	0711                	addi	a4,a4,4
    8c54:	01c6e6b3          	or	a3,a3,t3
    8c58:	ff171be3          	bne	a4,a7,8c4e <__trunctfdf2+0xf6>
    8c5c:	470d                	li	a4,3
    8c5e:	8f1d                	sub	a4,a4,a5
    8c60:	ca79                	beqz	a2,8d36 <__trunctfdf2+0x1de>
    8c62:	01010893          	addi	a7,sp,16
    8c66:	98aa                	add	a7,a7,a0
    8c68:	ff08a883          	lw	a7,-16(a7) # fff0 <_data_lma+0x69cc>
    8c6c:	02000e13          	li	t3,32
    8c70:	40ce0e33          	sub	t3,t3,a2
    8c74:	01c898b3          	sll	a7,a7,t3
    8c78:	0116e6b3          	or	a3,a3,a7
    8c7c:	cb75                	beqz	a4,8d70 <__trunctfdf2+0x218>
    8c7e:	070a                	slli	a4,a4,0x2
    8c80:	950a                	add	a0,a0,sp
    8c82:	00e10eb3          	add	t4,sp,a4
    8c86:	888a                	mv	a7,sp
    8c88:	410c                	lw	a1,0(a0)
    8c8a:	00452303          	lw	t1,4(a0)
    8c8e:	0891                	addi	a7,a7,4
    8c90:	00c5d5b3          	srl	a1,a1,a2
    8c94:	01c31333          	sll	t1,t1,t3
    8c98:	0065e5b3          	or	a1,a1,t1
    8c9c:	feb8ae23          	sw	a1,-4(a7)
    8ca0:	0511                	addi	a0,a0,4
    8ca2:	ff1e93e3          	bne	t4,a7,8c88 <__trunctfdf2+0x130>
    8ca6:	4591                	li	a1,4
    8ca8:	40f587b3          	sub	a5,a1,a5
    8cac:	45b2                	lw	a1,12(sp)
    8cae:	0808                	addi	a0,sp,16
    8cb0:	972a                	add	a4,a4,a0
    8cb2:	00c5d5b3          	srl	a1,a1,a2
    8cb6:	feb72823          	sw	a1,-16(a4)
    8cba:	a861                	j	8d52 <__trunctfdf2+0x1fa>
    8cbc:	4601                	li	a2,0
    8cbe:	4701                	li	a4,0
    8cc0:	b721                	j	8bc8 <__trunctfdf2+0x70>
    8cc2:	00469713          	slli	a4,a3,0x4
    8cc6:	00479513          	slli	a0,a5,0x4
    8cca:	01c76733          	or	a4,a4,t3
    8cce:	82f1                	srli	a3,a3,0x1c
    8cd0:	83f1                	srli	a5,a5,0x1c
    8cd2:	0592                	slli	a1,a1,0x4
    8cd4:	00e03733          	snez	a4,a4
    8cd8:	8ec9                	or	a3,a3,a0
    8cda:	8fcd                	or	a5,a5,a1
    8cdc:	8ed9                	or	a3,a3,a4
    8cde:	0076f713          	andi	a4,a3,7
    8ce2:	c711                	beqz	a4,8cee <__trunctfdf2+0x196>
    8ce4:	00f6f713          	andi	a4,a3,15
    8ce8:	4591                	li	a1,4
    8cea:	02b71c63          	bne	a4,a1,8d22 <__trunctfdf2+0x1ca>
    8cee:	00800737          	lui	a4,0x800
    8cf2:	8f7d                	and	a4,a4,a5
    8cf4:	ee070de3          	beqz	a4,8bee <__trunctfdf2+0x96>
    8cf8:	0605                	addi	a2,a2,1
    8cfa:	7ff00713          	li	a4,2047
    8cfe:	ece601e3          	beq	a2,a4,8bc0 <__trunctfdf2+0x68>
    8d02:	ff800737          	lui	a4,0xff800
    8d06:	177d                	addi	a4,a4,-1
    8d08:	8f7d                	and	a4,a4,a5
    8d0a:	01d71793          	slli	a5,a4,0x1d
    8d0e:	828d                	srli	a3,a3,0x3
    8d10:	0726                	slli	a4,a4,0x9
    8d12:	7ff67613          	andi	a2,a2,2047
    8d16:	8fd5                	or	a5,a5,a3
    8d18:	8331                	srli	a4,a4,0xc
    8d1a:	b57d                	j	8bc8 <__trunctfdf2+0x70>
    8d1c:	4685                	li	a3,1
    8d1e:	4781                	li	a5,0
    8d20:	4601                	li	a2,0
    8d22:	ffc6b713          	sltiu	a4,a3,-4
    8d26:	00174713          	xori	a4,a4,1
    8d2a:	97ba                	add	a5,a5,a4
    8d2c:	00800737          	lui	a4,0x800
    8d30:	0691                	addi	a3,a3,4
    8d32:	8f7d                	and	a4,a4,a5
    8d34:	b7c1                	j	8cf4 <__trunctfdf2+0x19c>
    8d36:	858a                	mv	a1,sp
    8d38:	00a588b3          	add	a7,a1,a0
    8d3c:	0008a883          	lw	a7,0(a7)
    8d40:	0591                	addi	a1,a1,4
    8d42:	0605                	addi	a2,a2,1
    8d44:	ff15ae23          	sw	a7,-4(a1)
    8d48:	fec758e3          	bge	a4,a2,8d38 <__trunctfdf2+0x1e0>
    8d4c:	4711                	li	a4,4
    8d4e:	40f707b3          	sub	a5,a4,a5
    8d52:	078a                	slli	a5,a5,0x2
    8d54:	978a                	add	a5,a5,sp
    8d56:	0818                	addi	a4,sp,16
    8d58:	0007a023          	sw	zero,0(a5) # 100000 <_data_lma+0xf69dc>
    8d5c:	0791                	addi	a5,a5,4
    8d5e:	fee79de3          	bne	a5,a4,8d58 <__trunctfdf2+0x200>
    8d62:	4702                	lw	a4,0(sp)
    8d64:	00d036b3          	snez	a3,a3
    8d68:	4792                	lw	a5,4(sp)
    8d6a:	8ed9                	or	a3,a3,a4
    8d6c:	4601                	li	a2,0
    8d6e:	bf85                	j	8cde <__trunctfdf2+0x186>
    8d70:	4785                	li	a5,1
    8d72:	4701                	li	a4,0
    8d74:	bf2d                	j	8cae <__trunctfdf2+0x156>

00008d76 <_close>:
_close():
    8d76:	05800793          	li	a5,88
    8d7a:	cef1a023          	sw	a5,-800(gp) # 20000700 <errno>
    8d7e:	557d                	li	a0,-1
    8d80:	8082                	ret

00008d82 <_fstat>:
_fstat():
    8d82:	05800793          	li	a5,88
    8d86:	cef1a023          	sw	a5,-800(gp) # 20000700 <errno>
    8d8a:	557d                	li	a0,-1
    8d8c:	8082                	ret

00008d8e <_isatty>:
_isatty():
    8d8e:	05800793          	li	a5,88
    8d92:	cef1a023          	sw	a5,-800(gp) # 20000700 <errno>
    8d96:	4501                	li	a0,0
    8d98:	8082                	ret

00008d9a <_lseek>:
_lseek():
    8d9a:	05800793          	li	a5,88
    8d9e:	cef1a023          	sw	a5,-800(gp) # 20000700 <errno>
    8da2:	557d                	li	a0,-1
    8da4:	8082                	ret

00008da6 <_read>:
_read():
    8da6:	05800793          	li	a5,88
    8daa:	cef1a023          	sw	a5,-800(gp) # 20000700 <errno>
    8dae:	557d                	li	a0,-1
    8db0:	8082                	ret

00008db2 <_sbrk>:
_sbrk():
    8db2:	88c18793          	addi	a5,gp,-1908 # 200002ac <heap_end.1518>
    8db6:	439c                	lw	a5,0(a5)
    8db8:	c791                	beqz	a5,8dc4 <_sbrk+0x12>
    8dba:	953e                	add	a0,a0,a5
    8dbc:	88a1a623          	sw	a0,-1908(gp) # 200002ac <heap_end.1518>
    8dc0:	853e                	mv	a0,a5
    8dc2:	8082                	ret
    8dc4:	ce418793          	addi	a5,gp,-796 # 20000704 <_ebss>
    8dc8:	953e                	add	a0,a0,a5
    8dca:	88a1a623          	sw	a0,-1908(gp) # 200002ac <heap_end.1518>
    8dce:	853e                	mv	a0,a5
    8dd0:	8082                	ret
    8dd2:	0000                	unimp
    8dd4:	0a0d                	addi	s4,s4,3
    8dd6:	4620                	lw	s0,72(a2)
    8dd8:	414c                	lw	a1,4(a0)
    8dda:	535f4853          	0x535f4853
    8dde:	4345                	li	t1,17
    8de0:	4954                	lw	a3,20(a0)
    8de2:	495f4e4f          	fnmadd.s	ft8,ft10,fs5,fs1,rmm
    8de6:	444e                	lw	s0,208(sp)
    8de8:	5845                	li	a6,-15
    8dea:	203a                	fld	ft0,392(sp)
    8dec:	6425                	lui	s0,0x9
    8dee:	202c                	fld	fa1,64(s0)
    8df0:	4c46                	lw	s8,80(sp)
    8df2:	5341                	li	t1,-16
    8df4:	5f48                	lw	a0,60(a4)
    8df6:	4150                	lw	a2,4(a0)
    8df8:	495f4547          	fmsub.s	fa0,ft10,fs5,fs1,rmm
    8dfc:	444e                	lw	s0,208(sp)
    8dfe:	5845                	li	a6,-15
    8e00:	203a                	fld	ft0,392(sp)
    8e02:	6425                	lui	s0,0x9
    8e04:	202c                	fld	fa1,64(s0)
    8e06:	6769726f          	jal	tp,a047c <_data_lma+0x96e58>
    8e0a:	6e69                	lui	t3,0x1a
    8e0c:	6420                	flw	fs0,72(s0)
    8e0e:	7461                	lui	s0,0xffff8
    8e10:	2061                	jal	8e98 <_sbrk+0xe6>
    8e12:	7369                	lui	t1,0xffffa
    8e14:	3a20                	fld	fs0,112(a2)
    8e16:	0000                	unimp
    8e18:	0a0d                	addi	s4,s4,3
    8e1a:	6620                	flw	fs0,72(a2)
    8e1c:	6f6c                	flw	fa1,92(a4)
    8e1e:	7461                	lui	s0,0xffff8
    8e20:	745f 7079 2065      	0x20657079745f
    8e26:	203a                	fld	ft0,392(sp)
    8e28:	6625                	lui	a2,0x9
    8e2a:	0000                	unimp
    8e2c:	0a0d                	addi	s4,s4,3
    8e2e:	7520                	flw	fs0,104(a0)
    8e30:	6e69                	lui	t3,0x1a
    8e32:	3374                	fld	fa3,224(a4)
    8e34:	5f32                	lw	t5,44(sp)
    8e36:	7974                	flw	fa3,116(a0)
    8e38:	6570                	flw	fa2,76(a0)
    8e3a:	203a                	fld	ft0,392(sp)
    8e3c:	7525                	lui	a0,0xfffe9
    8e3e:	0000                	unimp
    8e40:	0a0d                	addi	s4,s4,3
    8e42:	6920                	flw	fs0,80(a0)
    8e44:	746e                	flw	fs0,248(sp)
    8e46:	745f3233          	0x745f3233
    8e4a:	7079                	c.lui	zero,0xffffe
    8e4c:	2065                	jal	8ef4 <_sbrk+0x142>
    8e4e:	203a                	fld	ft0,392(sp)
    8e50:	6425                	lui	s0,0x9
    8e52:	0000                	unimp
    8e54:	0a0d                	addi	s4,s4,3
    8e56:	7520                	flw	fs0,104(a0)
    8e58:	6e69                	lui	t3,0x1a
    8e5a:	3174                	fld	fa3,224(a0)
    8e5c:	5f36                	lw	t5,108(sp)
    8e5e:	7974                	flw	fa3,116(a0)
    8e60:	6570                	flw	fa2,76(a0)
    8e62:	203a                	fld	ft0,392(sp)
    8e64:	7525                	lui	a0,0xfffe9
    8e66:	0000                	unimp
    8e68:	0a0d                	addi	s4,s4,3
    8e6a:	6920                	flw	fs0,80(a0)
    8e6c:	746e                	flw	fs0,248(sp)
    8e6e:	3631                	jal	897a <_lseek_r+0x2a>
    8e70:	745f 7079 2065      	0x20657079745f
    8e76:	203a                	fld	ft0,392(sp)
    8e78:	6425                	lui	s0,0x9
    8e7a:	0000                	unimp
    8e7c:	0a0d                	addi	s4,s4,3
    8e7e:	7520                	flw	fs0,104(a0)
    8e80:	6e69                	lui	t3,0x1a
    8e82:	3874                	fld	fa3,240(s0)
    8e84:	745f 7079 2065      	0x20657079745f
    8e8a:	203a                	fld	ft0,392(sp)
    8e8c:	7525                	lui	a0,0xfffe9
    8e8e:	0000                	unimp
    8e90:	0a0d                	addi	s4,s4,3
    8e92:	6920                	flw	fs0,80(a0)
    8e94:	746e                	flw	fs0,248(sp)
    8e96:	5f38                	lw	a4,120(a4)
    8e98:	7974                	flw	fa3,116(a0)
    8e9a:	6570                	flw	fa2,76(a0)
    8e9c:	2020                	fld	fs0,64(s0)
    8e9e:	203a                	fld	ft0,392(sp)
    8ea0:	6425                	lui	s0,0x9
    8ea2:	0000                	unimp
    8ea4:	0a0d                	addi	s4,s4,3
    8ea6:	4420                	lw	s0,72(s0)
    8ea8:	7461                	lui	s0,0xffff8
    8eaa:	2061                	jal	8f32 <_sbrk+0x180>
    8eac:	7270                	flw	fa2,100(a2)
    8eae:	7265706f          	j	605d4 <_data_lma+0x56fb0>
    8eb2:	7974                	flw	fa3,116(a0)
    8eb4:	6420                	flw	fs0,72(s0)
    8eb6:	7369                	lui	t1,0xffffa
    8eb8:	6c70                	flw	fa2,92(s0)
    8eba:	7961                	lui	s2,0xffff8
    8ebc:	3a20                	fld	fs0,112(a2)
    8ebe:	0000                	unimp
    8ec0:	0a0d                	addi	s4,s4,3
    8ec2:	6620                	flw	fs0,72(a2)
    8ec4:	616c                	flw	fa1,68(a0)
    8ec6:	645f6873          	csrrsi	a6,0x645,30
    8eca:	7461                	lui	s0,0xffff8
    8ecc:	5f61                	li	t5,-8
    8ece:	6e75                	lui	t3,0x1d
    8ed0:	6f69                	lui	t5,0x1a
    8ed2:	5f6e                	lw	t5,248(sp)
    8ed4:	7562                	flw	fa0,56(sp)
    8ed6:	6666                	flw	fa2,88(sp)
    8ed8:	7265                	lui	tp,0xffff9
    8eda:	205d305b          	0x205d305b
    8ede:	74697277          	0x74697277
    8ee2:	2065                	jal	8f8a <_sbrk+0x1d8>
    8ee4:	6e69                	lui	t3,0x1a
    8ee6:	3874                	fld	fa3,240(s0)
    8ee8:	6420                	flw	fs0,72(s0)
    8eea:	7461                	lui	s0,0xffff8
    8eec:	2061                	jal	8f74 <_sbrk+0x1c2>
    8eee:	7974                	flw	fa3,116(a0)
    8ef0:	6570                	flw	fa2,76(a0)
    8ef2:	003a                	c.slli	zero,0xe
    8ef4:	0a0d                	addi	s4,s4,3
    8ef6:	6620                	flw	fs0,72(a2)
    8ef8:	616c                	flw	fa1,68(a0)
    8efa:	645f6873          	csrrsi	a6,0x645,30
    8efe:	7461                	lui	s0,0xffff8
    8f00:	5f61                	li	t5,-8
    8f02:	6e75                	lui	t3,0x1d
    8f04:	6f69                	lui	t5,0x1a
    8f06:	5f6e                	lw	t5,248(sp)
    8f08:	7562                	flw	fa0,56(sp)
    8f0a:	6666                	flw	fa2,88(sp)
    8f0c:	7265                	lui	tp,0xffff9
    8f0e:	205d305b          	0x205d305b
    8f12:	74697277          	0x74697277
    8f16:	2065                	jal	8fbe <_sbrk+0x20c>
    8f18:	6c66                	flw	fs8,88(sp)
    8f1a:	2074616f          	jal	sp,4f920 <_data_lma+0x462fc>
    8f1e:	6164                	flw	fs1,68(a0)
    8f20:	6174                	flw	fa3,68(a0)
    8f22:	7420                	flw	fs0,104(s0)
    8f24:	7079                	c.lui	zero,0xffffe
    8f26:	3a65                	jal	88de <_close_r+0x8>
    8f28:	0000                	unimp
    8f2a:	0000                	unimp
    8f2c:	0a0d                	addi	s4,s4,3
    8f2e:	4620                	lw	s0,72(a2)
    8f30:	616c                	flw	fa1,68(a0)
    8f32:	64206873          	csrrsi	a6,0x642,0
    8f36:	7461                	lui	s0,0xffff8
    8f38:	2061                	jal	8fc0 <_sbrk+0x20e>
    8f3a:	7562                	flw	fa0,56(sp)
    8f3c:	6666                	flw	fa2,88(sp)
    8f3e:	7265                	lui	tp,0xffff9
    8f40:	6420                	flw	fs0,72(s0)
    8f42:	6665                	lui	a2,0x19
    8f44:	7561                	lui	a0,0xffff8
    8f46:	746c                	flw	fa1,108(s0)
    8f48:	6420                	flw	fs0,72(s0)
    8f4a:	7461                	lui	s0,0xffff8
    8f4c:	2061                	jal	8fd4 <_sbrk+0x222>
    8f4e:	7369                	lui	t1,0xffffa
    8f50:	3a20                	fld	fs0,112(a2)
    8f52:	0000                	unimp
    8f54:	0a0d                	addi	s4,s4,3
    8f56:	4620                	lw	s0,72(a2)
    8f58:	414c                	lw	a1,4(a0)
    8f5a:	535f4853          	0x535f4853
    8f5e:	4345                	li	t1,17
    8f60:	4954                	lw	a3,20(a0)
    8f62:	495f4e4f          	fnmadd.s	ft8,ft10,fs5,fs1,rmm
    8f66:	444e                	lw	s0,208(sp)
    8f68:	5845                	li	a6,-15
    8f6a:	203a                	fld	ft0,392(sp)
    8f6c:	6425                	lui	s0,0x9
    8f6e:	202c                	fld	fa1,64(s0)
    8f70:	4c46                	lw	s8,80(sp)
    8f72:	5341                	li	t1,-16
    8f74:	5f48                	lw	a0,60(a4)
    8f76:	4150                	lw	a2,4(a0)
    8f78:	495f4547          	fmsub.s	fa0,ft10,fs5,fs1,rmm
    8f7c:	444e                	lw	s0,208(sp)
    8f7e:	5845                	li	a6,-15
    8f80:	203a                	fld	ft0,392(sp)
    8f82:	6425                	lui	s0,0x9
    8f84:	202c                	fld	fa1,64(s0)
    8f86:	656e                	flw	fa0,216(sp)
    8f88:	61642077          	0x61642077
    8f8c:	6174                	flw	fa3,68(a0)
    8f8e:	6920                	flw	fs0,80(a0)
    8f90:	003a2073          	csrs	fcsr,s4
    8f94:	000d                	c.nop	3
    8f96:	0000                	unimp
    8f98:	0000                	unimp
    8f9a:	4185                	li	gp,1
    8f9c:	0fda                	slli	t6,t6,0x16
    8f9e:	4049                	c.li	zero,18
    8fa0:	420a                	lw	tp,128(sp)
    8fa2:	7561                	lui	a0,0xffff8
    8fa4:	2064                	fld	fs1,192(s0)
    8fa6:	6152                	flw	ft2,20(sp)
    8fa8:	6574                	flw	fa3,76(a0)
    8faa:	3d20                	fld	fs0,120(a0)
    8fac:	2520                	fld	fs0,72(a0)
    8fae:	0064                	addi	s1,sp,12
    8fb0:	640a                	flw	fs0,128(sp)
    8fb2:	7461                	lui	s0,0xffff8
    8fb4:	4261                	li	tp,24
    8fb6:	7469                	lui	s0,0xffffa
    8fb8:	3d20                	fld	fs0,120(a0)
    8fba:	2520                	fld	fs0,72(a0)
    8fbc:	0064                	addi	s1,sp,12
    8fbe:	0000                	unimp
    8fc0:	730a                	flw	ft6,160(sp)
    8fc2:	6f74                	flw	fa3,92(a4)
    8fc4:	4270                	lw	a2,68(a2)
    8fc6:	7469                	lui	s0,0xffffa
    8fc8:	3d20                	fld	fs0,120(a0)
    8fca:	2520                	fld	fs0,72(a0)
    8fcc:	0064                	addi	s1,sp,12
    8fce:	0000                	unimp
    8fd0:	700a                	flw	ft0,160(sp)
    8fd2:	7261                	lui	tp,0xffff8
    8fd4:	7469                	lui	s0,0xffffa
    8fd6:	5479                	li	s0,-2
    8fd8:	7079                	c.lui	zero,0xffffe
    8fda:	2065                	jal	9082 <MyReportDescHD+0x12>
    8fdc:	203d                	jal	900a <uart_index+0x12>
    8fde:	6425                	lui	s0,0x9
    8fe0:	0000                	unimp
	...

00008fe4 <gpio_group>:
    8fe4:	0800 4001 0c00 4001 1000 4001 1400 4001     ...@...@...@...@
    8ff4:	1800 4001                                   ...@

00008ff8 <uart_index>:
    8ff8:	3800 4001 4400 4000 4800 4000 4c00 4000     .8.@.D.@.H.@.L.@
    9008:	5000 4000 1800 4000 1c00 4000 2000 4000     .P.@...@...@. .@

00009018 <MyDevDescrHD>:
    9018:	0112 0200 0002 0800 1a86 5722 0100 0201     .........."W....
    9028:	0103 0000                                   ....

0000902c <MyCfgDescrHD>:
    902c:	0209 0043 0102 a000 0932 0004 0100 0202     ..C.....2.......
    903c:	0001 2405 1000 0501 0124 0000 2404 0202     ...$....$....$..
    904c:	2405 0006 0701 8105 4003 ff00 0409 0001     .$.......@......
    905c:	0a02 0000 0700 0205 4002 0000 0507 0282     .........@......
    906c:	0040 0000                                   @...

00009070 <MyReportDescHD>:
    9070:	0314 0032 0030 0031 0037 002d 0032 002d     ..2.0.1.7.-.2.-.
    9080:	0032 0035                                   2.5.

00009084 <MyManuInfoHD>:
    9084:	030e 0077 0063 0068 002e 0063 006e 0000     ..w.c.h...c.n...

00009094 <MyProdInfoHD>:
    9094:	030c 0043 0048 0033 0030 0037               ..C.H.3.0.7.

000090a0 <MySerNumInfoHD>:
    90a0:	0316 0030 0031 0032 0033 0034 0035 0036     ..0.1.2.3.4.5.6.
    90b0:	0037 0038 0039 0000                         7.8.9...

000090b8 <MyUSBQUADescHD>:
    90b8:	060a 0200 00ff 40ff 0001 0000 3a6c 0000     .......@....l:..
    90c8:	37c0 0000 3b7a 0000 38b6 0000 3b7a 0000     .7..z;...8..z;..
    90d8:	3756 0000 3598 0000 3b7a 0000 377a 0000     V7...5..z;..z7..
    90e8:	37a2 0000 3a30 0000 3a50 0000 36e0 0000     .7..0:..P:...6..
    90f8:	35ca 0000 35dc 0000 35f0 0000 36e0 0000     .5...5...5...6..
    9108:	36e0 0000 3688 0000 369a 0000 36e0 0000     .6...6...6...6..
    9118:	36e0 0000 36e0 0000 36e0 0000 36e0 0000     .6...6...6...6..
    9128:	36e0 0000 36e0 0000 36d8 0000 36e0 0000     .6...6...6...6..
    9138:	36e0 0000 36e0 0000 36e0 0000 36e0 0000     .6...6...6...6..
    9148:	36e0 0000 36e0 0000 36e0 0000 36e0 0000     .6...6...6...6..
    9158:	36e0 0000 36e0 0000 36e0 0000 36e0 0000     .6...6...6...6..
    9168:	36e0 0000 36e0 0000 36e0 0000 36e0 0000     .6...6...6...6..
    9178:	36e0 0000 3676 0000 b7fc ffff b680 ffff     .6..v6..........
    9188:	b790 ffff b798 ffff b790 ffff b6b0 ffff     ................
    9198:	b790 ffff b798 ffff b680 ffff b680 ffff     ................
    91a8:	b6b0 ffff b798 ffff b7f2 ffff b7f2 ffff     ................
    91b8:	b7f2 ffff b6b0 ffff be5e ffff bd50 ffff     ........^...P...
    91c8:	bd50 ffff bd4e ffff bd56 ffff bd56 ffff     P...N...V...V...
    91d8:	bd1c ffff bd4e ffff bd56 ffff bd1c ffff     ....N...V.......
    91e8:	bd56 ffff bd4e ffff be4a ffff be4a ffff     V...N...J...J...
    91f8:	be4a ffff bd1c ffff                         J.......

00009200 <__clz_tab>:
    9200:	0100 0202 0303 0303 0404 0404 0404 0404     ................
    9210:	0505 0505 0505 0505 0505 0505 0505 0505     ................
    9220:	0606 0606 0606 0606 0606 0606 0606 0606     ................
    9230:	0606 0606 0606 0606 0606 0606 0606 0606     ................
    9240:	0707 0707 0707 0707 0707 0707 0707 0707     ................
    9250:	0707 0707 0707 0707 0707 0707 0707 0707     ................
    9260:	0707 0707 0707 0707 0707 0707 0707 0707     ................
    9270:	0707 0707 0707 0707 0707 0707 0707 0707     ................
    9280:	0808 0808 0808 0808 0808 0808 0808 0808     ................
    9290:	0808 0808 0808 0808 0808 0808 0808 0808     ................
    92a0:	0808 0808 0808 0808 0808 0808 0808 0808     ................
    92b0:	0808 0808 0808 0808 0808 0808 0808 0808     ................
    92c0:	0808 0808 0808 0808 0808 0808 0808 0808     ................
    92d0:	0808 0808 0808 0808 0808 0808 0808 0808     ................
    92e0:	0808 0808 0808 0808 0808 0808 0808 0808     ................
    92f0:	0808 0808 0808 0808 0808 0808 0808 0808     ................
    9300:	ffff ffff ffff 7fef 4e49 0046 6e69 0066     ........INF.inf.
    9310:	414e 004e 616e 006e 0030 0000 3130 3332     NAN.nan.0...0123
    9320:	3534 3736 3938 4241 4443 4645 0000 0000     456789ABCDEF....
    9330:	3130 3332 3534 3736 3938 6261 6463 6665     0123456789abcdef
	...
    934c:	0000 3ff8 4361 636f 87a7 3fd2 c8b3 8b60     ...?aCoc...?..`.
    935c:	8a28 3fc6 79fb 509f 4413 3fd3 0000 0000     (..?.y.P.D.?....
    936c:	0000 3ff0 0000 0000 0000 4024 0000 0000     ...?......$@....
    937c:	0000 401c 0000 0000 0000 4014 0000 0000     ...@.......@....
    938c:	0000 3fe0 6e49 6966 696e 7974 0000 0000     ...?Infinity....
    939c:	614e 004e                                   NaN.

000093a0 <__sf_fake_stderr>:
	...

000093c0 <__sf_fake_stdin>:
	...

000093e0 <__sf_fake_stdout>:
	...

00009400 <__mprec_bigtens>:
    9400:	8000 37e0 c379 4341 6e17 b505 b8b5 4693     ...7y.AC.n.....F
    9410:	f9f5 e93f 4f03 4d38 1d32 f930 7748 5a82     ..?..O8M2.0.Hw.Z
    9420:	bf3c 7f73 4fdd 7515                         <.s..O.u

00009428 <__mprec_tens>:
    9428:	0000 0000 0000 3ff0 0000 0000 0000 4024     .......?......$@
    9438:	0000 0000 0000 4059 0000 0000 4000 408f     ......Y@.....@.@
    9448:	0000 0000 8800 40c3 0000 0000 6a00 40f8     .......@.....j.@
    9458:	0000 0000 8480 412e 0000 0000 12d0 4163     .......A......cA
    9468:	0000 0000 d784 4197 0000 0000 cd65 41cd     .......A....e..A
    9478:	0000 2000 a05f 4202 0000 e800 4876 4237     ... _..B....vH7B
    9488:	0000 a200 1a94 426d 0000 e540 309c 42a2     ......mB..@..0.B
    9498:	0000 1e90 bcc4 42d6 0000 2634 6bf5 430c     .......B..4&.k.C
    94a8:	8000 37e0 c379 4341 a000 85d8 3457 4376     ...7y.AC....W4vC
    94b8:	c800 674e c16d 43ab 3d00 6091 58e4 43e1     ..Ngm..C.=.`.X.C
    94c8:	8c40 78b5 af1d 4415 ef50 d6e2 1ae4 444b     @..x...DP.....KD
    94d8:	d592 064d f0cf 4480 4af6 c7e1 2d02 44b5     ..M....D.J...-.D
    94e8:	9db4 79d9 7843 44ea                         ...yCx.D

000094f0 <p05.3319>:
    94f0:	0005 0000 0019 0000 007d 0000 2d23 2b30     ........}...#-0+
    9500:	0020 0000 6c68 004c 6665 4567 4746 0000      ...hlL.efgEFG..
    9510:	0043 0000 4f50 4953 0058 0000 002e 0000     C...POSIX.......

00009520 <_ctype_>:
    9520:	2000 2020 2020 2020 2020 2828 2828 2028     .         ((((( 
    9530:	2020 2020 2020 2020 2020 2020 2020 2020                     
    9540:	8820 1010 1010 1010 1010 1010 1010 1010      ...............
    9550:	0410 0404 0404 0404 0404 1004 1010 1010     ................
    9560:	1010 4141 4141 4141 0101 0101 0101 0101     ..AAAAAA........
    9570:	0101 0101 0101 0101 0101 0101 1010 1010     ................
    9580:	1010 4242 4242 4242 0202 0202 0202 0202     ..BBBBBB........
    9590:	0202 0202 0202 0202 0202 0202 1010 1010     ................
    95a0:	0020 0000 0000 0000 0000 0000 0000 0000      ...............
	...
